ARM GAS  C:\Users\User\AppData\Local\Temp\ccTFByJK.s 			page 1


   1              		.cpu cortex-m3
   2              		.eabi_attribute 20, 1
   3              		.eabi_attribute 21, 1
   4              		.eabi_attribute 23, 3
   5              		.eabi_attribute 24, 1
   6              		.eabi_attribute 25, 1
   7              		.eabi_attribute 26, 1
   8              		.eabi_attribute 30, 1
   9              		.eabi_attribute 34, 1
  10              		.eabi_attribute 18, 4
  11              		.file	"cmsis_os.c"
  12              		.text
  13              	.Ltext0:
  14              		.cfi_sections	.debug_frame
  15              		.section	.text.makeFreeRtosPriority,"ax",%progbits
  16              		.align	1
  17              		.arch armv7-m
  18              		.syntax unified
  19              		.thumb
  20              		.thumb_func
  21              		.fpu softvfp
  23              	makeFreeRtosPriority:
  24              	.LVL0:
  25              	.LFB49:
  26              		.file 1 "Middlewares/Third_Party/FreeRTOS/Source/CMSIS_RTOS/cmsis_os.c"
   1:Middlewares/Third_Party/FreeRTOS/Source/CMSIS_RTOS/cmsis_os.c **** /* ----------------------------------------------------------------------
   2:Middlewares/Third_Party/FreeRTOS/Source/CMSIS_RTOS/cmsis_os.c ****  * $Date:        5. February 2013
   3:Middlewares/Third_Party/FreeRTOS/Source/CMSIS_RTOS/cmsis_os.c ****  * $Revision:    V1.02
   4:Middlewares/Third_Party/FreeRTOS/Source/CMSIS_RTOS/cmsis_os.c ****  *
   5:Middlewares/Third_Party/FreeRTOS/Source/CMSIS_RTOS/cmsis_os.c ****  * Project:      CMSIS-RTOS API
   6:Middlewares/Third_Party/FreeRTOS/Source/CMSIS_RTOS/cmsis_os.c ****  * Title:        cmsis_os.c
   7:Middlewares/Third_Party/FreeRTOS/Source/CMSIS_RTOS/cmsis_os.c ****  *
   8:Middlewares/Third_Party/FreeRTOS/Source/CMSIS_RTOS/cmsis_os.c ****  * Version 0.02
   9:Middlewares/Third_Party/FreeRTOS/Source/CMSIS_RTOS/cmsis_os.c ****  *    Initial Proposal Phase
  10:Middlewares/Third_Party/FreeRTOS/Source/CMSIS_RTOS/cmsis_os.c ****  * Version 0.03
  11:Middlewares/Third_Party/FreeRTOS/Source/CMSIS_RTOS/cmsis_os.c ****  *    osKernelStart added, optional feature: main started as thread
  12:Middlewares/Third_Party/FreeRTOS/Source/CMSIS_RTOS/cmsis_os.c ****  *    osSemaphores have standard behavior
  13:Middlewares/Third_Party/FreeRTOS/Source/CMSIS_RTOS/cmsis_os.c ****  *    osTimerCreate does not start the timer, added osTimerStart
  14:Middlewares/Third_Party/FreeRTOS/Source/CMSIS_RTOS/cmsis_os.c ****  *    osThreadPass is renamed to osThreadYield
  15:Middlewares/Third_Party/FreeRTOS/Source/CMSIS_RTOS/cmsis_os.c ****  * Version 1.01
  16:Middlewares/Third_Party/FreeRTOS/Source/CMSIS_RTOS/cmsis_os.c ****  *    Support for C++ interface
  17:Middlewares/Third_Party/FreeRTOS/Source/CMSIS_RTOS/cmsis_os.c ****  *     - const attribute removed from the osXxxxDef_t typedef's
  18:Middlewares/Third_Party/FreeRTOS/Source/CMSIS_RTOS/cmsis_os.c ****  *     - const attribute added to the osXxxxDef macros
  19:Middlewares/Third_Party/FreeRTOS/Source/CMSIS_RTOS/cmsis_os.c ****  *    Added: osTimerDelete, osMutexDelete, osSemaphoreDelete
  20:Middlewares/Third_Party/FreeRTOS/Source/CMSIS_RTOS/cmsis_os.c ****  *    Added: osKernelInitialize
  21:Middlewares/Third_Party/FreeRTOS/Source/CMSIS_RTOS/cmsis_os.c ****  * Version 1.02
  22:Middlewares/Third_Party/FreeRTOS/Source/CMSIS_RTOS/cmsis_os.c ****  *    Control functions for short timeouts in microsecond resolution:
  23:Middlewares/Third_Party/FreeRTOS/Source/CMSIS_RTOS/cmsis_os.c ****  *    Added: osKernelSysTick, osKernelSysTickFrequency, osKernelSysTickMicroSec
  24:Middlewares/Third_Party/FreeRTOS/Source/CMSIS_RTOS/cmsis_os.c ****  *    Removed: osSignalGet 
  25:Middlewares/Third_Party/FreeRTOS/Source/CMSIS_RTOS/cmsis_os.c ****  *    
  26:Middlewares/Third_Party/FreeRTOS/Source/CMSIS_RTOS/cmsis_os.c ****  *  
  27:Middlewares/Third_Party/FreeRTOS/Source/CMSIS_RTOS/cmsis_os.c ****  *----------------------------------------------------------------------------
  28:Middlewares/Third_Party/FreeRTOS/Source/CMSIS_RTOS/cmsis_os.c ****  *
  29:Middlewares/Third_Party/FreeRTOS/Source/CMSIS_RTOS/cmsis_os.c ****  * Portions Copyright © 2016 STMicroelectronics International N.V. All rights reserved.
  30:Middlewares/Third_Party/FreeRTOS/Source/CMSIS_RTOS/cmsis_os.c ****  * Portions Copyright (c) 2013 ARM LIMITED
  31:Middlewares/Third_Party/FreeRTOS/Source/CMSIS_RTOS/cmsis_os.c ****  * All rights reserved.
  32:Middlewares/Third_Party/FreeRTOS/Source/CMSIS_RTOS/cmsis_os.c ****  * Redistribution and use in source and binary forms, with or without
ARM GAS  C:\Users\User\AppData\Local\Temp\ccTFByJK.s 			page 2


  33:Middlewares/Third_Party/FreeRTOS/Source/CMSIS_RTOS/cmsis_os.c ****  * modification, are permitted provided that the following conditions are met:
  34:Middlewares/Third_Party/FreeRTOS/Source/CMSIS_RTOS/cmsis_os.c ****  *  - Redistributions of source code must retain the above copyright
  35:Middlewares/Third_Party/FreeRTOS/Source/CMSIS_RTOS/cmsis_os.c ****  *    notice, this list of conditions and the following disclaimer.
  36:Middlewares/Third_Party/FreeRTOS/Source/CMSIS_RTOS/cmsis_os.c ****  *  - Redistributions in binary form must reproduce the above copyright
  37:Middlewares/Third_Party/FreeRTOS/Source/CMSIS_RTOS/cmsis_os.c ****  *    notice, this list of conditions and the following disclaimer in the
  38:Middlewares/Third_Party/FreeRTOS/Source/CMSIS_RTOS/cmsis_os.c ****  *    documentation and/or other materials provided with the distribution.
  39:Middlewares/Third_Party/FreeRTOS/Source/CMSIS_RTOS/cmsis_os.c ****  *  - Neither the name of ARM  nor the names of its contributors may be used
  40:Middlewares/Third_Party/FreeRTOS/Source/CMSIS_RTOS/cmsis_os.c ****  *    to endorse or promote products derived from this software without
  41:Middlewares/Third_Party/FreeRTOS/Source/CMSIS_RTOS/cmsis_os.c ****  *    specific prior written permission.
  42:Middlewares/Third_Party/FreeRTOS/Source/CMSIS_RTOS/cmsis_os.c ****  *
  43:Middlewares/Third_Party/FreeRTOS/Source/CMSIS_RTOS/cmsis_os.c ****  * THIS SOFTWARE IS PROVIDED BY THE COPYRIGHT HOLDERS AND CONTRIBUTORS "AS IS"
  44:Middlewares/Third_Party/FreeRTOS/Source/CMSIS_RTOS/cmsis_os.c ****  * AND ANY EXPRESS OR IMPLIED WARRANTIES, INCLUDING, BUT NOT LIMITED TO, THE
  45:Middlewares/Third_Party/FreeRTOS/Source/CMSIS_RTOS/cmsis_os.c ****  * IMPLIED WARRANTIES OF MERCHANTABILITY AND FITNESS FOR A PARTICULAR PURPOSE
  46:Middlewares/Third_Party/FreeRTOS/Source/CMSIS_RTOS/cmsis_os.c ****  * ARE DISCLAIMED. IN NO EVENT SHALL COPYRIGHT HOLDERS AND CONTRIBUTORS BE
  47:Middlewares/Third_Party/FreeRTOS/Source/CMSIS_RTOS/cmsis_os.c ****  * LIABLE FOR ANY DIRECT, INDIRECT, INCIDENTAL, SPECIAL, EXEMPLARY, OR
  48:Middlewares/Third_Party/FreeRTOS/Source/CMSIS_RTOS/cmsis_os.c ****  * CONSEQUENTIAL DAMAGES (INCLUDING, BUT NOT LIMITED TO, PROCUREMENT OF
  49:Middlewares/Third_Party/FreeRTOS/Source/CMSIS_RTOS/cmsis_os.c ****  * SUBSTITUTE GOODS OR SERVICES; LOSS OF USE, DATA, OR PROFITS; OR BUSINESS
  50:Middlewares/Third_Party/FreeRTOS/Source/CMSIS_RTOS/cmsis_os.c ****  * INTERRUPTION) HOWEVER CAUSED AND ON ANY THEORY OF LIABILITY, WHETHER IN
  51:Middlewares/Third_Party/FreeRTOS/Source/CMSIS_RTOS/cmsis_os.c ****  * CONTRACT, STRICT LIABILITY, OR TORT (INCLUDING NEGLIGENCE OR OTHERWISE)
  52:Middlewares/Third_Party/FreeRTOS/Source/CMSIS_RTOS/cmsis_os.c ****  * ARISING IN ANY WAY OUT OF THE USE OF THIS SOFTWARE, EVEN IF ADVISED OF THE
  53:Middlewares/Third_Party/FreeRTOS/Source/CMSIS_RTOS/cmsis_os.c ****  * POSSIBILITY OF SUCH DAMAGE.
  54:Middlewares/Third_Party/FreeRTOS/Source/CMSIS_RTOS/cmsis_os.c ****  *---------------------------------------------------------------------------*/
  55:Middlewares/Third_Party/FreeRTOS/Source/CMSIS_RTOS/cmsis_os.c **** 
  56:Middlewares/Third_Party/FreeRTOS/Source/CMSIS_RTOS/cmsis_os.c **** #include <string.h>
  57:Middlewares/Third_Party/FreeRTOS/Source/CMSIS_RTOS/cmsis_os.c **** #include "cmsis_os.h"
  58:Middlewares/Third_Party/FreeRTOS/Source/CMSIS_RTOS/cmsis_os.c **** 
  59:Middlewares/Third_Party/FreeRTOS/Source/CMSIS_RTOS/cmsis_os.c **** /*
  60:Middlewares/Third_Party/FreeRTOS/Source/CMSIS_RTOS/cmsis_os.c ****  * ARM Compiler 4/5
  61:Middlewares/Third_Party/FreeRTOS/Source/CMSIS_RTOS/cmsis_os.c ****  */
  62:Middlewares/Third_Party/FreeRTOS/Source/CMSIS_RTOS/cmsis_os.c **** #if   defined ( __CC_ARM )
  63:Middlewares/Third_Party/FreeRTOS/Source/CMSIS_RTOS/cmsis_os.c **** 
  64:Middlewares/Third_Party/FreeRTOS/Source/CMSIS_RTOS/cmsis_os.c ****   #define __ASM            __asm                                      
  65:Middlewares/Third_Party/FreeRTOS/Source/CMSIS_RTOS/cmsis_os.c ****   #define __INLINE         __inline                                     
  66:Middlewares/Third_Party/FreeRTOS/Source/CMSIS_RTOS/cmsis_os.c ****   #define __STATIC_INLINE  static __inline
  67:Middlewares/Third_Party/FreeRTOS/Source/CMSIS_RTOS/cmsis_os.c **** 
  68:Middlewares/Third_Party/FreeRTOS/Source/CMSIS_RTOS/cmsis_os.c ****   #include "cmsis_armcc.h"
  69:Middlewares/Third_Party/FreeRTOS/Source/CMSIS_RTOS/cmsis_os.c **** 
  70:Middlewares/Third_Party/FreeRTOS/Source/CMSIS_RTOS/cmsis_os.c **** /*
  71:Middlewares/Third_Party/FreeRTOS/Source/CMSIS_RTOS/cmsis_os.c ****  * GNU Compiler
  72:Middlewares/Third_Party/FreeRTOS/Source/CMSIS_RTOS/cmsis_os.c ****  */
  73:Middlewares/Third_Party/FreeRTOS/Source/CMSIS_RTOS/cmsis_os.c **** #elif defined ( __GNUC__ )
  74:Middlewares/Third_Party/FreeRTOS/Source/CMSIS_RTOS/cmsis_os.c **** 
  75:Middlewares/Third_Party/FreeRTOS/Source/CMSIS_RTOS/cmsis_os.c ****   #define __ASM            __asm                                      /*!< asm keyword for GNU Comp
  76:Middlewares/Third_Party/FreeRTOS/Source/CMSIS_RTOS/cmsis_os.c ****   #define __INLINE         inline                                     /*!< inline keyword for GNU C
  77:Middlewares/Third_Party/FreeRTOS/Source/CMSIS_RTOS/cmsis_os.c ****   #define __STATIC_INLINE  static inline
  78:Middlewares/Third_Party/FreeRTOS/Source/CMSIS_RTOS/cmsis_os.c **** 
  79:Middlewares/Third_Party/FreeRTOS/Source/CMSIS_RTOS/cmsis_os.c ****   #include "cmsis_gcc.h"
  80:Middlewares/Third_Party/FreeRTOS/Source/CMSIS_RTOS/cmsis_os.c **** 
  81:Middlewares/Third_Party/FreeRTOS/Source/CMSIS_RTOS/cmsis_os.c **** 
  82:Middlewares/Third_Party/FreeRTOS/Source/CMSIS_RTOS/cmsis_os.c **** /*
  83:Middlewares/Third_Party/FreeRTOS/Source/CMSIS_RTOS/cmsis_os.c ****  * IAR Compiler
  84:Middlewares/Third_Party/FreeRTOS/Source/CMSIS_RTOS/cmsis_os.c ****  */
  85:Middlewares/Third_Party/FreeRTOS/Source/CMSIS_RTOS/cmsis_os.c **** #elif defined ( __ICCARM__ )
  86:Middlewares/Third_Party/FreeRTOS/Source/CMSIS_RTOS/cmsis_os.c **** 
  87:Middlewares/Third_Party/FreeRTOS/Source/CMSIS_RTOS/cmsis_os.c ****   #ifndef   __ASM
  88:Middlewares/Third_Party/FreeRTOS/Source/CMSIS_RTOS/cmsis_os.c ****     #define __ASM                     __asm
  89:Middlewares/Third_Party/FreeRTOS/Source/CMSIS_RTOS/cmsis_os.c ****   #endif
ARM GAS  C:\Users\User\AppData\Local\Temp\ccTFByJK.s 			page 3


  90:Middlewares/Third_Party/FreeRTOS/Source/CMSIS_RTOS/cmsis_os.c ****   #ifndef   __INLINE
  91:Middlewares/Third_Party/FreeRTOS/Source/CMSIS_RTOS/cmsis_os.c ****     #define __INLINE                  inline
  92:Middlewares/Third_Party/FreeRTOS/Source/CMSIS_RTOS/cmsis_os.c ****   #endif
  93:Middlewares/Third_Party/FreeRTOS/Source/CMSIS_RTOS/cmsis_os.c ****   #ifndef   __STATIC_INLINE
  94:Middlewares/Third_Party/FreeRTOS/Source/CMSIS_RTOS/cmsis_os.c ****     #define __STATIC_INLINE           static inline
  95:Middlewares/Third_Party/FreeRTOS/Source/CMSIS_RTOS/cmsis_os.c ****   #endif
  96:Middlewares/Third_Party/FreeRTOS/Source/CMSIS_RTOS/cmsis_os.c **** 
  97:Middlewares/Third_Party/FreeRTOS/Source/CMSIS_RTOS/cmsis_os.c ****   #include <cmsis_iar.h>
  98:Middlewares/Third_Party/FreeRTOS/Source/CMSIS_RTOS/cmsis_os.c **** #endif
  99:Middlewares/Third_Party/FreeRTOS/Source/CMSIS_RTOS/cmsis_os.c **** 
 100:Middlewares/Third_Party/FreeRTOS/Source/CMSIS_RTOS/cmsis_os.c **** extern void xPortSysTickHandler(void);
 101:Middlewares/Third_Party/FreeRTOS/Source/CMSIS_RTOS/cmsis_os.c **** 
 102:Middlewares/Third_Party/FreeRTOS/Source/CMSIS_RTOS/cmsis_os.c **** /* Convert from CMSIS type osPriority to FreeRTOS priority number */
 103:Middlewares/Third_Party/FreeRTOS/Source/CMSIS_RTOS/cmsis_os.c **** static unsigned portBASE_TYPE makeFreeRtosPriority (osPriority priority)
 104:Middlewares/Third_Party/FreeRTOS/Source/CMSIS_RTOS/cmsis_os.c **** {
  27              		.loc 1 104 1 view -0
  28              		.cfi_startproc
  29              		@ args = 0, pretend = 0, frame = 0
  30              		@ frame_needed = 0, uses_anonymous_args = 0
  31              		@ link register save eliminated.
 105:Middlewares/Third_Party/FreeRTOS/Source/CMSIS_RTOS/cmsis_os.c ****   unsigned portBASE_TYPE fpriority = tskIDLE_PRIORITY;
  32              		.loc 1 105 3 view .LVU1
 106:Middlewares/Third_Party/FreeRTOS/Source/CMSIS_RTOS/cmsis_os.c ****   
 107:Middlewares/Third_Party/FreeRTOS/Source/CMSIS_RTOS/cmsis_os.c ****   if (priority != osPriorityError) {
  33              		.loc 1 107 3 view .LVU2
  34              		.loc 1 107 6 is_stmt 0 view .LVU3
  35 0000 8428     		cmp	r0, #132
  36 0002 01D0     		beq	.L3
 108:Middlewares/Third_Party/FreeRTOS/Source/CMSIS_RTOS/cmsis_os.c ****     fpriority += (priority - osPriorityIdle);
  37              		.loc 1 108 5 is_stmt 1 view .LVU4
  38              		.loc 1 108 15 is_stmt 0 view .LVU5
  39 0004 0330     		adds	r0, r0, #3
  40              	.LVL1:
  41              		.loc 1 108 15 view .LVU6
  42 0006 7047     		bx	lr
  43              	.LVL2:
  44              	.L3:
 105:Middlewares/Third_Party/FreeRTOS/Source/CMSIS_RTOS/cmsis_os.c ****   unsigned portBASE_TYPE fpriority = tskIDLE_PRIORITY;
  45              		.loc 1 105 26 view .LVU7
  46 0008 0020     		movs	r0, #0
  47              	.LVL3:
 109:Middlewares/Third_Party/FreeRTOS/Source/CMSIS_RTOS/cmsis_os.c ****   }
 110:Middlewares/Third_Party/FreeRTOS/Source/CMSIS_RTOS/cmsis_os.c ****   
 111:Middlewares/Third_Party/FreeRTOS/Source/CMSIS_RTOS/cmsis_os.c ****   return fpriority;
  48              		.loc 1 111 3 is_stmt 1 view .LVU8
 112:Middlewares/Third_Party/FreeRTOS/Source/CMSIS_RTOS/cmsis_os.c **** }
  49              		.loc 1 112 1 is_stmt 0 view .LVU9
  50 000a 7047     		bx	lr
  51              		.cfi_endproc
  52              	.LFE49:
  54              		.section	.text.makeCmsisPriority,"ax",%progbits
  55              		.align	1
  56              		.syntax unified
  57              		.thumb
  58              		.thumb_func
  59              		.fpu softvfp
  61              	makeCmsisPriority:
ARM GAS  C:\Users\User\AppData\Local\Temp\ccTFByJK.s 			page 4


  62              	.LVL4:
  63              	.LFB50:
 113:Middlewares/Third_Party/FreeRTOS/Source/CMSIS_RTOS/cmsis_os.c **** 
 114:Middlewares/Third_Party/FreeRTOS/Source/CMSIS_RTOS/cmsis_os.c **** #if (INCLUDE_uxTaskPriorityGet == 1)
 115:Middlewares/Third_Party/FreeRTOS/Source/CMSIS_RTOS/cmsis_os.c **** /* Convert from FreeRTOS priority number to CMSIS type osPriority */
 116:Middlewares/Third_Party/FreeRTOS/Source/CMSIS_RTOS/cmsis_os.c **** static osPriority makeCmsisPriority (unsigned portBASE_TYPE fpriority)
 117:Middlewares/Third_Party/FreeRTOS/Source/CMSIS_RTOS/cmsis_os.c **** {
  64              		.loc 1 117 1 is_stmt 1 view -0
  65              		.cfi_startproc
  66              		@ args = 0, pretend = 0, frame = 0
  67              		@ frame_needed = 0, uses_anonymous_args = 0
  68              		@ link register save eliminated.
 118:Middlewares/Third_Party/FreeRTOS/Source/CMSIS_RTOS/cmsis_os.c ****   osPriority priority = osPriorityError;
  69              		.loc 1 118 3 view .LVU11
 119:Middlewares/Third_Party/FreeRTOS/Source/CMSIS_RTOS/cmsis_os.c ****   
 120:Middlewares/Third_Party/FreeRTOS/Source/CMSIS_RTOS/cmsis_os.c ****   if ((fpriority - tskIDLE_PRIORITY) <= (osPriorityRealtime - osPriorityIdle)) {
  70              		.loc 1 120 3 view .LVU12
  71              		.loc 1 120 6 is_stmt 0 view .LVU13
  72 0000 0628     		cmp	r0, #6
  73 0002 02D8     		bhi	.L6
 121:Middlewares/Third_Party/FreeRTOS/Source/CMSIS_RTOS/cmsis_os.c ****     priority = (osPriority)((int)osPriorityIdle + (int)(fpriority - tskIDLE_PRIORITY));
  74              		.loc 1 121 5 is_stmt 1 view .LVU14
  75              		.loc 1 121 49 is_stmt 0 view .LVU15
  76 0004 0338     		subs	r0, r0, #3
  77              	.LVL5:
  78              		.loc 1 121 14 view .LVU16
  79 0006 00B2     		sxth	r0, r0
  80              	.LVL6:
  81              		.loc 1 121 14 view .LVU17
  82 0008 7047     		bx	lr
  83              	.LVL7:
  84              	.L6:
 118:Middlewares/Third_Party/FreeRTOS/Source/CMSIS_RTOS/cmsis_os.c ****   osPriority priority = osPriorityError;
  85              		.loc 1 118 14 view .LVU18
  86 000a 8420     		movs	r0, #132
  87              	.LVL8:
 122:Middlewares/Third_Party/FreeRTOS/Source/CMSIS_RTOS/cmsis_os.c ****   }
 123:Middlewares/Third_Party/FreeRTOS/Source/CMSIS_RTOS/cmsis_os.c ****   
 124:Middlewares/Third_Party/FreeRTOS/Source/CMSIS_RTOS/cmsis_os.c ****   return priority;
  88              		.loc 1 124 3 is_stmt 1 view .LVU19
 125:Middlewares/Third_Party/FreeRTOS/Source/CMSIS_RTOS/cmsis_os.c **** }
  89              		.loc 1 125 1 is_stmt 0 view .LVU20
  90 000c 7047     		bx	lr
  91              		.cfi_endproc
  92              	.LFE50:
  94              		.section	.text.inHandlerMode,"ax",%progbits
  95              		.align	1
  96              		.syntax unified
  97              		.thumb
  98              		.thumb_func
  99              		.fpu softvfp
 101              	inHandlerMode:
 102              	.LFB51:
 126:Middlewares/Third_Party/FreeRTOS/Source/CMSIS_RTOS/cmsis_os.c **** #endif
 127:Middlewares/Third_Party/FreeRTOS/Source/CMSIS_RTOS/cmsis_os.c **** 
 128:Middlewares/Third_Party/FreeRTOS/Source/CMSIS_RTOS/cmsis_os.c **** 
 129:Middlewares/Third_Party/FreeRTOS/Source/CMSIS_RTOS/cmsis_os.c **** /* Determine whether we are in thread mode or handler mode. */
ARM GAS  C:\Users\User\AppData\Local\Temp\ccTFByJK.s 			page 5


 130:Middlewares/Third_Party/FreeRTOS/Source/CMSIS_RTOS/cmsis_os.c **** static int inHandlerMode (void)
 131:Middlewares/Third_Party/FreeRTOS/Source/CMSIS_RTOS/cmsis_os.c **** {
 103              		.loc 1 131 1 is_stmt 1 view -0
 104              		.cfi_startproc
 105              		@ args = 0, pretend = 0, frame = 0
 106              		@ frame_needed = 0, uses_anonymous_args = 0
 107              		@ link register save eliminated.
 132:Middlewares/Third_Party/FreeRTOS/Source/CMSIS_RTOS/cmsis_os.c ****   return __get_IPSR() != 0;
 108              		.loc 1 132 3 view .LVU22
 109              	.LBB8:
 110              	.LBI8:
 111              		.file 2 "Drivers/CMSIS/Include/cmsis_gcc.h"
   1:Drivers/CMSIS/Include/cmsis_gcc.h **** /**************************************************************************//**
   2:Drivers/CMSIS/Include/cmsis_gcc.h ****  * @file     cmsis_gcc.h
   3:Drivers/CMSIS/Include/cmsis_gcc.h ****  * @brief    CMSIS compiler GCC header file
   4:Drivers/CMSIS/Include/cmsis_gcc.h ****  * @version  V5.0.4
   5:Drivers/CMSIS/Include/cmsis_gcc.h ****  * @date     09. April 2018
   6:Drivers/CMSIS/Include/cmsis_gcc.h ****  ******************************************************************************/
   7:Drivers/CMSIS/Include/cmsis_gcc.h **** /*
   8:Drivers/CMSIS/Include/cmsis_gcc.h ****  * Copyright (c) 2009-2018 Arm Limited. All rights reserved.
   9:Drivers/CMSIS/Include/cmsis_gcc.h ****  *
  10:Drivers/CMSIS/Include/cmsis_gcc.h ****  * SPDX-License-Identifier: Apache-2.0
  11:Drivers/CMSIS/Include/cmsis_gcc.h ****  *
  12:Drivers/CMSIS/Include/cmsis_gcc.h ****  * Licensed under the Apache License, Version 2.0 (the License); you may
  13:Drivers/CMSIS/Include/cmsis_gcc.h ****  * not use this file except in compliance with the License.
  14:Drivers/CMSIS/Include/cmsis_gcc.h ****  * You may obtain a copy of the License at
  15:Drivers/CMSIS/Include/cmsis_gcc.h ****  *
  16:Drivers/CMSIS/Include/cmsis_gcc.h ****  * www.apache.org/licenses/LICENSE-2.0
  17:Drivers/CMSIS/Include/cmsis_gcc.h ****  *
  18:Drivers/CMSIS/Include/cmsis_gcc.h ****  * Unless required by applicable law or agreed to in writing, software
  19:Drivers/CMSIS/Include/cmsis_gcc.h ****  * distributed under the License is distributed on an AS IS BASIS, WITHOUT
  20:Drivers/CMSIS/Include/cmsis_gcc.h ****  * WARRANTIES OR CONDITIONS OF ANY KIND, either express or implied.
  21:Drivers/CMSIS/Include/cmsis_gcc.h ****  * See the License for the specific language governing permissions and
  22:Drivers/CMSIS/Include/cmsis_gcc.h ****  * limitations under the License.
  23:Drivers/CMSIS/Include/cmsis_gcc.h ****  */
  24:Drivers/CMSIS/Include/cmsis_gcc.h **** 
  25:Drivers/CMSIS/Include/cmsis_gcc.h **** #ifndef __CMSIS_GCC_H
  26:Drivers/CMSIS/Include/cmsis_gcc.h **** #define __CMSIS_GCC_H
  27:Drivers/CMSIS/Include/cmsis_gcc.h **** 
  28:Drivers/CMSIS/Include/cmsis_gcc.h **** /* ignore some GCC warnings */
  29:Drivers/CMSIS/Include/cmsis_gcc.h **** #pragma GCC diagnostic push
  30:Drivers/CMSIS/Include/cmsis_gcc.h **** #pragma GCC diagnostic ignored "-Wsign-conversion"
  31:Drivers/CMSIS/Include/cmsis_gcc.h **** #pragma GCC diagnostic ignored "-Wconversion"
  32:Drivers/CMSIS/Include/cmsis_gcc.h **** #pragma GCC diagnostic ignored "-Wunused-parameter"
  33:Drivers/CMSIS/Include/cmsis_gcc.h **** 
  34:Drivers/CMSIS/Include/cmsis_gcc.h **** /* Fallback for __has_builtin */
  35:Drivers/CMSIS/Include/cmsis_gcc.h **** #ifndef __has_builtin
  36:Drivers/CMSIS/Include/cmsis_gcc.h ****   #define __has_builtin(x) (0)
  37:Drivers/CMSIS/Include/cmsis_gcc.h **** #endif
  38:Drivers/CMSIS/Include/cmsis_gcc.h **** 
  39:Drivers/CMSIS/Include/cmsis_gcc.h **** /* CMSIS compiler specific defines */
  40:Drivers/CMSIS/Include/cmsis_gcc.h **** #ifndef   __ASM
  41:Drivers/CMSIS/Include/cmsis_gcc.h ****   #define __ASM                                  __asm
  42:Drivers/CMSIS/Include/cmsis_gcc.h **** #endif
  43:Drivers/CMSIS/Include/cmsis_gcc.h **** #ifndef   __INLINE
  44:Drivers/CMSIS/Include/cmsis_gcc.h ****   #define __INLINE                               inline
  45:Drivers/CMSIS/Include/cmsis_gcc.h **** #endif
ARM GAS  C:\Users\User\AppData\Local\Temp\ccTFByJK.s 			page 6


  46:Drivers/CMSIS/Include/cmsis_gcc.h **** #ifndef   __STATIC_INLINE
  47:Drivers/CMSIS/Include/cmsis_gcc.h ****   #define __STATIC_INLINE                        static inline
  48:Drivers/CMSIS/Include/cmsis_gcc.h **** #endif
  49:Drivers/CMSIS/Include/cmsis_gcc.h **** #ifndef   __STATIC_FORCEINLINE                 
  50:Drivers/CMSIS/Include/cmsis_gcc.h ****   #define __STATIC_FORCEINLINE                   __attribute__((always_inline)) static inline
  51:Drivers/CMSIS/Include/cmsis_gcc.h **** #endif                                           
  52:Drivers/CMSIS/Include/cmsis_gcc.h **** #ifndef   __NO_RETURN
  53:Drivers/CMSIS/Include/cmsis_gcc.h ****   #define __NO_RETURN                            __attribute__((__noreturn__))
  54:Drivers/CMSIS/Include/cmsis_gcc.h **** #endif
  55:Drivers/CMSIS/Include/cmsis_gcc.h **** #ifndef   __USED
  56:Drivers/CMSIS/Include/cmsis_gcc.h ****   #define __USED                                 __attribute__((used))
  57:Drivers/CMSIS/Include/cmsis_gcc.h **** #endif
  58:Drivers/CMSIS/Include/cmsis_gcc.h **** #ifndef   __WEAK
  59:Drivers/CMSIS/Include/cmsis_gcc.h ****   #define __WEAK                                 __attribute__((weak))
  60:Drivers/CMSIS/Include/cmsis_gcc.h **** #endif
  61:Drivers/CMSIS/Include/cmsis_gcc.h **** #ifndef   __PACKED
  62:Drivers/CMSIS/Include/cmsis_gcc.h ****   #define __PACKED                               __attribute__((packed, aligned(1)))
  63:Drivers/CMSIS/Include/cmsis_gcc.h **** #endif
  64:Drivers/CMSIS/Include/cmsis_gcc.h **** #ifndef   __PACKED_STRUCT
  65:Drivers/CMSIS/Include/cmsis_gcc.h ****   #define __PACKED_STRUCT                        struct __attribute__((packed, aligned(1)))
  66:Drivers/CMSIS/Include/cmsis_gcc.h **** #endif
  67:Drivers/CMSIS/Include/cmsis_gcc.h **** #ifndef   __PACKED_UNION
  68:Drivers/CMSIS/Include/cmsis_gcc.h ****   #define __PACKED_UNION                         union __attribute__((packed, aligned(1)))
  69:Drivers/CMSIS/Include/cmsis_gcc.h **** #endif
  70:Drivers/CMSIS/Include/cmsis_gcc.h **** #ifndef   __UNALIGNED_UINT32        /* deprecated */
  71:Drivers/CMSIS/Include/cmsis_gcc.h ****   #pragma GCC diagnostic push
  72:Drivers/CMSIS/Include/cmsis_gcc.h ****   #pragma GCC diagnostic ignored "-Wpacked"
  73:Drivers/CMSIS/Include/cmsis_gcc.h ****   #pragma GCC diagnostic ignored "-Wattributes"
  74:Drivers/CMSIS/Include/cmsis_gcc.h ****   struct __attribute__((packed)) T_UINT32 { uint32_t v; };
  75:Drivers/CMSIS/Include/cmsis_gcc.h ****   #pragma GCC diagnostic pop
  76:Drivers/CMSIS/Include/cmsis_gcc.h ****   #define __UNALIGNED_UINT32(x)                  (((struct T_UINT32 *)(x))->v)
  77:Drivers/CMSIS/Include/cmsis_gcc.h **** #endif
  78:Drivers/CMSIS/Include/cmsis_gcc.h **** #ifndef   __UNALIGNED_UINT16_WRITE
  79:Drivers/CMSIS/Include/cmsis_gcc.h ****   #pragma GCC diagnostic push
  80:Drivers/CMSIS/Include/cmsis_gcc.h ****   #pragma GCC diagnostic ignored "-Wpacked"
  81:Drivers/CMSIS/Include/cmsis_gcc.h ****   #pragma GCC diagnostic ignored "-Wattributes"
  82:Drivers/CMSIS/Include/cmsis_gcc.h ****   __PACKED_STRUCT T_UINT16_WRITE { uint16_t v; };
  83:Drivers/CMSIS/Include/cmsis_gcc.h ****   #pragma GCC diagnostic pop
  84:Drivers/CMSIS/Include/cmsis_gcc.h ****   #define __UNALIGNED_UINT16_WRITE(addr, val)    (void)((((struct T_UINT16_WRITE *)(void *)(addr))-
  85:Drivers/CMSIS/Include/cmsis_gcc.h **** #endif
  86:Drivers/CMSIS/Include/cmsis_gcc.h **** #ifndef   __UNALIGNED_UINT16_READ
  87:Drivers/CMSIS/Include/cmsis_gcc.h ****   #pragma GCC diagnostic push
  88:Drivers/CMSIS/Include/cmsis_gcc.h ****   #pragma GCC diagnostic ignored "-Wpacked"
  89:Drivers/CMSIS/Include/cmsis_gcc.h ****   #pragma GCC diagnostic ignored "-Wattributes"
  90:Drivers/CMSIS/Include/cmsis_gcc.h ****   __PACKED_STRUCT T_UINT16_READ { uint16_t v; };
  91:Drivers/CMSIS/Include/cmsis_gcc.h ****   #pragma GCC diagnostic pop
  92:Drivers/CMSIS/Include/cmsis_gcc.h ****   #define __UNALIGNED_UINT16_READ(addr)          (((const struct T_UINT16_READ *)(const void *)(add
  93:Drivers/CMSIS/Include/cmsis_gcc.h **** #endif
  94:Drivers/CMSIS/Include/cmsis_gcc.h **** #ifndef   __UNALIGNED_UINT32_WRITE
  95:Drivers/CMSIS/Include/cmsis_gcc.h ****   #pragma GCC diagnostic push
  96:Drivers/CMSIS/Include/cmsis_gcc.h ****   #pragma GCC diagnostic ignored "-Wpacked"
  97:Drivers/CMSIS/Include/cmsis_gcc.h ****   #pragma GCC diagnostic ignored "-Wattributes"
  98:Drivers/CMSIS/Include/cmsis_gcc.h ****   __PACKED_STRUCT T_UINT32_WRITE { uint32_t v; };
  99:Drivers/CMSIS/Include/cmsis_gcc.h ****   #pragma GCC diagnostic pop
 100:Drivers/CMSIS/Include/cmsis_gcc.h ****   #define __UNALIGNED_UINT32_WRITE(addr, val)    (void)((((struct T_UINT32_WRITE *)(void *)(addr))-
 101:Drivers/CMSIS/Include/cmsis_gcc.h **** #endif
 102:Drivers/CMSIS/Include/cmsis_gcc.h **** #ifndef   __UNALIGNED_UINT32_READ
ARM GAS  C:\Users\User\AppData\Local\Temp\ccTFByJK.s 			page 7


 103:Drivers/CMSIS/Include/cmsis_gcc.h ****   #pragma GCC diagnostic push
 104:Drivers/CMSIS/Include/cmsis_gcc.h ****   #pragma GCC diagnostic ignored "-Wpacked"
 105:Drivers/CMSIS/Include/cmsis_gcc.h ****   #pragma GCC diagnostic ignored "-Wattributes"
 106:Drivers/CMSIS/Include/cmsis_gcc.h ****   __PACKED_STRUCT T_UINT32_READ { uint32_t v; };
 107:Drivers/CMSIS/Include/cmsis_gcc.h ****   #pragma GCC diagnostic pop
 108:Drivers/CMSIS/Include/cmsis_gcc.h ****   #define __UNALIGNED_UINT32_READ(addr)          (((const struct T_UINT32_READ *)(const void *)(add
 109:Drivers/CMSIS/Include/cmsis_gcc.h **** #endif
 110:Drivers/CMSIS/Include/cmsis_gcc.h **** #ifndef   __ALIGNED
 111:Drivers/CMSIS/Include/cmsis_gcc.h ****   #define __ALIGNED(x)                           __attribute__((aligned(x)))
 112:Drivers/CMSIS/Include/cmsis_gcc.h **** #endif
 113:Drivers/CMSIS/Include/cmsis_gcc.h **** #ifndef   __RESTRICT
 114:Drivers/CMSIS/Include/cmsis_gcc.h ****   #define __RESTRICT                             __restrict
 115:Drivers/CMSIS/Include/cmsis_gcc.h **** #endif
 116:Drivers/CMSIS/Include/cmsis_gcc.h **** 
 117:Drivers/CMSIS/Include/cmsis_gcc.h **** 
 118:Drivers/CMSIS/Include/cmsis_gcc.h **** /* ###########################  Core Function Access  ########################### */
 119:Drivers/CMSIS/Include/cmsis_gcc.h **** /** \ingroup  CMSIS_Core_FunctionInterface
 120:Drivers/CMSIS/Include/cmsis_gcc.h ****     \defgroup CMSIS_Core_RegAccFunctions CMSIS Core Register Access Functions
 121:Drivers/CMSIS/Include/cmsis_gcc.h ****   @{
 122:Drivers/CMSIS/Include/cmsis_gcc.h ****  */
 123:Drivers/CMSIS/Include/cmsis_gcc.h **** 
 124:Drivers/CMSIS/Include/cmsis_gcc.h **** /**
 125:Drivers/CMSIS/Include/cmsis_gcc.h ****   \brief   Enable IRQ Interrupts
 126:Drivers/CMSIS/Include/cmsis_gcc.h ****   \details Enables IRQ interrupts by clearing the I-bit in the CPSR.
 127:Drivers/CMSIS/Include/cmsis_gcc.h ****            Can only be executed in Privileged modes.
 128:Drivers/CMSIS/Include/cmsis_gcc.h ****  */
 129:Drivers/CMSIS/Include/cmsis_gcc.h **** __STATIC_FORCEINLINE void __enable_irq(void)
 130:Drivers/CMSIS/Include/cmsis_gcc.h **** {
 131:Drivers/CMSIS/Include/cmsis_gcc.h ****   __ASM volatile ("cpsie i" : : : "memory");
 132:Drivers/CMSIS/Include/cmsis_gcc.h **** }
 133:Drivers/CMSIS/Include/cmsis_gcc.h **** 
 134:Drivers/CMSIS/Include/cmsis_gcc.h **** 
 135:Drivers/CMSIS/Include/cmsis_gcc.h **** /**
 136:Drivers/CMSIS/Include/cmsis_gcc.h ****   \brief   Disable IRQ Interrupts
 137:Drivers/CMSIS/Include/cmsis_gcc.h ****   \details Disables IRQ interrupts by setting the I-bit in the CPSR.
 138:Drivers/CMSIS/Include/cmsis_gcc.h ****            Can only be executed in Privileged modes.
 139:Drivers/CMSIS/Include/cmsis_gcc.h ****  */
 140:Drivers/CMSIS/Include/cmsis_gcc.h **** __STATIC_FORCEINLINE void __disable_irq(void)
 141:Drivers/CMSIS/Include/cmsis_gcc.h **** {
 142:Drivers/CMSIS/Include/cmsis_gcc.h ****   __ASM volatile ("cpsid i" : : : "memory");
 143:Drivers/CMSIS/Include/cmsis_gcc.h **** }
 144:Drivers/CMSIS/Include/cmsis_gcc.h **** 
 145:Drivers/CMSIS/Include/cmsis_gcc.h **** 
 146:Drivers/CMSIS/Include/cmsis_gcc.h **** /**
 147:Drivers/CMSIS/Include/cmsis_gcc.h ****   \brief   Get Control Register
 148:Drivers/CMSIS/Include/cmsis_gcc.h ****   \details Returns the content of the Control Register.
 149:Drivers/CMSIS/Include/cmsis_gcc.h ****   \return               Control Register value
 150:Drivers/CMSIS/Include/cmsis_gcc.h ****  */
 151:Drivers/CMSIS/Include/cmsis_gcc.h **** __STATIC_FORCEINLINE uint32_t __get_CONTROL(void)
 152:Drivers/CMSIS/Include/cmsis_gcc.h **** {
 153:Drivers/CMSIS/Include/cmsis_gcc.h ****   uint32_t result;
 154:Drivers/CMSIS/Include/cmsis_gcc.h **** 
 155:Drivers/CMSIS/Include/cmsis_gcc.h ****   __ASM volatile ("MRS %0, control" : "=r" (result) );
 156:Drivers/CMSIS/Include/cmsis_gcc.h ****   return(result);
 157:Drivers/CMSIS/Include/cmsis_gcc.h **** }
 158:Drivers/CMSIS/Include/cmsis_gcc.h **** 
 159:Drivers/CMSIS/Include/cmsis_gcc.h **** 
ARM GAS  C:\Users\User\AppData\Local\Temp\ccTFByJK.s 			page 8


 160:Drivers/CMSIS/Include/cmsis_gcc.h **** #if (defined (__ARM_FEATURE_CMSE ) && (__ARM_FEATURE_CMSE == 3))
 161:Drivers/CMSIS/Include/cmsis_gcc.h **** /**
 162:Drivers/CMSIS/Include/cmsis_gcc.h ****   \brief   Get Control Register (non-secure)
 163:Drivers/CMSIS/Include/cmsis_gcc.h ****   \details Returns the content of the non-secure Control Register when in secure mode.
 164:Drivers/CMSIS/Include/cmsis_gcc.h ****   \return               non-secure Control Register value
 165:Drivers/CMSIS/Include/cmsis_gcc.h ****  */
 166:Drivers/CMSIS/Include/cmsis_gcc.h **** __STATIC_FORCEINLINE uint32_t __TZ_get_CONTROL_NS(void)
 167:Drivers/CMSIS/Include/cmsis_gcc.h **** {
 168:Drivers/CMSIS/Include/cmsis_gcc.h ****   uint32_t result;
 169:Drivers/CMSIS/Include/cmsis_gcc.h **** 
 170:Drivers/CMSIS/Include/cmsis_gcc.h ****   __ASM volatile ("MRS %0, control_ns" : "=r" (result) );
 171:Drivers/CMSIS/Include/cmsis_gcc.h ****   return(result);
 172:Drivers/CMSIS/Include/cmsis_gcc.h **** }
 173:Drivers/CMSIS/Include/cmsis_gcc.h **** #endif
 174:Drivers/CMSIS/Include/cmsis_gcc.h **** 
 175:Drivers/CMSIS/Include/cmsis_gcc.h **** 
 176:Drivers/CMSIS/Include/cmsis_gcc.h **** /**
 177:Drivers/CMSIS/Include/cmsis_gcc.h ****   \brief   Set Control Register
 178:Drivers/CMSIS/Include/cmsis_gcc.h ****   \details Writes the given value to the Control Register.
 179:Drivers/CMSIS/Include/cmsis_gcc.h ****   \param [in]    control  Control Register value to set
 180:Drivers/CMSIS/Include/cmsis_gcc.h ****  */
 181:Drivers/CMSIS/Include/cmsis_gcc.h **** __STATIC_FORCEINLINE void __set_CONTROL(uint32_t control)
 182:Drivers/CMSIS/Include/cmsis_gcc.h **** {
 183:Drivers/CMSIS/Include/cmsis_gcc.h ****   __ASM volatile ("MSR control, %0" : : "r" (control) : "memory");
 184:Drivers/CMSIS/Include/cmsis_gcc.h **** }
 185:Drivers/CMSIS/Include/cmsis_gcc.h **** 
 186:Drivers/CMSIS/Include/cmsis_gcc.h **** 
 187:Drivers/CMSIS/Include/cmsis_gcc.h **** #if (defined (__ARM_FEATURE_CMSE ) && (__ARM_FEATURE_CMSE == 3))
 188:Drivers/CMSIS/Include/cmsis_gcc.h **** /**
 189:Drivers/CMSIS/Include/cmsis_gcc.h ****   \brief   Set Control Register (non-secure)
 190:Drivers/CMSIS/Include/cmsis_gcc.h ****   \details Writes the given value to the non-secure Control Register when in secure state.
 191:Drivers/CMSIS/Include/cmsis_gcc.h ****   \param [in]    control  Control Register value to set
 192:Drivers/CMSIS/Include/cmsis_gcc.h ****  */
 193:Drivers/CMSIS/Include/cmsis_gcc.h **** __STATIC_FORCEINLINE void __TZ_set_CONTROL_NS(uint32_t control)
 194:Drivers/CMSIS/Include/cmsis_gcc.h **** {
 195:Drivers/CMSIS/Include/cmsis_gcc.h ****   __ASM volatile ("MSR control_ns, %0" : : "r" (control) : "memory");
 196:Drivers/CMSIS/Include/cmsis_gcc.h **** }
 197:Drivers/CMSIS/Include/cmsis_gcc.h **** #endif
 198:Drivers/CMSIS/Include/cmsis_gcc.h **** 
 199:Drivers/CMSIS/Include/cmsis_gcc.h **** 
 200:Drivers/CMSIS/Include/cmsis_gcc.h **** /**
 201:Drivers/CMSIS/Include/cmsis_gcc.h ****   \brief   Get IPSR Register
 202:Drivers/CMSIS/Include/cmsis_gcc.h ****   \details Returns the content of the IPSR Register.
 203:Drivers/CMSIS/Include/cmsis_gcc.h ****   \return               IPSR Register value
 204:Drivers/CMSIS/Include/cmsis_gcc.h ****  */
 205:Drivers/CMSIS/Include/cmsis_gcc.h **** __STATIC_FORCEINLINE uint32_t __get_IPSR(void)
 112              		.loc 2 205 31 view .LVU23
 113              	.LBB9:
 206:Drivers/CMSIS/Include/cmsis_gcc.h **** {
 207:Drivers/CMSIS/Include/cmsis_gcc.h ****   uint32_t result;
 114              		.loc 2 207 3 view .LVU24
 208:Drivers/CMSIS/Include/cmsis_gcc.h **** 
 209:Drivers/CMSIS/Include/cmsis_gcc.h ****   __ASM volatile ("MRS %0, ipsr" : "=r" (result) );
 115              		.loc 2 209 3 view .LVU25
 116              		.syntax unified
 117              	@ 209 "Drivers/CMSIS/Include/cmsis_gcc.h" 1
 118 0000 EFF30580 		MRS r0, ipsr
ARM GAS  C:\Users\User\AppData\Local\Temp\ccTFByJK.s 			page 9


 119              	@ 0 "" 2
 120              	.LVL9:
 210:Drivers/CMSIS/Include/cmsis_gcc.h ****   return(result);
 121              		.loc 2 210 3 view .LVU26
 122              		.loc 2 210 3 is_stmt 0 view .LVU27
 123              		.thumb
 124              		.syntax unified
 125              	.LBE9:
 126              	.LBE8:
 133:Middlewares/Third_Party/FreeRTOS/Source/CMSIS_RTOS/cmsis_os.c **** }
 127              		.loc 1 133 1 view .LVU28
 128 0004 0030     		adds	r0, r0, #0
 129 0006 18BF     		it	ne
 130 0008 0120     		movne	r0, #1
 131 000a 7047     		bx	lr
 132              		.cfi_endproc
 133              	.LFE51:
 135              		.section	.text.osKernelStart,"ax",%progbits
 136              		.align	1
 137              		.global	osKernelStart
 138              		.syntax unified
 139              		.thumb
 140              		.thumb_func
 141              		.fpu softvfp
 143              	osKernelStart:
 144              	.LFB52:
 134:Middlewares/Third_Party/FreeRTOS/Source/CMSIS_RTOS/cmsis_os.c **** 
 135:Middlewares/Third_Party/FreeRTOS/Source/CMSIS_RTOS/cmsis_os.c **** /*********************** Kernel Control Functions *****************************/
 136:Middlewares/Third_Party/FreeRTOS/Source/CMSIS_RTOS/cmsis_os.c **** /**
 137:Middlewares/Third_Party/FreeRTOS/Source/CMSIS_RTOS/cmsis_os.c **** * @brief  Initialize the RTOS Kernel for creating objects.
 138:Middlewares/Third_Party/FreeRTOS/Source/CMSIS_RTOS/cmsis_os.c **** * @retval status code that indicates the execution status of the function.
 139:Middlewares/Third_Party/FreeRTOS/Source/CMSIS_RTOS/cmsis_os.c **** * @note   MUST REMAIN UNCHANGED: \b osKernelInitialize shall be consistent in every CMSIS-RTOS.
 140:Middlewares/Third_Party/FreeRTOS/Source/CMSIS_RTOS/cmsis_os.c **** */
 141:Middlewares/Third_Party/FreeRTOS/Source/CMSIS_RTOS/cmsis_os.c **** osStatus osKernelInitialize (void);
 142:Middlewares/Third_Party/FreeRTOS/Source/CMSIS_RTOS/cmsis_os.c **** 
 143:Middlewares/Third_Party/FreeRTOS/Source/CMSIS_RTOS/cmsis_os.c **** /**
 144:Middlewares/Third_Party/FreeRTOS/Source/CMSIS_RTOS/cmsis_os.c **** * @brief  Start the RTOS Kernel with executing the specified thread.
 145:Middlewares/Third_Party/FreeRTOS/Source/CMSIS_RTOS/cmsis_os.c **** * @param  thread_def    thread definition referenced with \ref osThread.
 146:Middlewares/Third_Party/FreeRTOS/Source/CMSIS_RTOS/cmsis_os.c **** * @param  argument      pointer that is passed to the thread function as start argument.
 147:Middlewares/Third_Party/FreeRTOS/Source/CMSIS_RTOS/cmsis_os.c **** * @retval status code that indicates the execution status of the function
 148:Middlewares/Third_Party/FreeRTOS/Source/CMSIS_RTOS/cmsis_os.c **** * @note   MUST REMAIN UNCHANGED: \b osKernelStart shall be consistent in every CMSIS-RTOS.
 149:Middlewares/Third_Party/FreeRTOS/Source/CMSIS_RTOS/cmsis_os.c **** */
 150:Middlewares/Third_Party/FreeRTOS/Source/CMSIS_RTOS/cmsis_os.c **** osStatus osKernelStart (void)
 151:Middlewares/Third_Party/FreeRTOS/Source/CMSIS_RTOS/cmsis_os.c **** {
 145              		.loc 1 151 1 is_stmt 1 view -0
 146              		.cfi_startproc
 147              		@ args = 0, pretend = 0, frame = 0
 148              		@ frame_needed = 0, uses_anonymous_args = 0
 149 0000 08B5     		push	{r3, lr}
 150              	.LCFI0:
 151              		.cfi_def_cfa_offset 8
 152              		.cfi_offset 3, -8
 153              		.cfi_offset 14, -4
 152:Middlewares/Third_Party/FreeRTOS/Source/CMSIS_RTOS/cmsis_os.c ****   vTaskStartScheduler();
 154              		.loc 1 152 3 view .LVU30
 155 0002 FFF7FEFF 		bl	vTaskStartScheduler
 156              	.LVL10:
ARM GAS  C:\Users\User\AppData\Local\Temp\ccTFByJK.s 			page 10


 153:Middlewares/Third_Party/FreeRTOS/Source/CMSIS_RTOS/cmsis_os.c ****   
 154:Middlewares/Third_Party/FreeRTOS/Source/CMSIS_RTOS/cmsis_os.c ****   return osOK;
 157              		.loc 1 154 3 view .LVU31
 155:Middlewares/Third_Party/FreeRTOS/Source/CMSIS_RTOS/cmsis_os.c **** }
 158              		.loc 1 155 1 is_stmt 0 view .LVU32
 159 0006 0020     		movs	r0, #0
 160 0008 08BD     		pop	{r3, pc}
 161              		.cfi_endproc
 162              	.LFE52:
 164              		.section	.text.osKernelRunning,"ax",%progbits
 165              		.align	1
 166              		.global	osKernelRunning
 167              		.syntax unified
 168              		.thumb
 169              		.thumb_func
 170              		.fpu softvfp
 172              	osKernelRunning:
 173              	.LFB53:
 156:Middlewares/Third_Party/FreeRTOS/Source/CMSIS_RTOS/cmsis_os.c **** 
 157:Middlewares/Third_Party/FreeRTOS/Source/CMSIS_RTOS/cmsis_os.c **** /**
 158:Middlewares/Third_Party/FreeRTOS/Source/CMSIS_RTOS/cmsis_os.c **** * @brief  Check if the RTOS kernel is already started
 159:Middlewares/Third_Party/FreeRTOS/Source/CMSIS_RTOS/cmsis_os.c **** * @param  None
 160:Middlewares/Third_Party/FreeRTOS/Source/CMSIS_RTOS/cmsis_os.c **** * @retval (0) RTOS is not started
 161:Middlewares/Third_Party/FreeRTOS/Source/CMSIS_RTOS/cmsis_os.c **** *         (1) RTOS is started
 162:Middlewares/Third_Party/FreeRTOS/Source/CMSIS_RTOS/cmsis_os.c **** *         (-1) if this feature is disabled in FreeRTOSConfig.h 
 163:Middlewares/Third_Party/FreeRTOS/Source/CMSIS_RTOS/cmsis_os.c **** * @note  MUST REMAIN UNCHANGED: \b osKernelRunning shall be consistent in every CMSIS-RTOS.
 164:Middlewares/Third_Party/FreeRTOS/Source/CMSIS_RTOS/cmsis_os.c **** */
 165:Middlewares/Third_Party/FreeRTOS/Source/CMSIS_RTOS/cmsis_os.c **** int32_t osKernelRunning(void)
 166:Middlewares/Third_Party/FreeRTOS/Source/CMSIS_RTOS/cmsis_os.c **** {
 174              		.loc 1 166 1 is_stmt 1 view -0
 175              		.cfi_startproc
 176              		@ args = 0, pretend = 0, frame = 0
 177              		@ frame_needed = 0, uses_anonymous_args = 0
 178 0000 08B5     		push	{r3, lr}
 179              	.LCFI1:
 180              		.cfi_def_cfa_offset 8
 181              		.cfi_offset 3, -8
 182              		.cfi_offset 14, -4
 167:Middlewares/Third_Party/FreeRTOS/Source/CMSIS_RTOS/cmsis_os.c **** #if ( ( INCLUDE_xTaskGetSchedulerState == 1 ) || ( configUSE_TIMERS == 1 ) )
 168:Middlewares/Third_Party/FreeRTOS/Source/CMSIS_RTOS/cmsis_os.c ****   if (xTaskGetSchedulerState() == taskSCHEDULER_NOT_STARTED)
 183              		.loc 1 168 3 view .LVU34
 184              		.loc 1 168 7 is_stmt 0 view .LVU35
 185 0002 FFF7FEFF 		bl	xTaskGetSchedulerState
 186              	.LVL11:
 187              		.loc 1 168 6 view .LVU36
 188 0006 0128     		cmp	r0, #1
 189 0008 01D0     		beq	.L14
 169:Middlewares/Third_Party/FreeRTOS/Source/CMSIS_RTOS/cmsis_os.c ****     return 0;
 170:Middlewares/Third_Party/FreeRTOS/Source/CMSIS_RTOS/cmsis_os.c ****   else
 171:Middlewares/Third_Party/FreeRTOS/Source/CMSIS_RTOS/cmsis_os.c ****     return 1;
 190              		.loc 1 171 12 view .LVU37
 191 000a 0120     		movs	r0, #1
 192              	.L10:
 172:Middlewares/Third_Party/FreeRTOS/Source/CMSIS_RTOS/cmsis_os.c **** #else
 173:Middlewares/Third_Party/FreeRTOS/Source/CMSIS_RTOS/cmsis_os.c **** 	return (-1);
 174:Middlewares/Third_Party/FreeRTOS/Source/CMSIS_RTOS/cmsis_os.c **** #endif	
 175:Middlewares/Third_Party/FreeRTOS/Source/CMSIS_RTOS/cmsis_os.c **** }
ARM GAS  C:\Users\User\AppData\Local\Temp\ccTFByJK.s 			page 11


 193              		.loc 1 175 1 view .LVU38
 194 000c 08BD     		pop	{r3, pc}
 195              	.L14:
 169:Middlewares/Third_Party/FreeRTOS/Source/CMSIS_RTOS/cmsis_os.c ****     return 0;
 196              		.loc 1 169 12 view .LVU39
 197 000e 0020     		movs	r0, #0
 198 0010 FCE7     		b	.L10
 199              		.cfi_endproc
 200              	.LFE53:
 202              		.section	.text.osKernelSysTick,"ax",%progbits
 203              		.align	1
 204              		.global	osKernelSysTick
 205              		.syntax unified
 206              		.thumb
 207              		.thumb_func
 208              		.fpu softvfp
 210              	osKernelSysTick:
 211              	.LFB54:
 176:Middlewares/Third_Party/FreeRTOS/Source/CMSIS_RTOS/cmsis_os.c **** 
 177:Middlewares/Third_Party/FreeRTOS/Source/CMSIS_RTOS/cmsis_os.c **** #if (defined (osFeature_SysTick)  &&  (osFeature_SysTick != 0))     // System Timer available
 178:Middlewares/Third_Party/FreeRTOS/Source/CMSIS_RTOS/cmsis_os.c **** /**
 179:Middlewares/Third_Party/FreeRTOS/Source/CMSIS_RTOS/cmsis_os.c **** * @brief  Get the value of the Kernel SysTick timer
 180:Middlewares/Third_Party/FreeRTOS/Source/CMSIS_RTOS/cmsis_os.c **** * @param  None
 181:Middlewares/Third_Party/FreeRTOS/Source/CMSIS_RTOS/cmsis_os.c **** * @retval None
 182:Middlewares/Third_Party/FreeRTOS/Source/CMSIS_RTOS/cmsis_os.c **** * @note   MUST REMAIN UNCHANGED: \b osKernelSysTick shall be consistent in every CMSIS-RTOS.
 183:Middlewares/Third_Party/FreeRTOS/Source/CMSIS_RTOS/cmsis_os.c **** */
 184:Middlewares/Third_Party/FreeRTOS/Source/CMSIS_RTOS/cmsis_os.c **** uint32_t osKernelSysTick(void)
 185:Middlewares/Third_Party/FreeRTOS/Source/CMSIS_RTOS/cmsis_os.c **** {
 212              		.loc 1 185 1 is_stmt 1 view -0
 213              		.cfi_startproc
 214              		@ args = 0, pretend = 0, frame = 0
 215              		@ frame_needed = 0, uses_anonymous_args = 0
 216 0000 08B5     		push	{r3, lr}
 217              	.LCFI2:
 218              		.cfi_def_cfa_offset 8
 219              		.cfi_offset 3, -8
 220              		.cfi_offset 14, -4
 186:Middlewares/Third_Party/FreeRTOS/Source/CMSIS_RTOS/cmsis_os.c ****   if (inHandlerMode()) {
 221              		.loc 1 186 3 view .LVU41
 222              		.loc 1 186 7 is_stmt 0 view .LVU42
 223 0002 FFF7FEFF 		bl	inHandlerMode
 224              	.LVL12:
 225              		.loc 1 186 6 view .LVU43
 226 0006 10B1     		cbz	r0, .L16
 187:Middlewares/Third_Party/FreeRTOS/Source/CMSIS_RTOS/cmsis_os.c ****     return xTaskGetTickCountFromISR();
 227              		.loc 1 187 5 is_stmt 1 view .LVU44
 228              		.loc 1 187 12 is_stmt 0 view .LVU45
 229 0008 FFF7FEFF 		bl	xTaskGetTickCountFromISR
 230              	.LVL13:
 231              	.L15:
 188:Middlewares/Third_Party/FreeRTOS/Source/CMSIS_RTOS/cmsis_os.c ****   }
 189:Middlewares/Third_Party/FreeRTOS/Source/CMSIS_RTOS/cmsis_os.c ****   else {
 190:Middlewares/Third_Party/FreeRTOS/Source/CMSIS_RTOS/cmsis_os.c ****     return xTaskGetTickCount();
 191:Middlewares/Third_Party/FreeRTOS/Source/CMSIS_RTOS/cmsis_os.c ****   }
 192:Middlewares/Third_Party/FreeRTOS/Source/CMSIS_RTOS/cmsis_os.c **** }
 232              		.loc 1 192 1 view .LVU46
 233 000c 08BD     		pop	{r3, pc}
ARM GAS  C:\Users\User\AppData\Local\Temp\ccTFByJK.s 			page 12


 234              	.L16:
 190:Middlewares/Third_Party/FreeRTOS/Source/CMSIS_RTOS/cmsis_os.c ****   }
 235              		.loc 1 190 5 is_stmt 1 view .LVU47
 190:Middlewares/Third_Party/FreeRTOS/Source/CMSIS_RTOS/cmsis_os.c ****   }
 236              		.loc 1 190 12 is_stmt 0 view .LVU48
 237 000e FFF7FEFF 		bl	xTaskGetTickCount
 238              	.LVL14:
 239 0012 FBE7     		b	.L15
 240              		.cfi_endproc
 241              	.LFE54:
 243              		.section	.text.osThreadCreate,"ax",%progbits
 244              		.align	1
 245              		.global	osThreadCreate
 246              		.syntax unified
 247              		.thumb
 248              		.thumb_func
 249              		.fpu softvfp
 251              	osThreadCreate:
 252              	.LVL15:
 253              	.LFB55:
 193:Middlewares/Third_Party/FreeRTOS/Source/CMSIS_RTOS/cmsis_os.c **** #endif    // System Timer available
 194:Middlewares/Third_Party/FreeRTOS/Source/CMSIS_RTOS/cmsis_os.c **** /*********************** Thread Management *****************************/
 195:Middlewares/Third_Party/FreeRTOS/Source/CMSIS_RTOS/cmsis_os.c **** /**
 196:Middlewares/Third_Party/FreeRTOS/Source/CMSIS_RTOS/cmsis_os.c **** * @brief  Create a thread and add it to Active Threads and set it to state READY.
 197:Middlewares/Third_Party/FreeRTOS/Source/CMSIS_RTOS/cmsis_os.c **** * @param  thread_def    thread definition referenced with \ref osThread.
 198:Middlewares/Third_Party/FreeRTOS/Source/CMSIS_RTOS/cmsis_os.c **** * @param  argument      pointer that is passed to the thread function as start argument.
 199:Middlewares/Third_Party/FreeRTOS/Source/CMSIS_RTOS/cmsis_os.c **** * @retval thread ID for reference by other functions or NULL in case of error.
 200:Middlewares/Third_Party/FreeRTOS/Source/CMSIS_RTOS/cmsis_os.c **** * @note   MUST REMAIN UNCHANGED: \b osThreadCreate shall be consistent in every CMSIS-RTOS.
 201:Middlewares/Third_Party/FreeRTOS/Source/CMSIS_RTOS/cmsis_os.c **** */
 202:Middlewares/Third_Party/FreeRTOS/Source/CMSIS_RTOS/cmsis_os.c **** osThreadId osThreadCreate (const osThreadDef_t *thread_def, void *argument)
 203:Middlewares/Third_Party/FreeRTOS/Source/CMSIS_RTOS/cmsis_os.c **** {
 254              		.loc 1 203 1 is_stmt 1 view -0
 255              		.cfi_startproc
 256              		@ args = 0, pretend = 0, frame = 8
 257              		@ frame_needed = 0, uses_anonymous_args = 0
 258              		.loc 1 203 1 is_stmt 0 view .LVU50
 259 0000 F0B5     		push	{r4, r5, r6, r7, lr}
 260              	.LCFI3:
 261              		.cfi_def_cfa_offset 20
 262              		.cfi_offset 4, -20
 263              		.cfi_offset 5, -16
 264              		.cfi_offset 6, -12
 265              		.cfi_offset 7, -8
 266              		.cfi_offset 14, -4
 267 0002 85B0     		sub	sp, sp, #20
 268              	.LCFI4:
 269              		.cfi_def_cfa_offset 40
 270 0004 0F46     		mov	r7, r1
 204:Middlewares/Third_Party/FreeRTOS/Source/CMSIS_RTOS/cmsis_os.c ****   TaskHandle_t handle;
 271              		.loc 1 204 3 is_stmt 1 view .LVU51
 205:Middlewares/Third_Party/FreeRTOS/Source/CMSIS_RTOS/cmsis_os.c ****   
 206:Middlewares/Third_Party/FreeRTOS/Source/CMSIS_RTOS/cmsis_os.c **** #if( configSUPPORT_STATIC_ALLOCATION == 1 ) &&  ( configSUPPORT_DYNAMIC_ALLOCATION == 1 )
 207:Middlewares/Third_Party/FreeRTOS/Source/CMSIS_RTOS/cmsis_os.c ****   if((thread_def->buffer != NULL) && (thread_def->controlblock != NULL)) {
 208:Middlewares/Third_Party/FreeRTOS/Source/CMSIS_RTOS/cmsis_os.c ****     handle = xTaskCreateStatic((TaskFunction_t)thread_def->pthread,(const portCHAR *)thread_def->na
 209:Middlewares/Third_Party/FreeRTOS/Source/CMSIS_RTOS/cmsis_os.c ****               thread_def->stacksize, argument, makeFreeRtosPriority(thread_def->tpriority),
 210:Middlewares/Third_Party/FreeRTOS/Source/CMSIS_RTOS/cmsis_os.c ****               thread_def->buffer, thread_def->controlblock);
 211:Middlewares/Third_Party/FreeRTOS/Source/CMSIS_RTOS/cmsis_os.c ****   }
ARM GAS  C:\Users\User\AppData\Local\Temp\ccTFByJK.s 			page 13


 212:Middlewares/Third_Party/FreeRTOS/Source/CMSIS_RTOS/cmsis_os.c ****   else {
 213:Middlewares/Third_Party/FreeRTOS/Source/CMSIS_RTOS/cmsis_os.c ****     if (xTaskCreate((TaskFunction_t)thread_def->pthread,(const portCHAR *)thread_def->name,
 214:Middlewares/Third_Party/FreeRTOS/Source/CMSIS_RTOS/cmsis_os.c ****               thread_def->stacksize, argument, makeFreeRtosPriority(thread_def->tpriority),
 215:Middlewares/Third_Party/FreeRTOS/Source/CMSIS_RTOS/cmsis_os.c ****               &handle) != pdPASS)  {
 216:Middlewares/Third_Party/FreeRTOS/Source/CMSIS_RTOS/cmsis_os.c ****       return NULL;
 217:Middlewares/Third_Party/FreeRTOS/Source/CMSIS_RTOS/cmsis_os.c ****     } 
 218:Middlewares/Third_Party/FreeRTOS/Source/CMSIS_RTOS/cmsis_os.c ****   }
 219:Middlewares/Third_Party/FreeRTOS/Source/CMSIS_RTOS/cmsis_os.c **** #elif( configSUPPORT_STATIC_ALLOCATION == 1 )
 220:Middlewares/Third_Party/FreeRTOS/Source/CMSIS_RTOS/cmsis_os.c **** 
 221:Middlewares/Third_Party/FreeRTOS/Source/CMSIS_RTOS/cmsis_os.c ****     handle = xTaskCreateStatic((TaskFunction_t)thread_def->pthread,(const portCHAR *)thread_def->na
 222:Middlewares/Third_Party/FreeRTOS/Source/CMSIS_RTOS/cmsis_os.c ****               thread_def->stacksize, argument, makeFreeRtosPriority(thread_def->tpriority),
 223:Middlewares/Third_Party/FreeRTOS/Source/CMSIS_RTOS/cmsis_os.c ****               thread_def->buffer, thread_def->controlblock);
 224:Middlewares/Third_Party/FreeRTOS/Source/CMSIS_RTOS/cmsis_os.c **** #else
 225:Middlewares/Third_Party/FreeRTOS/Source/CMSIS_RTOS/cmsis_os.c ****   if (xTaskCreate((TaskFunction_t)thread_def->pthread,(const portCHAR *)thread_def->name,
 272              		.loc 1 225 3 view .LVU52
 273              		.loc 1 225 45 is_stmt 0 view .LVU53
 274 0006 4468     		ldr	r4, [r0, #4]
 275              		.loc 1 225 83 view .LVU54
 276 0008 0568     		ldr	r5, [r0]
 226:Middlewares/Third_Party/FreeRTOS/Source/CMSIS_RTOS/cmsis_os.c ****                    thread_def->stacksize, argument, makeFreeRtosPriority(thread_def->tpriority),
 277              		.loc 1 226 30 view .LVU55
 278 000a 0669     		ldr	r6, [r0, #16]
 225:Middlewares/Third_Party/FreeRTOS/Source/CMSIS_RTOS/cmsis_os.c ****                    thread_def->stacksize, argument, makeFreeRtosPriority(thread_def->tpriority),
 279              		.loc 1 225 7 view .LVU56
 280 000c B0F90800 		ldrsh	r0, [r0, #8]
 281              	.LVL16:
 225:Middlewares/Third_Party/FreeRTOS/Source/CMSIS_RTOS/cmsis_os.c ****                    thread_def->stacksize, argument, makeFreeRtosPriority(thread_def->tpriority),
 282              		.loc 1 225 7 view .LVU57
 283 0010 FFF7FEFF 		bl	makeFreeRtosPriority
 284              	.LVL17:
 225:Middlewares/Third_Party/FreeRTOS/Source/CMSIS_RTOS/cmsis_os.c ****                    thread_def->stacksize, argument, makeFreeRtosPriority(thread_def->tpriority),
 285              		.loc 1 225 7 view .LVU58
 286 0014 03AB     		add	r3, sp, #12
 287 0016 0193     		str	r3, [sp, #4]
 288 0018 0090     		str	r0, [sp]
 289 001a 3B46     		mov	r3, r7
 290 001c B2B2     		uxth	r2, r6
 291 001e 2946     		mov	r1, r5
 292 0020 2046     		mov	r0, r4
 293 0022 FFF7FEFF 		bl	xTaskCreate
 294              	.LVL18:
 225:Middlewares/Third_Party/FreeRTOS/Source/CMSIS_RTOS/cmsis_os.c ****                    thread_def->stacksize, argument, makeFreeRtosPriority(thread_def->tpriority),
 295              		.loc 1 225 6 view .LVU59
 296 0026 0128     		cmp	r0, #1
 297 0028 02D1     		bne	.L21
 227:Middlewares/Third_Party/FreeRTOS/Source/CMSIS_RTOS/cmsis_os.c ****                    &handle) != pdPASS)  {
 228:Middlewares/Third_Party/FreeRTOS/Source/CMSIS_RTOS/cmsis_os.c ****     return NULL;
 229:Middlewares/Third_Party/FreeRTOS/Source/CMSIS_RTOS/cmsis_os.c ****   }     
 230:Middlewares/Third_Party/FreeRTOS/Source/CMSIS_RTOS/cmsis_os.c **** #endif
 231:Middlewares/Third_Party/FreeRTOS/Source/CMSIS_RTOS/cmsis_os.c ****   
 232:Middlewares/Third_Party/FreeRTOS/Source/CMSIS_RTOS/cmsis_os.c ****   return handle;
 298              		.loc 1 232 3 is_stmt 1 view .LVU60
 299              		.loc 1 232 10 is_stmt 0 view .LVU61
 300 002a 0398     		ldr	r0, [sp, #12]
 301              	.L19:
 233:Middlewares/Third_Party/FreeRTOS/Source/CMSIS_RTOS/cmsis_os.c **** }
 302              		.loc 1 233 1 view .LVU62
ARM GAS  C:\Users\User\AppData\Local\Temp\ccTFByJK.s 			page 14


 303 002c 05B0     		add	sp, sp, #20
 304              	.LCFI5:
 305              		.cfi_remember_state
 306              		.cfi_def_cfa_offset 20
 307              		@ sp needed
 308 002e F0BD     		pop	{r4, r5, r6, r7, pc}
 309              	.LVL19:
 310              	.L21:
 311              	.LCFI6:
 312              		.cfi_restore_state
 228:Middlewares/Third_Party/FreeRTOS/Source/CMSIS_RTOS/cmsis_os.c ****   }     
 313              		.loc 1 228 12 view .LVU63
 314 0030 0020     		movs	r0, #0
 315 0032 FBE7     		b	.L19
 316              		.cfi_endproc
 317              	.LFE55:
 319              		.section	.text.osThreadGetId,"ax",%progbits
 320              		.align	1
 321              		.global	osThreadGetId
 322              		.syntax unified
 323              		.thumb
 324              		.thumb_func
 325              		.fpu softvfp
 327              	osThreadGetId:
 328              	.LFB56:
 234:Middlewares/Third_Party/FreeRTOS/Source/CMSIS_RTOS/cmsis_os.c **** 
 235:Middlewares/Third_Party/FreeRTOS/Source/CMSIS_RTOS/cmsis_os.c **** /**
 236:Middlewares/Third_Party/FreeRTOS/Source/CMSIS_RTOS/cmsis_os.c **** * @brief  Return the thread ID of the current running thread.
 237:Middlewares/Third_Party/FreeRTOS/Source/CMSIS_RTOS/cmsis_os.c **** * @retval thread ID for reference by other functions or NULL in case of error.
 238:Middlewares/Third_Party/FreeRTOS/Source/CMSIS_RTOS/cmsis_os.c **** * @note   MUST REMAIN UNCHANGED: \b osThreadGetId shall be consistent in every CMSIS-RTOS.
 239:Middlewares/Third_Party/FreeRTOS/Source/CMSIS_RTOS/cmsis_os.c **** */
 240:Middlewares/Third_Party/FreeRTOS/Source/CMSIS_RTOS/cmsis_os.c **** osThreadId osThreadGetId (void)
 241:Middlewares/Third_Party/FreeRTOS/Source/CMSIS_RTOS/cmsis_os.c **** {
 329              		.loc 1 241 1 is_stmt 1 view -0
 330              		.cfi_startproc
 331              		@ args = 0, pretend = 0, frame = 0
 332              		@ frame_needed = 0, uses_anonymous_args = 0
 333 0000 08B5     		push	{r3, lr}
 334              	.LCFI7:
 335              		.cfi_def_cfa_offset 8
 336              		.cfi_offset 3, -8
 337              		.cfi_offset 14, -4
 242:Middlewares/Third_Party/FreeRTOS/Source/CMSIS_RTOS/cmsis_os.c **** #if ( ( INCLUDE_xTaskGetCurrentTaskHandle == 1 ) || ( configUSE_MUTEXES == 1 ) )
 243:Middlewares/Third_Party/FreeRTOS/Source/CMSIS_RTOS/cmsis_os.c ****   return xTaskGetCurrentTaskHandle();
 338              		.loc 1 243 3 view .LVU65
 339              		.loc 1 243 10 is_stmt 0 view .LVU66
 340 0002 FFF7FEFF 		bl	xTaskGetCurrentTaskHandle
 341              	.LVL20:
 244:Middlewares/Third_Party/FreeRTOS/Source/CMSIS_RTOS/cmsis_os.c **** #else
 245:Middlewares/Third_Party/FreeRTOS/Source/CMSIS_RTOS/cmsis_os.c **** 	return NULL;
 246:Middlewares/Third_Party/FreeRTOS/Source/CMSIS_RTOS/cmsis_os.c **** #endif
 247:Middlewares/Third_Party/FreeRTOS/Source/CMSIS_RTOS/cmsis_os.c **** }
 342              		.loc 1 247 1 view .LVU67
 343 0006 08BD     		pop	{r3, pc}
 344              		.cfi_endproc
 345              	.LFE56:
 347              		.section	.text.osThreadTerminate,"ax",%progbits
ARM GAS  C:\Users\User\AppData\Local\Temp\ccTFByJK.s 			page 15


 348              		.align	1
 349              		.global	osThreadTerminate
 350              		.syntax unified
 351              		.thumb
 352              		.thumb_func
 353              		.fpu softvfp
 355              	osThreadTerminate:
 356              	.LVL21:
 357              	.LFB57:
 248:Middlewares/Third_Party/FreeRTOS/Source/CMSIS_RTOS/cmsis_os.c **** 
 249:Middlewares/Third_Party/FreeRTOS/Source/CMSIS_RTOS/cmsis_os.c **** /**
 250:Middlewares/Third_Party/FreeRTOS/Source/CMSIS_RTOS/cmsis_os.c **** * @brief  Terminate execution of a thread and remove it from Active Threads.
 251:Middlewares/Third_Party/FreeRTOS/Source/CMSIS_RTOS/cmsis_os.c **** * @param   thread_id   thread ID obtained by \ref osThreadCreate or \ref osThreadGetId.
 252:Middlewares/Third_Party/FreeRTOS/Source/CMSIS_RTOS/cmsis_os.c **** * @retval  status code that indicates the execution status of the function.
 253:Middlewares/Third_Party/FreeRTOS/Source/CMSIS_RTOS/cmsis_os.c **** * @note   MUST REMAIN UNCHANGED: \b osThreadTerminate shall be consistent in every CMSIS-RTOS.
 254:Middlewares/Third_Party/FreeRTOS/Source/CMSIS_RTOS/cmsis_os.c **** */
 255:Middlewares/Third_Party/FreeRTOS/Source/CMSIS_RTOS/cmsis_os.c **** osStatus osThreadTerminate (osThreadId thread_id)
 256:Middlewares/Third_Party/FreeRTOS/Source/CMSIS_RTOS/cmsis_os.c **** {
 358              		.loc 1 256 1 is_stmt 1 view -0
 359              		.cfi_startproc
 360              		@ args = 0, pretend = 0, frame = 0
 361              		@ frame_needed = 0, uses_anonymous_args = 0
 362              		.loc 1 256 1 is_stmt 0 view .LVU69
 363 0000 08B5     		push	{r3, lr}
 364              	.LCFI8:
 365              		.cfi_def_cfa_offset 8
 366              		.cfi_offset 3, -8
 367              		.cfi_offset 14, -4
 257:Middlewares/Third_Party/FreeRTOS/Source/CMSIS_RTOS/cmsis_os.c **** #if (INCLUDE_vTaskDelete == 1)
 258:Middlewares/Third_Party/FreeRTOS/Source/CMSIS_RTOS/cmsis_os.c ****   vTaskDelete(thread_id);
 368              		.loc 1 258 3 is_stmt 1 view .LVU70
 369 0002 FFF7FEFF 		bl	vTaskDelete
 370              	.LVL22:
 259:Middlewares/Third_Party/FreeRTOS/Source/CMSIS_RTOS/cmsis_os.c ****   return osOK;
 371              		.loc 1 259 3 view .LVU71
 260:Middlewares/Third_Party/FreeRTOS/Source/CMSIS_RTOS/cmsis_os.c **** #else
 261:Middlewares/Third_Party/FreeRTOS/Source/CMSIS_RTOS/cmsis_os.c ****   return osErrorOS;
 262:Middlewares/Third_Party/FreeRTOS/Source/CMSIS_RTOS/cmsis_os.c **** #endif
 263:Middlewares/Third_Party/FreeRTOS/Source/CMSIS_RTOS/cmsis_os.c **** }
 372              		.loc 1 263 1 is_stmt 0 view .LVU72
 373 0006 0020     		movs	r0, #0
 374 0008 08BD     		pop	{r3, pc}
 375              		.cfi_endproc
 376              	.LFE57:
 378              		.section	.text.osThreadYield,"ax",%progbits
 379              		.align	1
 380              		.global	osThreadYield
 381              		.syntax unified
 382              		.thumb
 383              		.thumb_func
 384              		.fpu softvfp
 386              	osThreadYield:
 387              	.LFB58:
 264:Middlewares/Third_Party/FreeRTOS/Source/CMSIS_RTOS/cmsis_os.c **** 
 265:Middlewares/Third_Party/FreeRTOS/Source/CMSIS_RTOS/cmsis_os.c **** /**
 266:Middlewares/Third_Party/FreeRTOS/Source/CMSIS_RTOS/cmsis_os.c **** * @brief  Pass control to next thread that is in state \b READY.
 267:Middlewares/Third_Party/FreeRTOS/Source/CMSIS_RTOS/cmsis_os.c **** * @retval status code that indicates the execution status of the function.
ARM GAS  C:\Users\User\AppData\Local\Temp\ccTFByJK.s 			page 16


 268:Middlewares/Third_Party/FreeRTOS/Source/CMSIS_RTOS/cmsis_os.c **** * @note   MUST REMAIN UNCHANGED: \b osThreadYield shall be consistent in every CMSIS-RTOS.
 269:Middlewares/Third_Party/FreeRTOS/Source/CMSIS_RTOS/cmsis_os.c **** */
 270:Middlewares/Third_Party/FreeRTOS/Source/CMSIS_RTOS/cmsis_os.c **** osStatus osThreadYield (void)
 271:Middlewares/Third_Party/FreeRTOS/Source/CMSIS_RTOS/cmsis_os.c **** {
 388              		.loc 1 271 1 is_stmt 1 view -0
 389              		.cfi_startproc
 390              		@ args = 0, pretend = 0, frame = 0
 391              		@ frame_needed = 0, uses_anonymous_args = 0
 392              		@ link register save eliminated.
 272:Middlewares/Third_Party/FreeRTOS/Source/CMSIS_RTOS/cmsis_os.c ****   taskYIELD();
 393              		.loc 1 272 3 view .LVU74
 394 0000 044B     		ldr	r3, .L28
 395 0002 4FF08052 		mov	r2, #268435456
 396 0006 1A60     		str	r2, [r3]
 397              		.loc 1 272 3 view .LVU75
 398              		.syntax unified
 399              	@ 272 "Middlewares/Third_Party/FreeRTOS/Source/CMSIS_RTOS/cmsis_os.c" 1
 400 0008 BFF34F8F 		dsb
 401              	@ 0 "" 2
 402              		.loc 1 272 3 view .LVU76
 403              	@ 272 "Middlewares/Third_Party/FreeRTOS/Source/CMSIS_RTOS/cmsis_os.c" 1
 404 000c BFF36F8F 		isb
 405              	@ 0 "" 2
 406              		.loc 1 272 14 view .LVU77
 273:Middlewares/Third_Party/FreeRTOS/Source/CMSIS_RTOS/cmsis_os.c ****   
 274:Middlewares/Third_Party/FreeRTOS/Source/CMSIS_RTOS/cmsis_os.c ****   return osOK;
 407              		.loc 1 274 3 view .LVU78
 275:Middlewares/Third_Party/FreeRTOS/Source/CMSIS_RTOS/cmsis_os.c **** }
 408              		.loc 1 275 1 is_stmt 0 view .LVU79
 409              		.thumb
 410              		.syntax unified
 411 0010 0020     		movs	r0, #0
 412 0012 7047     		bx	lr
 413              	.L29:
 414              		.align	2
 415              	.L28:
 416 0014 04ED00E0 		.word	-536810236
 417              		.cfi_endproc
 418              	.LFE58:
 420              		.section	.text.osThreadSetPriority,"ax",%progbits
 421              		.align	1
 422              		.global	osThreadSetPriority
 423              		.syntax unified
 424              		.thumb
 425              		.thumb_func
 426              		.fpu softvfp
 428              	osThreadSetPriority:
 429              	.LVL23:
 430              	.LFB59:
 276:Middlewares/Third_Party/FreeRTOS/Source/CMSIS_RTOS/cmsis_os.c **** 
 277:Middlewares/Third_Party/FreeRTOS/Source/CMSIS_RTOS/cmsis_os.c **** /**
 278:Middlewares/Third_Party/FreeRTOS/Source/CMSIS_RTOS/cmsis_os.c **** * @brief   Change priority of an active thread.
 279:Middlewares/Third_Party/FreeRTOS/Source/CMSIS_RTOS/cmsis_os.c **** * @param   thread_id     thread ID obtained by \ref osThreadCreate or \ref osThreadGetId.
 280:Middlewares/Third_Party/FreeRTOS/Source/CMSIS_RTOS/cmsis_os.c **** * @param   priority      new priority value for the thread function.
 281:Middlewares/Third_Party/FreeRTOS/Source/CMSIS_RTOS/cmsis_os.c **** * @retval  status code that indicates the execution status of the function.
 282:Middlewares/Third_Party/FreeRTOS/Source/CMSIS_RTOS/cmsis_os.c **** * @note   MUST REMAIN UNCHANGED: \b osThreadSetPriority shall be consistent in every CMSIS-RTOS.
 283:Middlewares/Third_Party/FreeRTOS/Source/CMSIS_RTOS/cmsis_os.c **** */
ARM GAS  C:\Users\User\AppData\Local\Temp\ccTFByJK.s 			page 17


 284:Middlewares/Third_Party/FreeRTOS/Source/CMSIS_RTOS/cmsis_os.c **** osStatus osThreadSetPriority (osThreadId thread_id, osPriority priority)
 285:Middlewares/Third_Party/FreeRTOS/Source/CMSIS_RTOS/cmsis_os.c **** {
 431              		.loc 1 285 1 is_stmt 1 view -0
 432              		.cfi_startproc
 433              		@ args = 0, pretend = 0, frame = 0
 434              		@ frame_needed = 0, uses_anonymous_args = 0
 435              		.loc 1 285 1 is_stmt 0 view .LVU81
 436 0000 10B5     		push	{r4, lr}
 437              	.LCFI9:
 438              		.cfi_def_cfa_offset 8
 439              		.cfi_offset 4, -8
 440              		.cfi_offset 14, -4
 441 0002 0446     		mov	r4, r0
 286:Middlewares/Third_Party/FreeRTOS/Source/CMSIS_RTOS/cmsis_os.c **** #if (INCLUDE_vTaskPrioritySet == 1)
 287:Middlewares/Third_Party/FreeRTOS/Source/CMSIS_RTOS/cmsis_os.c ****   vTaskPrioritySet(thread_id, makeFreeRtosPriority(priority));
 442              		.loc 1 287 3 is_stmt 1 view .LVU82
 443 0004 0846     		mov	r0, r1
 444              	.LVL24:
 445              		.loc 1 287 3 is_stmt 0 view .LVU83
 446 0006 FFF7FEFF 		bl	makeFreeRtosPriority
 447              	.LVL25:
 448              		.loc 1 287 3 view .LVU84
 449 000a 0146     		mov	r1, r0
 450 000c 2046     		mov	r0, r4
 451 000e FFF7FEFF 		bl	vTaskPrioritySet
 452              	.LVL26:
 288:Middlewares/Third_Party/FreeRTOS/Source/CMSIS_RTOS/cmsis_os.c ****   return osOK;
 453              		.loc 1 288 3 is_stmt 1 view .LVU85
 289:Middlewares/Third_Party/FreeRTOS/Source/CMSIS_RTOS/cmsis_os.c **** #else
 290:Middlewares/Third_Party/FreeRTOS/Source/CMSIS_RTOS/cmsis_os.c ****   return osErrorOS;
 291:Middlewares/Third_Party/FreeRTOS/Source/CMSIS_RTOS/cmsis_os.c **** #endif
 292:Middlewares/Third_Party/FreeRTOS/Source/CMSIS_RTOS/cmsis_os.c **** }
 454              		.loc 1 292 1 is_stmt 0 view .LVU86
 455 0012 0020     		movs	r0, #0
 456 0014 10BD     		pop	{r4, pc}
 457              		.loc 1 292 1 view .LVU87
 458              		.cfi_endproc
 459              	.LFE59:
 461              		.section	.text.osThreadGetPriority,"ax",%progbits
 462              		.align	1
 463              		.global	osThreadGetPriority
 464              		.syntax unified
 465              		.thumb
 466              		.thumb_func
 467              		.fpu softvfp
 469              	osThreadGetPriority:
 470              	.LVL27:
 471              	.LFB60:
 293:Middlewares/Third_Party/FreeRTOS/Source/CMSIS_RTOS/cmsis_os.c **** 
 294:Middlewares/Third_Party/FreeRTOS/Source/CMSIS_RTOS/cmsis_os.c **** /**
 295:Middlewares/Third_Party/FreeRTOS/Source/CMSIS_RTOS/cmsis_os.c **** * @brief   Get current priority of an active thread.
 296:Middlewares/Third_Party/FreeRTOS/Source/CMSIS_RTOS/cmsis_os.c **** * @param   thread_id     thread ID obtained by \ref osThreadCreate or \ref osThreadGetId.
 297:Middlewares/Third_Party/FreeRTOS/Source/CMSIS_RTOS/cmsis_os.c **** * @retval  current priority value of the thread function.
 298:Middlewares/Third_Party/FreeRTOS/Source/CMSIS_RTOS/cmsis_os.c **** * @note   MUST REMAIN UNCHANGED: \b osThreadGetPriority shall be consistent in every CMSIS-RTOS.
 299:Middlewares/Third_Party/FreeRTOS/Source/CMSIS_RTOS/cmsis_os.c **** */
 300:Middlewares/Third_Party/FreeRTOS/Source/CMSIS_RTOS/cmsis_os.c **** osPriority osThreadGetPriority (osThreadId thread_id)
 301:Middlewares/Third_Party/FreeRTOS/Source/CMSIS_RTOS/cmsis_os.c **** {
ARM GAS  C:\Users\User\AppData\Local\Temp\ccTFByJK.s 			page 18


 472              		.loc 1 301 1 is_stmt 1 view -0
 473              		.cfi_startproc
 474              		@ args = 0, pretend = 0, frame = 0
 475              		@ frame_needed = 0, uses_anonymous_args = 0
 476              		.loc 1 301 1 is_stmt 0 view .LVU89
 477 0000 10B5     		push	{r4, lr}
 478              	.LCFI10:
 479              		.cfi_def_cfa_offset 8
 480              		.cfi_offset 4, -8
 481              		.cfi_offset 14, -4
 482 0002 0446     		mov	r4, r0
 302:Middlewares/Third_Party/FreeRTOS/Source/CMSIS_RTOS/cmsis_os.c **** #if (INCLUDE_uxTaskPriorityGet == 1)
 303:Middlewares/Third_Party/FreeRTOS/Source/CMSIS_RTOS/cmsis_os.c ****   if (inHandlerMode())
 483              		.loc 1 303 3 is_stmt 1 view .LVU90
 484              		.loc 1 303 7 is_stmt 0 view .LVU91
 485 0004 FFF7FEFF 		bl	inHandlerMode
 486              	.LVL28:
 487              		.loc 1 303 6 view .LVU92
 488 0008 28B1     		cbz	r0, .L33
 304:Middlewares/Third_Party/FreeRTOS/Source/CMSIS_RTOS/cmsis_os.c ****   {
 305:Middlewares/Third_Party/FreeRTOS/Source/CMSIS_RTOS/cmsis_os.c ****     return makeCmsisPriority(uxTaskPriorityGetFromISR(thread_id));  
 489              		.loc 1 305 5 is_stmt 1 view .LVU93
 490              		.loc 1 305 12 is_stmt 0 view .LVU94
 491 000a 2046     		mov	r0, r4
 492 000c FFF7FEFF 		bl	uxTaskPriorityGetFromISR
 493              	.LVL29:
 494 0010 FFF7FEFF 		bl	makeCmsisPriority
 495              	.LVL30:
 496              	.L34:
 306:Middlewares/Third_Party/FreeRTOS/Source/CMSIS_RTOS/cmsis_os.c ****   }
 307:Middlewares/Third_Party/FreeRTOS/Source/CMSIS_RTOS/cmsis_os.c ****   else
 308:Middlewares/Third_Party/FreeRTOS/Source/CMSIS_RTOS/cmsis_os.c ****   {  
 309:Middlewares/Third_Party/FreeRTOS/Source/CMSIS_RTOS/cmsis_os.c ****     return makeCmsisPriority(uxTaskPriorityGet(thread_id));
 310:Middlewares/Third_Party/FreeRTOS/Source/CMSIS_RTOS/cmsis_os.c ****   }
 311:Middlewares/Third_Party/FreeRTOS/Source/CMSIS_RTOS/cmsis_os.c **** #else
 312:Middlewares/Third_Party/FreeRTOS/Source/CMSIS_RTOS/cmsis_os.c ****   return osPriorityError;
 313:Middlewares/Third_Party/FreeRTOS/Source/CMSIS_RTOS/cmsis_os.c **** #endif
 314:Middlewares/Third_Party/FreeRTOS/Source/CMSIS_RTOS/cmsis_os.c **** }
 497              		.loc 1 314 1 view .LVU95
 498 0014 10BD     		pop	{r4, pc}
 499              	.LVL31:
 500              	.L33:
 309:Middlewares/Third_Party/FreeRTOS/Source/CMSIS_RTOS/cmsis_os.c ****   }
 501              		.loc 1 309 5 is_stmt 1 view .LVU96
 309:Middlewares/Third_Party/FreeRTOS/Source/CMSIS_RTOS/cmsis_os.c ****   }
 502              		.loc 1 309 12 is_stmt 0 view .LVU97
 503 0016 2046     		mov	r0, r4
 504 0018 FFF7FEFF 		bl	uxTaskPriorityGet
 505              	.LVL32:
 506 001c FFF7FEFF 		bl	makeCmsisPriority
 507              	.LVL33:
 508 0020 F8E7     		b	.L34
 509              		.cfi_endproc
 510              	.LFE60:
 512              		.section	.text.osDelay,"ax",%progbits
 513              		.align	1
 514              		.global	osDelay
ARM GAS  C:\Users\User\AppData\Local\Temp\ccTFByJK.s 			page 19


 515              		.syntax unified
 516              		.thumb
 517              		.thumb_func
 518              		.fpu softvfp
 520              	osDelay:
 521              	.LVL34:
 522              	.LFB61:
 315:Middlewares/Third_Party/FreeRTOS/Source/CMSIS_RTOS/cmsis_os.c **** 
 316:Middlewares/Third_Party/FreeRTOS/Source/CMSIS_RTOS/cmsis_os.c **** /*********************** Generic Wait Functions *******************************/
 317:Middlewares/Third_Party/FreeRTOS/Source/CMSIS_RTOS/cmsis_os.c **** /**
 318:Middlewares/Third_Party/FreeRTOS/Source/CMSIS_RTOS/cmsis_os.c **** * @brief   Wait for Timeout (Time Delay)
 319:Middlewares/Third_Party/FreeRTOS/Source/CMSIS_RTOS/cmsis_os.c **** * @param   millisec      time delay value
 320:Middlewares/Third_Party/FreeRTOS/Source/CMSIS_RTOS/cmsis_os.c **** * @retval  status code that indicates the execution status of the function.
 321:Middlewares/Third_Party/FreeRTOS/Source/CMSIS_RTOS/cmsis_os.c **** */
 322:Middlewares/Third_Party/FreeRTOS/Source/CMSIS_RTOS/cmsis_os.c **** osStatus osDelay (uint32_t millisec)
 323:Middlewares/Third_Party/FreeRTOS/Source/CMSIS_RTOS/cmsis_os.c **** {
 523              		.loc 1 323 1 is_stmt 1 view -0
 524              		.cfi_startproc
 525              		@ args = 0, pretend = 0, frame = 0
 526              		@ frame_needed = 0, uses_anonymous_args = 0
 527              		.loc 1 323 1 is_stmt 0 view .LVU99
 528 0000 08B5     		push	{r3, lr}
 529              	.LCFI11:
 530              		.cfi_def_cfa_offset 8
 531              		.cfi_offset 3, -8
 532              		.cfi_offset 14, -4
 324:Middlewares/Third_Party/FreeRTOS/Source/CMSIS_RTOS/cmsis_os.c **** #if INCLUDE_vTaskDelay
 325:Middlewares/Third_Party/FreeRTOS/Source/CMSIS_RTOS/cmsis_os.c ****   TickType_t ticks = millisec / portTICK_PERIOD_MS;
 533              		.loc 1 325 3 is_stmt 1 view .LVU100
 534              	.LVL35:
 326:Middlewares/Third_Party/FreeRTOS/Source/CMSIS_RTOS/cmsis_os.c ****   
 327:Middlewares/Third_Party/FreeRTOS/Source/CMSIS_RTOS/cmsis_os.c ****   vTaskDelay(ticks ? ticks : 1);          /* Minimum delay = 1 tick */
 535              		.loc 1 327 3 view .LVU101
 536 0002 0346     		mov	r3, r0
 537 0004 00B9     		cbnz	r0, .L37
 538 0006 0123     		movs	r3, #1
 539              	.L37:
 540              		.loc 1 327 3 is_stmt 0 discriminator 4 view .LVU102
 541 0008 1846     		mov	r0, r3
 542              	.LVL36:
 543              		.loc 1 327 3 discriminator 4 view .LVU103
 544 000a FFF7FEFF 		bl	vTaskDelay
 545              	.LVL37:
 328:Middlewares/Third_Party/FreeRTOS/Source/CMSIS_RTOS/cmsis_os.c ****   
 329:Middlewares/Third_Party/FreeRTOS/Source/CMSIS_RTOS/cmsis_os.c ****   return osOK;
 546              		.loc 1 329 3 is_stmt 1 discriminator 4 view .LVU104
 330:Middlewares/Third_Party/FreeRTOS/Source/CMSIS_RTOS/cmsis_os.c **** #else
 331:Middlewares/Third_Party/FreeRTOS/Source/CMSIS_RTOS/cmsis_os.c ****   (void) millisec;
 332:Middlewares/Third_Party/FreeRTOS/Source/CMSIS_RTOS/cmsis_os.c ****   
 333:Middlewares/Third_Party/FreeRTOS/Source/CMSIS_RTOS/cmsis_os.c ****   return osErrorResource;
 334:Middlewares/Third_Party/FreeRTOS/Source/CMSIS_RTOS/cmsis_os.c **** #endif
 335:Middlewares/Third_Party/FreeRTOS/Source/CMSIS_RTOS/cmsis_os.c **** }
 547              		.loc 1 335 1 is_stmt 0 discriminator 4 view .LVU105
 548 000e 0020     		movs	r0, #0
 549 0010 08BD     		pop	{r3, pc}
 550              		.cfi_endproc
 551              	.LFE61:
ARM GAS  C:\Users\User\AppData\Local\Temp\ccTFByJK.s 			page 20


 553              		.section	.text.osTimerCreate,"ax",%progbits
 554              		.align	1
 555              		.global	osTimerCreate
 556              		.syntax unified
 557              		.thumb
 558              		.thumb_func
 559              		.fpu softvfp
 561              	osTimerCreate:
 562              	.LVL38:
 563              	.LFB62:
 336:Middlewares/Third_Party/FreeRTOS/Source/CMSIS_RTOS/cmsis_os.c **** 
 337:Middlewares/Third_Party/FreeRTOS/Source/CMSIS_RTOS/cmsis_os.c **** #if (defined (osFeature_Wait)  &&  (osFeature_Wait != 0)) /* Generic Wait available */
 338:Middlewares/Third_Party/FreeRTOS/Source/CMSIS_RTOS/cmsis_os.c **** /**
 339:Middlewares/Third_Party/FreeRTOS/Source/CMSIS_RTOS/cmsis_os.c **** * @brief  Wait for Signal, Message, Mail, or Timeout
 340:Middlewares/Third_Party/FreeRTOS/Source/CMSIS_RTOS/cmsis_os.c **** * @param   millisec  timeout value or 0 in case of no time-out
 341:Middlewares/Third_Party/FreeRTOS/Source/CMSIS_RTOS/cmsis_os.c **** * @retval  event that contains signal, message, or mail information or error code.
 342:Middlewares/Third_Party/FreeRTOS/Source/CMSIS_RTOS/cmsis_os.c **** * @note   MUST REMAIN UNCHANGED: \b osWait shall be consistent in every CMSIS-RTOS.
 343:Middlewares/Third_Party/FreeRTOS/Source/CMSIS_RTOS/cmsis_os.c **** */
 344:Middlewares/Third_Party/FreeRTOS/Source/CMSIS_RTOS/cmsis_os.c **** osEvent osWait (uint32_t millisec);
 345:Middlewares/Third_Party/FreeRTOS/Source/CMSIS_RTOS/cmsis_os.c **** 
 346:Middlewares/Third_Party/FreeRTOS/Source/CMSIS_RTOS/cmsis_os.c **** #endif  /* Generic Wait available */
 347:Middlewares/Third_Party/FreeRTOS/Source/CMSIS_RTOS/cmsis_os.c **** 
 348:Middlewares/Third_Party/FreeRTOS/Source/CMSIS_RTOS/cmsis_os.c **** /***********************  Timer Management Functions ***************************/
 349:Middlewares/Third_Party/FreeRTOS/Source/CMSIS_RTOS/cmsis_os.c **** /**
 350:Middlewares/Third_Party/FreeRTOS/Source/CMSIS_RTOS/cmsis_os.c **** * @brief  Create a timer.
 351:Middlewares/Third_Party/FreeRTOS/Source/CMSIS_RTOS/cmsis_os.c **** * @param  timer_def     timer object referenced with \ref osTimer.
 352:Middlewares/Third_Party/FreeRTOS/Source/CMSIS_RTOS/cmsis_os.c **** * @param  type          osTimerOnce for one-shot or osTimerPeriodic for periodic behavior.
 353:Middlewares/Third_Party/FreeRTOS/Source/CMSIS_RTOS/cmsis_os.c **** * @param  argument      argument to the timer call back function.
 354:Middlewares/Third_Party/FreeRTOS/Source/CMSIS_RTOS/cmsis_os.c **** * @retval  timer ID for reference by other functions or NULL in case of error.
 355:Middlewares/Third_Party/FreeRTOS/Source/CMSIS_RTOS/cmsis_os.c **** * @note   MUST REMAIN UNCHANGED: \b osTimerCreate shall be consistent in every CMSIS-RTOS.
 356:Middlewares/Third_Party/FreeRTOS/Source/CMSIS_RTOS/cmsis_os.c **** */
 357:Middlewares/Third_Party/FreeRTOS/Source/CMSIS_RTOS/cmsis_os.c **** osTimerId osTimerCreate (const osTimerDef_t *timer_def, os_timer_type type, void *argument)
 358:Middlewares/Third_Party/FreeRTOS/Source/CMSIS_RTOS/cmsis_os.c **** {
 564              		.loc 1 358 1 is_stmt 1 view -0
 565              		.cfi_startproc
 566              		@ args = 0, pretend = 0, frame = 0
 567              		@ frame_needed = 0, uses_anonymous_args = 0
 568              		@ link register save eliminated.
 359:Middlewares/Third_Party/FreeRTOS/Source/CMSIS_RTOS/cmsis_os.c **** #if (configUSE_TIMERS == 1)
 360:Middlewares/Third_Party/FreeRTOS/Source/CMSIS_RTOS/cmsis_os.c **** 
 361:Middlewares/Third_Party/FreeRTOS/Source/CMSIS_RTOS/cmsis_os.c **** #if( ( configSUPPORT_STATIC_ALLOCATION == 1 ) && ( configSUPPORT_DYNAMIC_ALLOCATION == 1 ) ) 
 362:Middlewares/Third_Party/FreeRTOS/Source/CMSIS_RTOS/cmsis_os.c ****   if(timer_def->controlblock != NULL) {
 363:Middlewares/Third_Party/FreeRTOS/Source/CMSIS_RTOS/cmsis_os.c ****     return xTimerCreateStatic((const char *)"",
 364:Middlewares/Third_Party/FreeRTOS/Source/CMSIS_RTOS/cmsis_os.c ****                       1, // period should be filled when starting the Timer using osTimerStart
 365:Middlewares/Third_Party/FreeRTOS/Source/CMSIS_RTOS/cmsis_os.c ****                       (type == osTimerPeriodic) ? pdTRUE : pdFALSE,
 366:Middlewares/Third_Party/FreeRTOS/Source/CMSIS_RTOS/cmsis_os.c ****                       (void *) argument,
 367:Middlewares/Third_Party/FreeRTOS/Source/CMSIS_RTOS/cmsis_os.c ****                       (TaskFunction_t)timer_def->ptimer,
 368:Middlewares/Third_Party/FreeRTOS/Source/CMSIS_RTOS/cmsis_os.c ****                       (StaticTimer_t *)timer_def->controlblock);
 369:Middlewares/Third_Party/FreeRTOS/Source/CMSIS_RTOS/cmsis_os.c ****   }
 370:Middlewares/Third_Party/FreeRTOS/Source/CMSIS_RTOS/cmsis_os.c ****   else {
 371:Middlewares/Third_Party/FreeRTOS/Source/CMSIS_RTOS/cmsis_os.c ****     return xTimerCreate((const char *)"",
 372:Middlewares/Third_Party/FreeRTOS/Source/CMSIS_RTOS/cmsis_os.c ****                       1, // period should be filled when starting the Timer using osTimerStart
 373:Middlewares/Third_Party/FreeRTOS/Source/CMSIS_RTOS/cmsis_os.c ****                       (type == osTimerPeriodic) ? pdTRUE : pdFALSE,
 374:Middlewares/Third_Party/FreeRTOS/Source/CMSIS_RTOS/cmsis_os.c ****                       (void *) argument,
 375:Middlewares/Third_Party/FreeRTOS/Source/CMSIS_RTOS/cmsis_os.c ****                       (TaskFunction_t)timer_def->ptimer);
 376:Middlewares/Third_Party/FreeRTOS/Source/CMSIS_RTOS/cmsis_os.c ****  }
 377:Middlewares/Third_Party/FreeRTOS/Source/CMSIS_RTOS/cmsis_os.c **** #elif( configSUPPORT_STATIC_ALLOCATION == 1 )
ARM GAS  C:\Users\User\AppData\Local\Temp\ccTFByJK.s 			page 21


 378:Middlewares/Third_Party/FreeRTOS/Source/CMSIS_RTOS/cmsis_os.c ****   return xTimerCreateStatic((const char *)"",
 379:Middlewares/Third_Party/FreeRTOS/Source/CMSIS_RTOS/cmsis_os.c ****                       1, // period should be filled when starting the Timer using osTimerStart
 380:Middlewares/Third_Party/FreeRTOS/Source/CMSIS_RTOS/cmsis_os.c ****                       (type == osTimerPeriodic) ? pdTRUE : pdFALSE,
 381:Middlewares/Third_Party/FreeRTOS/Source/CMSIS_RTOS/cmsis_os.c ****                       (void *) argument,
 382:Middlewares/Third_Party/FreeRTOS/Source/CMSIS_RTOS/cmsis_os.c ****                       (TaskFunction_t)timer_def->ptimer,
 383:Middlewares/Third_Party/FreeRTOS/Source/CMSIS_RTOS/cmsis_os.c ****                       (StaticTimer_t *)timer_def->controlblock);  
 384:Middlewares/Third_Party/FreeRTOS/Source/CMSIS_RTOS/cmsis_os.c **** #else
 385:Middlewares/Third_Party/FreeRTOS/Source/CMSIS_RTOS/cmsis_os.c ****   return xTimerCreate((const char *)"",
 386:Middlewares/Third_Party/FreeRTOS/Source/CMSIS_RTOS/cmsis_os.c ****                       1, // period should be filled when starting the Timer using osTimerStart
 387:Middlewares/Third_Party/FreeRTOS/Source/CMSIS_RTOS/cmsis_os.c ****                       (type == osTimerPeriodic) ? pdTRUE : pdFALSE,
 388:Middlewares/Third_Party/FreeRTOS/Source/CMSIS_RTOS/cmsis_os.c ****                       (void *) argument,
 389:Middlewares/Third_Party/FreeRTOS/Source/CMSIS_RTOS/cmsis_os.c ****                       (TaskFunction_t)timer_def->ptimer);
 390:Middlewares/Third_Party/FreeRTOS/Source/CMSIS_RTOS/cmsis_os.c **** #endif
 391:Middlewares/Third_Party/FreeRTOS/Source/CMSIS_RTOS/cmsis_os.c **** 
 392:Middlewares/Third_Party/FreeRTOS/Source/CMSIS_RTOS/cmsis_os.c **** #else 
 393:Middlewares/Third_Party/FreeRTOS/Source/CMSIS_RTOS/cmsis_os.c **** 	return NULL;
 569              		.loc 1 393 2 view .LVU107
 394:Middlewares/Third_Party/FreeRTOS/Source/CMSIS_RTOS/cmsis_os.c **** #endif
 395:Middlewares/Third_Party/FreeRTOS/Source/CMSIS_RTOS/cmsis_os.c **** }
 570              		.loc 1 395 1 is_stmt 0 view .LVU108
 571 0000 0020     		movs	r0, #0
 572              	.LVL39:
 573              		.loc 1 395 1 view .LVU109
 574 0002 7047     		bx	lr
 575              		.cfi_endproc
 576              	.LFE62:
 578              		.section	.text.osTimerStart,"ax",%progbits
 579              		.align	1
 580              		.global	osTimerStart
 581              		.syntax unified
 582              		.thumb
 583              		.thumb_func
 584              		.fpu softvfp
 586              	osTimerStart:
 587              	.LVL40:
 588              	.LFB63:
 396:Middlewares/Third_Party/FreeRTOS/Source/CMSIS_RTOS/cmsis_os.c **** 
 397:Middlewares/Third_Party/FreeRTOS/Source/CMSIS_RTOS/cmsis_os.c **** /**
 398:Middlewares/Third_Party/FreeRTOS/Source/CMSIS_RTOS/cmsis_os.c **** * @brief  Start or restart a timer.
 399:Middlewares/Third_Party/FreeRTOS/Source/CMSIS_RTOS/cmsis_os.c **** * @param  timer_id      timer ID obtained by \ref osTimerCreate.
 400:Middlewares/Third_Party/FreeRTOS/Source/CMSIS_RTOS/cmsis_os.c **** * @param  millisec      time delay value of the timer.
 401:Middlewares/Third_Party/FreeRTOS/Source/CMSIS_RTOS/cmsis_os.c **** * @retval  status code that indicates the execution status of the function
 402:Middlewares/Third_Party/FreeRTOS/Source/CMSIS_RTOS/cmsis_os.c **** * @note   MUST REMAIN UNCHANGED: \b osTimerStart shall be consistent in every CMSIS-RTOS.
 403:Middlewares/Third_Party/FreeRTOS/Source/CMSIS_RTOS/cmsis_os.c **** */
 404:Middlewares/Third_Party/FreeRTOS/Source/CMSIS_RTOS/cmsis_os.c **** osStatus osTimerStart (osTimerId timer_id, uint32_t millisec)
 405:Middlewares/Third_Party/FreeRTOS/Source/CMSIS_RTOS/cmsis_os.c **** {
 589              		.loc 1 405 1 is_stmt 1 view -0
 590              		.cfi_startproc
 591              		@ args = 0, pretend = 0, frame = 0
 592              		@ frame_needed = 0, uses_anonymous_args = 0
 593              		@ link register save eliminated.
 406:Middlewares/Third_Party/FreeRTOS/Source/CMSIS_RTOS/cmsis_os.c ****   osStatus result = osOK;
 594              		.loc 1 406 3 view .LVU111
 407:Middlewares/Third_Party/FreeRTOS/Source/CMSIS_RTOS/cmsis_os.c **** #if (configUSE_TIMERS == 1)  
 408:Middlewares/Third_Party/FreeRTOS/Source/CMSIS_RTOS/cmsis_os.c ****   portBASE_TYPE taskWoken = pdFALSE;
 409:Middlewares/Third_Party/FreeRTOS/Source/CMSIS_RTOS/cmsis_os.c ****   TickType_t ticks = millisec / portTICK_PERIOD_MS;
 410:Middlewares/Third_Party/FreeRTOS/Source/CMSIS_RTOS/cmsis_os.c **** 
ARM GAS  C:\Users\User\AppData\Local\Temp\ccTFByJK.s 			page 22


 411:Middlewares/Third_Party/FreeRTOS/Source/CMSIS_RTOS/cmsis_os.c ****   if (ticks == 0)
 412:Middlewares/Third_Party/FreeRTOS/Source/CMSIS_RTOS/cmsis_os.c ****     ticks = 1;
 413:Middlewares/Third_Party/FreeRTOS/Source/CMSIS_RTOS/cmsis_os.c ****     
 414:Middlewares/Third_Party/FreeRTOS/Source/CMSIS_RTOS/cmsis_os.c ****   if (inHandlerMode()) 
 415:Middlewares/Third_Party/FreeRTOS/Source/CMSIS_RTOS/cmsis_os.c ****   {
 416:Middlewares/Third_Party/FreeRTOS/Source/CMSIS_RTOS/cmsis_os.c ****     if (xTimerChangePeriodFromISR(timer_id, ticks, &taskWoken) != pdPASS)
 417:Middlewares/Third_Party/FreeRTOS/Source/CMSIS_RTOS/cmsis_os.c ****     {
 418:Middlewares/Third_Party/FreeRTOS/Source/CMSIS_RTOS/cmsis_os.c ****       result = osErrorOS;
 419:Middlewares/Third_Party/FreeRTOS/Source/CMSIS_RTOS/cmsis_os.c ****     }
 420:Middlewares/Third_Party/FreeRTOS/Source/CMSIS_RTOS/cmsis_os.c ****     else
 421:Middlewares/Third_Party/FreeRTOS/Source/CMSIS_RTOS/cmsis_os.c ****     {
 422:Middlewares/Third_Party/FreeRTOS/Source/CMSIS_RTOS/cmsis_os.c ****       portEND_SWITCHING_ISR(taskWoken);     
 423:Middlewares/Third_Party/FreeRTOS/Source/CMSIS_RTOS/cmsis_os.c ****     }
 424:Middlewares/Third_Party/FreeRTOS/Source/CMSIS_RTOS/cmsis_os.c ****   }
 425:Middlewares/Third_Party/FreeRTOS/Source/CMSIS_RTOS/cmsis_os.c ****   else 
 426:Middlewares/Third_Party/FreeRTOS/Source/CMSIS_RTOS/cmsis_os.c ****   {
 427:Middlewares/Third_Party/FreeRTOS/Source/CMSIS_RTOS/cmsis_os.c ****     if (xTimerChangePeriod(timer_id, ticks, 0) != pdPASS)
 428:Middlewares/Third_Party/FreeRTOS/Source/CMSIS_RTOS/cmsis_os.c ****       result = osErrorOS;
 429:Middlewares/Third_Party/FreeRTOS/Source/CMSIS_RTOS/cmsis_os.c ****   }
 430:Middlewares/Third_Party/FreeRTOS/Source/CMSIS_RTOS/cmsis_os.c **** 
 431:Middlewares/Third_Party/FreeRTOS/Source/CMSIS_RTOS/cmsis_os.c **** #else 
 432:Middlewares/Third_Party/FreeRTOS/Source/CMSIS_RTOS/cmsis_os.c ****   result = osErrorOS;
 595              		.loc 1 432 3 view .LVU112
 433:Middlewares/Third_Party/FreeRTOS/Source/CMSIS_RTOS/cmsis_os.c **** #endif
 434:Middlewares/Third_Party/FreeRTOS/Source/CMSIS_RTOS/cmsis_os.c ****   return result;
 596              		.loc 1 434 3 view .LVU113
 435:Middlewares/Third_Party/FreeRTOS/Source/CMSIS_RTOS/cmsis_os.c **** }
 597              		.loc 1 435 1 is_stmt 0 view .LVU114
 598 0000 FF20     		movs	r0, #255
 599              	.LVL41:
 600              		.loc 1 435 1 view .LVU115
 601 0002 7047     		bx	lr
 602              		.cfi_endproc
 603              	.LFE63:
 605              		.section	.text.osTimerStop,"ax",%progbits
 606              		.align	1
 607              		.global	osTimerStop
 608              		.syntax unified
 609              		.thumb
 610              		.thumb_func
 611              		.fpu softvfp
 613              	osTimerStop:
 614              	.LVL42:
 615              	.LFB64:
 436:Middlewares/Third_Party/FreeRTOS/Source/CMSIS_RTOS/cmsis_os.c **** 
 437:Middlewares/Third_Party/FreeRTOS/Source/CMSIS_RTOS/cmsis_os.c **** /**
 438:Middlewares/Third_Party/FreeRTOS/Source/CMSIS_RTOS/cmsis_os.c **** * @brief  Stop a timer.
 439:Middlewares/Third_Party/FreeRTOS/Source/CMSIS_RTOS/cmsis_os.c **** * @param  timer_id      timer ID obtained by \ref osTimerCreate
 440:Middlewares/Third_Party/FreeRTOS/Source/CMSIS_RTOS/cmsis_os.c **** * @retval  status code that indicates the execution status of the function.
 441:Middlewares/Third_Party/FreeRTOS/Source/CMSIS_RTOS/cmsis_os.c **** * @note   MUST REMAIN UNCHANGED: \b osTimerStop shall be consistent in every CMSIS-RTOS.
 442:Middlewares/Third_Party/FreeRTOS/Source/CMSIS_RTOS/cmsis_os.c **** */
 443:Middlewares/Third_Party/FreeRTOS/Source/CMSIS_RTOS/cmsis_os.c **** osStatus osTimerStop (osTimerId timer_id)
 444:Middlewares/Third_Party/FreeRTOS/Source/CMSIS_RTOS/cmsis_os.c **** {
 616              		.loc 1 444 1 is_stmt 1 view -0
 617              		.cfi_startproc
 618              		@ args = 0, pretend = 0, frame = 0
 619              		@ frame_needed = 0, uses_anonymous_args = 0
ARM GAS  C:\Users\User\AppData\Local\Temp\ccTFByJK.s 			page 23


 620              		@ link register save eliminated.
 445:Middlewares/Third_Party/FreeRTOS/Source/CMSIS_RTOS/cmsis_os.c ****   osStatus result = osOK;
 621              		.loc 1 445 3 view .LVU117
 446:Middlewares/Third_Party/FreeRTOS/Source/CMSIS_RTOS/cmsis_os.c **** #if (configUSE_TIMERS == 1)  
 447:Middlewares/Third_Party/FreeRTOS/Source/CMSIS_RTOS/cmsis_os.c ****   portBASE_TYPE taskWoken = pdFALSE;
 448:Middlewares/Third_Party/FreeRTOS/Source/CMSIS_RTOS/cmsis_os.c **** 
 449:Middlewares/Third_Party/FreeRTOS/Source/CMSIS_RTOS/cmsis_os.c ****   if (inHandlerMode()) {
 450:Middlewares/Third_Party/FreeRTOS/Source/CMSIS_RTOS/cmsis_os.c ****     if (xTimerStopFromISR(timer_id, &taskWoken) != pdPASS) {
 451:Middlewares/Third_Party/FreeRTOS/Source/CMSIS_RTOS/cmsis_os.c ****       return osErrorOS;
 452:Middlewares/Third_Party/FreeRTOS/Source/CMSIS_RTOS/cmsis_os.c ****     }
 453:Middlewares/Third_Party/FreeRTOS/Source/CMSIS_RTOS/cmsis_os.c ****     portEND_SWITCHING_ISR(taskWoken);
 454:Middlewares/Third_Party/FreeRTOS/Source/CMSIS_RTOS/cmsis_os.c ****   }
 455:Middlewares/Third_Party/FreeRTOS/Source/CMSIS_RTOS/cmsis_os.c ****   else {
 456:Middlewares/Third_Party/FreeRTOS/Source/CMSIS_RTOS/cmsis_os.c ****     if (xTimerStop(timer_id, 0) != pdPASS) {
 457:Middlewares/Third_Party/FreeRTOS/Source/CMSIS_RTOS/cmsis_os.c ****       result = osErrorOS;
 458:Middlewares/Third_Party/FreeRTOS/Source/CMSIS_RTOS/cmsis_os.c ****     }
 459:Middlewares/Third_Party/FreeRTOS/Source/CMSIS_RTOS/cmsis_os.c ****   }
 460:Middlewares/Third_Party/FreeRTOS/Source/CMSIS_RTOS/cmsis_os.c **** #else 
 461:Middlewares/Third_Party/FreeRTOS/Source/CMSIS_RTOS/cmsis_os.c ****   result = osErrorOS;
 622              		.loc 1 461 3 view .LVU118
 462:Middlewares/Third_Party/FreeRTOS/Source/CMSIS_RTOS/cmsis_os.c **** #endif 
 463:Middlewares/Third_Party/FreeRTOS/Source/CMSIS_RTOS/cmsis_os.c ****   return result;
 623              		.loc 1 463 3 view .LVU119
 464:Middlewares/Third_Party/FreeRTOS/Source/CMSIS_RTOS/cmsis_os.c **** }
 624              		.loc 1 464 1 is_stmt 0 view .LVU120
 625 0000 FF20     		movs	r0, #255
 626              	.LVL43:
 627              		.loc 1 464 1 view .LVU121
 628 0002 7047     		bx	lr
 629              		.cfi_endproc
 630              	.LFE64:
 632              		.section	.text.osTimerDelete,"ax",%progbits
 633              		.align	1
 634              		.global	osTimerDelete
 635              		.syntax unified
 636              		.thumb
 637              		.thumb_func
 638              		.fpu softvfp
 640              	osTimerDelete:
 641              	.LVL44:
 642              	.LFB65:
 465:Middlewares/Third_Party/FreeRTOS/Source/CMSIS_RTOS/cmsis_os.c **** 
 466:Middlewares/Third_Party/FreeRTOS/Source/CMSIS_RTOS/cmsis_os.c **** /**
 467:Middlewares/Third_Party/FreeRTOS/Source/CMSIS_RTOS/cmsis_os.c **** * @brief  Delete a timer.
 468:Middlewares/Third_Party/FreeRTOS/Source/CMSIS_RTOS/cmsis_os.c **** * @param  timer_id      timer ID obtained by \ref osTimerCreate
 469:Middlewares/Third_Party/FreeRTOS/Source/CMSIS_RTOS/cmsis_os.c **** * @retval  status code that indicates the execution status of the function.
 470:Middlewares/Third_Party/FreeRTOS/Source/CMSIS_RTOS/cmsis_os.c **** * @note   MUST REMAIN UNCHANGED: \b osTimerDelete shall be consistent in every CMSIS-RTOS.
 471:Middlewares/Third_Party/FreeRTOS/Source/CMSIS_RTOS/cmsis_os.c **** */
 472:Middlewares/Third_Party/FreeRTOS/Source/CMSIS_RTOS/cmsis_os.c **** osStatus osTimerDelete (osTimerId timer_id)
 473:Middlewares/Third_Party/FreeRTOS/Source/CMSIS_RTOS/cmsis_os.c **** {
 643              		.loc 1 473 1 is_stmt 1 view -0
 644              		.cfi_startproc
 645              		@ args = 0, pretend = 0, frame = 0
 646              		@ frame_needed = 0, uses_anonymous_args = 0
 647              		@ link register save eliminated.
 474:Middlewares/Third_Party/FreeRTOS/Source/CMSIS_RTOS/cmsis_os.c **** osStatus result = osOK;
 648              		.loc 1 474 1 view .LVU123
ARM GAS  C:\Users\User\AppData\Local\Temp\ccTFByJK.s 			page 24


 475:Middlewares/Third_Party/FreeRTOS/Source/CMSIS_RTOS/cmsis_os.c **** 
 476:Middlewares/Third_Party/FreeRTOS/Source/CMSIS_RTOS/cmsis_os.c **** #if (configUSE_TIMERS == 1)
 477:Middlewares/Third_Party/FreeRTOS/Source/CMSIS_RTOS/cmsis_os.c **** 
 478:Middlewares/Third_Party/FreeRTOS/Source/CMSIS_RTOS/cmsis_os.c ****    if (inHandlerMode()) {
 479:Middlewares/Third_Party/FreeRTOS/Source/CMSIS_RTOS/cmsis_os.c ****      return osErrorISR;
 480:Middlewares/Third_Party/FreeRTOS/Source/CMSIS_RTOS/cmsis_os.c ****   }
 481:Middlewares/Third_Party/FreeRTOS/Source/CMSIS_RTOS/cmsis_os.c ****   else { 
 482:Middlewares/Third_Party/FreeRTOS/Source/CMSIS_RTOS/cmsis_os.c ****     if ((xTimerDelete(timer_id, osWaitForever )) != pdPASS) {
 483:Middlewares/Third_Party/FreeRTOS/Source/CMSIS_RTOS/cmsis_os.c ****       result = osErrorOS;
 484:Middlewares/Third_Party/FreeRTOS/Source/CMSIS_RTOS/cmsis_os.c ****     }
 485:Middlewares/Third_Party/FreeRTOS/Source/CMSIS_RTOS/cmsis_os.c ****   } 
 486:Middlewares/Third_Party/FreeRTOS/Source/CMSIS_RTOS/cmsis_os.c ****     
 487:Middlewares/Third_Party/FreeRTOS/Source/CMSIS_RTOS/cmsis_os.c **** #else 
 488:Middlewares/Third_Party/FreeRTOS/Source/CMSIS_RTOS/cmsis_os.c ****   result = osErrorOS;
 649              		.loc 1 488 3 view .LVU124
 489:Middlewares/Third_Party/FreeRTOS/Source/CMSIS_RTOS/cmsis_os.c **** #endif 
 490:Middlewares/Third_Party/FreeRTOS/Source/CMSIS_RTOS/cmsis_os.c ****  
 491:Middlewares/Third_Party/FreeRTOS/Source/CMSIS_RTOS/cmsis_os.c ****   return result;
 650              		.loc 1 491 3 view .LVU125
 492:Middlewares/Third_Party/FreeRTOS/Source/CMSIS_RTOS/cmsis_os.c **** }
 651              		.loc 1 492 1 is_stmt 0 view .LVU126
 652 0000 FF20     		movs	r0, #255
 653              	.LVL45:
 654              		.loc 1 492 1 view .LVU127
 655 0002 7047     		bx	lr
 656              		.cfi_endproc
 657              	.LFE65:
 659              		.section	.text.osSignalSet,"ax",%progbits
 660              		.align	1
 661              		.global	osSignalSet
 662              		.syntax unified
 663              		.thumb
 664              		.thumb_func
 665              		.fpu softvfp
 667              	osSignalSet:
 668              	.LVL46:
 669              	.LFB66:
 493:Middlewares/Third_Party/FreeRTOS/Source/CMSIS_RTOS/cmsis_os.c **** 
 494:Middlewares/Third_Party/FreeRTOS/Source/CMSIS_RTOS/cmsis_os.c **** /***************************  Signal Management ********************************/
 495:Middlewares/Third_Party/FreeRTOS/Source/CMSIS_RTOS/cmsis_os.c **** /**
 496:Middlewares/Third_Party/FreeRTOS/Source/CMSIS_RTOS/cmsis_os.c **** * @brief  Set the specified Signal Flags of an active thread.
 497:Middlewares/Third_Party/FreeRTOS/Source/CMSIS_RTOS/cmsis_os.c **** * @param  thread_id     thread ID obtained by \ref osThreadCreate or \ref osThreadGetId.
 498:Middlewares/Third_Party/FreeRTOS/Source/CMSIS_RTOS/cmsis_os.c **** * @param  signals       specifies the signal flags of the thread that should be set.
 499:Middlewares/Third_Party/FreeRTOS/Source/CMSIS_RTOS/cmsis_os.c **** * @retval previous signal flags of the specified thread or 0x80000000 in case of incorrect paramete
 500:Middlewares/Third_Party/FreeRTOS/Source/CMSIS_RTOS/cmsis_os.c **** * @note   MUST REMAIN UNCHANGED: \b osSignalSet shall be consistent in every CMSIS-RTOS.
 501:Middlewares/Third_Party/FreeRTOS/Source/CMSIS_RTOS/cmsis_os.c **** */
 502:Middlewares/Third_Party/FreeRTOS/Source/CMSIS_RTOS/cmsis_os.c **** int32_t osSignalSet (osThreadId thread_id, int32_t signal)
 503:Middlewares/Third_Party/FreeRTOS/Source/CMSIS_RTOS/cmsis_os.c **** {
 670              		.loc 1 503 1 is_stmt 1 view -0
 671              		.cfi_startproc
 672              		@ args = 0, pretend = 0, frame = 8
 673              		@ frame_needed = 0, uses_anonymous_args = 0
 674              		.loc 1 503 1 is_stmt 0 view .LVU129
 675 0000 30B5     		push	{r4, r5, lr}
 676              	.LCFI12:
 677              		.cfi_def_cfa_offset 12
 678              		.cfi_offset 4, -12
ARM GAS  C:\Users\User\AppData\Local\Temp\ccTFByJK.s 			page 25


 679              		.cfi_offset 5, -8
 680              		.cfi_offset 14, -4
 681 0002 85B0     		sub	sp, sp, #20
 682              	.LCFI13:
 683              		.cfi_def_cfa_offset 32
 684 0004 0446     		mov	r4, r0
 685 0006 0D46     		mov	r5, r1
 504:Middlewares/Third_Party/FreeRTOS/Source/CMSIS_RTOS/cmsis_os.c **** #if( configUSE_TASK_NOTIFICATIONS == 1 )	
 505:Middlewares/Third_Party/FreeRTOS/Source/CMSIS_RTOS/cmsis_os.c ****   BaseType_t xHigherPriorityTaskWoken = pdFALSE;
 686              		.loc 1 505 3 is_stmt 1 view .LVU130
 687              		.loc 1 505 14 is_stmt 0 view .LVU131
 688 0008 0023     		movs	r3, #0
 689 000a 0393     		str	r3, [sp, #12]
 506:Middlewares/Third_Party/FreeRTOS/Source/CMSIS_RTOS/cmsis_os.c ****   uint32_t ulPreviousNotificationValue = 0;
 690              		.loc 1 506 3 is_stmt 1 view .LVU132
 691              		.loc 1 506 12 is_stmt 0 view .LVU133
 692 000c 0293     		str	r3, [sp, #8]
 507:Middlewares/Third_Party/FreeRTOS/Source/CMSIS_RTOS/cmsis_os.c ****   
 508:Middlewares/Third_Party/FreeRTOS/Source/CMSIS_RTOS/cmsis_os.c ****   if (inHandlerMode())
 693              		.loc 1 508 3 is_stmt 1 view .LVU134
 694              		.loc 1 508 7 is_stmt 0 view .LVU135
 695 000e FFF7FEFF 		bl	inHandlerMode
 696              	.LVL47:
 697              		.loc 1 508 6 view .LVU136
 698 0012 A0B1     		cbz	r0, .L45
 509:Middlewares/Third_Party/FreeRTOS/Source/CMSIS_RTOS/cmsis_os.c ****   {
 510:Middlewares/Third_Party/FreeRTOS/Source/CMSIS_RTOS/cmsis_os.c ****     if(xTaskGenericNotifyFromISR( thread_id , (uint32_t)signal, eSetBits, &ulPreviousNotificationVa
 699              		.loc 1 510 5 is_stmt 1 view .LVU137
 700              		.loc 1 510 8 is_stmt 0 view .LVU138
 701 0014 03AB     		add	r3, sp, #12
 702 0016 0093     		str	r3, [sp]
 703 0018 02AB     		add	r3, sp, #8
 704 001a 0122     		movs	r2, #1
 705 001c 2946     		mov	r1, r5
 706 001e 2046     		mov	r0, r4
 707 0020 FFF7FEFF 		bl	xTaskGenericNotifyFromISR
 708              	.LVL48:
 709              		.loc 1 510 7 view .LVU139
 710 0024 0128     		cmp	r0, #1
 711 0026 15D1     		bne	.L48
 511:Middlewares/Third_Party/FreeRTOS/Source/CMSIS_RTOS/cmsis_os.c ****       return 0x80000000;
 512:Middlewares/Third_Party/FreeRTOS/Source/CMSIS_RTOS/cmsis_os.c ****     
 513:Middlewares/Third_Party/FreeRTOS/Source/CMSIS_RTOS/cmsis_os.c ****     portYIELD_FROM_ISR( xHigherPriorityTaskWoken );
 712              		.loc 1 513 5 is_stmt 1 view .LVU140
 713 0028 039B     		ldr	r3, [sp, #12]
 714 002a 83B1     		cbz	r3, .L47
 715              		.loc 1 513 5 discriminator 1 view .LVU141
 716 002c 0C4B     		ldr	r3, .L51
 717 002e 4FF08052 		mov	r2, #268435456
 718 0032 1A60     		str	r2, [r3]
 719              		.loc 1 513 5 discriminator 1 view .LVU142
 720              		.syntax unified
 721              	@ 513 "Middlewares/Third_Party/FreeRTOS/Source/CMSIS_RTOS/cmsis_os.c" 1
 722 0034 BFF34F8F 		dsb
 723              	@ 0 "" 2
 724              		.loc 1 513 5 discriminator 1 view .LVU143
 725              	@ 513 "Middlewares/Third_Party/FreeRTOS/Source/CMSIS_RTOS/cmsis_os.c" 1
ARM GAS  C:\Users\User\AppData\Local\Temp\ccTFByJK.s 			page 26


 726 0038 BFF36F8F 		isb
 727              	@ 0 "" 2
 728              		.thumb
 729              		.syntax unified
 730 003c 07E0     		b	.L47
 731              	.L45:
 514:Middlewares/Third_Party/FreeRTOS/Source/CMSIS_RTOS/cmsis_os.c ****   }  
 515:Middlewares/Third_Party/FreeRTOS/Source/CMSIS_RTOS/cmsis_os.c ****   else if(xTaskGenericNotify( thread_id , (uint32_t)signal, eSetBits, &ulPreviousNotificationValue)
 732              		.loc 1 515 8 view .LVU144
 733              		.loc 1 515 11 is_stmt 0 view .LVU145
 734 003e 02AB     		add	r3, sp, #8
 735 0040 0122     		movs	r2, #1
 736 0042 2946     		mov	r1, r5
 737 0044 2046     		mov	r0, r4
 738 0046 FFF7FEFF 		bl	xTaskGenericNotify
 739              	.LVL49:
 740              		.loc 1 515 10 view .LVU146
 741 004a 0128     		cmp	r0, #1
 742 004c 05D1     		bne	.L49
 743              	.L47:
 516:Middlewares/Third_Party/FreeRTOS/Source/CMSIS_RTOS/cmsis_os.c ****     return 0x80000000;
 517:Middlewares/Third_Party/FreeRTOS/Source/CMSIS_RTOS/cmsis_os.c ****   
 518:Middlewares/Third_Party/FreeRTOS/Source/CMSIS_RTOS/cmsis_os.c ****   return ulPreviousNotificationValue;
 744              		.loc 1 518 3 is_stmt 1 view .LVU147
 745              		.loc 1 518 10 is_stmt 0 view .LVU148
 746 004e 0298     		ldr	r0, [sp, #8]
 747              	.L44:
 519:Middlewares/Third_Party/FreeRTOS/Source/CMSIS_RTOS/cmsis_os.c **** #else
 520:Middlewares/Third_Party/FreeRTOS/Source/CMSIS_RTOS/cmsis_os.c ****   (void) thread_id;
 521:Middlewares/Third_Party/FreeRTOS/Source/CMSIS_RTOS/cmsis_os.c ****   (void) signal;
 522:Middlewares/Third_Party/FreeRTOS/Source/CMSIS_RTOS/cmsis_os.c **** 
 523:Middlewares/Third_Party/FreeRTOS/Source/CMSIS_RTOS/cmsis_os.c ****   return 0x80000000; /* Task Notification not supported */ 	
 524:Middlewares/Third_Party/FreeRTOS/Source/CMSIS_RTOS/cmsis_os.c **** #endif
 525:Middlewares/Third_Party/FreeRTOS/Source/CMSIS_RTOS/cmsis_os.c **** }
 748              		.loc 1 525 1 view .LVU149
 749 0050 05B0     		add	sp, sp, #20
 750              	.LCFI14:
 751              		.cfi_remember_state
 752              		.cfi_def_cfa_offset 12
 753              		@ sp needed
 754 0052 30BD     		pop	{r4, r5, pc}
 755              	.LVL50:
 756              	.L48:
 757              	.LCFI15:
 758              		.cfi_restore_state
 511:Middlewares/Third_Party/FreeRTOS/Source/CMSIS_RTOS/cmsis_os.c ****     
 759              		.loc 1 511 14 view .LVU150
 760 0054 4FF00040 		mov	r0, #-2147483648
 761 0058 FAE7     		b	.L44
 762              	.L49:
 516:Middlewares/Third_Party/FreeRTOS/Source/CMSIS_RTOS/cmsis_os.c ****     return 0x80000000;
 763              		.loc 1 516 12 view .LVU151
 764 005a 4FF00040 		mov	r0, #-2147483648
 765 005e F7E7     		b	.L44
 766              	.L52:
 767              		.align	2
 768              	.L51:
ARM GAS  C:\Users\User\AppData\Local\Temp\ccTFByJK.s 			page 27


 769 0060 04ED00E0 		.word	-536810236
 770              		.cfi_endproc
 771              	.LFE66:
 773              		.section	.text.osSignalWait,"ax",%progbits
 774              		.align	1
 775              		.global	osSignalWait
 776              		.syntax unified
 777              		.thumb
 778              		.thumb_func
 779              		.fpu softvfp
 781              	osSignalWait:
 782              	.LVL51:
 783              	.LFB67:
 526:Middlewares/Third_Party/FreeRTOS/Source/CMSIS_RTOS/cmsis_os.c **** 
 527:Middlewares/Third_Party/FreeRTOS/Source/CMSIS_RTOS/cmsis_os.c **** /**
 528:Middlewares/Third_Party/FreeRTOS/Source/CMSIS_RTOS/cmsis_os.c **** * @brief  Clear the specified Signal Flags of an active thread.
 529:Middlewares/Third_Party/FreeRTOS/Source/CMSIS_RTOS/cmsis_os.c **** * @param  thread_id  thread ID obtained by \ref osThreadCreate or \ref osThreadGetId.
 530:Middlewares/Third_Party/FreeRTOS/Source/CMSIS_RTOS/cmsis_os.c **** * @param  signals    specifies the signal flags of the thread that shall be cleared.
 531:Middlewares/Third_Party/FreeRTOS/Source/CMSIS_RTOS/cmsis_os.c **** * @retval  previous signal flags of the specified thread or 0x80000000 in case of incorrect paramet
 532:Middlewares/Third_Party/FreeRTOS/Source/CMSIS_RTOS/cmsis_os.c **** * @note   MUST REMAIN UNCHANGED: \b osSignalClear shall be consistent in every CMSIS-RTOS.
 533:Middlewares/Third_Party/FreeRTOS/Source/CMSIS_RTOS/cmsis_os.c **** */
 534:Middlewares/Third_Party/FreeRTOS/Source/CMSIS_RTOS/cmsis_os.c **** int32_t osSignalClear (osThreadId thread_id, int32_t signal);
 535:Middlewares/Third_Party/FreeRTOS/Source/CMSIS_RTOS/cmsis_os.c **** 
 536:Middlewares/Third_Party/FreeRTOS/Source/CMSIS_RTOS/cmsis_os.c **** /**
 537:Middlewares/Third_Party/FreeRTOS/Source/CMSIS_RTOS/cmsis_os.c **** * @brief  Wait for one or more Signal Flags to become signaled for the current \b RUNNING thread.
 538:Middlewares/Third_Party/FreeRTOS/Source/CMSIS_RTOS/cmsis_os.c **** * @param  signals   wait until all specified signal flags set or 0 for any single signal flag.
 539:Middlewares/Third_Party/FreeRTOS/Source/CMSIS_RTOS/cmsis_os.c **** * @param  millisec  timeout value or 0 in case of no time-out.
 540:Middlewares/Third_Party/FreeRTOS/Source/CMSIS_RTOS/cmsis_os.c **** * @retval  event flag information or error code.
 541:Middlewares/Third_Party/FreeRTOS/Source/CMSIS_RTOS/cmsis_os.c **** * @note   MUST REMAIN UNCHANGED: \b osSignalWait shall be consistent in every CMSIS-RTOS.
 542:Middlewares/Third_Party/FreeRTOS/Source/CMSIS_RTOS/cmsis_os.c **** */
 543:Middlewares/Third_Party/FreeRTOS/Source/CMSIS_RTOS/cmsis_os.c **** osEvent osSignalWait (int32_t signals, uint32_t millisec)
 544:Middlewares/Third_Party/FreeRTOS/Source/CMSIS_RTOS/cmsis_os.c **** {
 784              		.loc 1 544 1 is_stmt 1 view -0
 785              		.cfi_startproc
 786              		@ args = 0, pretend = 0, frame = 16
 787              		@ frame_needed = 0, uses_anonymous_args = 0
 788              		.loc 1 544 1 is_stmt 0 view .LVU153
 789 0000 70B5     		push	{r4, r5, r6, lr}
 790              	.LCFI16:
 791              		.cfi_def_cfa_offset 16
 792              		.cfi_offset 4, -16
 793              		.cfi_offset 5, -12
 794              		.cfi_offset 6, -8
 795              		.cfi_offset 14, -4
 796 0002 84B0     		sub	sp, sp, #16
 797              	.LCFI17:
 798              		.cfi_def_cfa_offset 32
 799 0004 0446     		mov	r4, r0
 800 0006 0E46     		mov	r6, r1
 545:Middlewares/Third_Party/FreeRTOS/Source/CMSIS_RTOS/cmsis_os.c ****   osEvent ret;
 801              		.loc 1 545 3 is_stmt 1 view .LVU154
 546:Middlewares/Third_Party/FreeRTOS/Source/CMSIS_RTOS/cmsis_os.c **** 
 547:Middlewares/Third_Party/FreeRTOS/Source/CMSIS_RTOS/cmsis_os.c **** #if( configUSE_TASK_NOTIFICATIONS == 1 )
 548:Middlewares/Third_Party/FreeRTOS/Source/CMSIS_RTOS/cmsis_os.c **** 	
 549:Middlewares/Third_Party/FreeRTOS/Source/CMSIS_RTOS/cmsis_os.c ****   TickType_t ticks;
 802              		.loc 1 549 3 view .LVU155
 550:Middlewares/Third_Party/FreeRTOS/Source/CMSIS_RTOS/cmsis_os.c **** 
ARM GAS  C:\Users\User\AppData\Local\Temp\ccTFByJK.s 			page 28


 551:Middlewares/Third_Party/FreeRTOS/Source/CMSIS_RTOS/cmsis_os.c ****   ret.value.signals = 0;  
 803              		.loc 1 551 3 view .LVU156
 804              		.loc 1 551 21 is_stmt 0 view .LVU157
 805 0008 0023     		movs	r3, #0
 806 000a 0293     		str	r3, [sp, #8]
 552:Middlewares/Third_Party/FreeRTOS/Source/CMSIS_RTOS/cmsis_os.c ****   ticks = 0;
 807              		.loc 1 552 3 is_stmt 1 view .LVU158
 808              	.LVL52:
 553:Middlewares/Third_Party/FreeRTOS/Source/CMSIS_RTOS/cmsis_os.c ****   if (millisec == osWaitForever) {
 809              		.loc 1 553 3 view .LVU159
 810              		.loc 1 553 6 is_stmt 0 view .LVU160
 811 000c B2F1FF3F 		cmp	r2, #-1
 812 0010 03D0     		beq	.L60
 813 0012 1546     		mov	r5, r2
 554:Middlewares/Third_Party/FreeRTOS/Source/CMSIS_RTOS/cmsis_os.c ****     ticks = portMAX_DELAY;
 555:Middlewares/Third_Party/FreeRTOS/Source/CMSIS_RTOS/cmsis_os.c ****   }
 556:Middlewares/Third_Party/FreeRTOS/Source/CMSIS_RTOS/cmsis_os.c ****   else if (millisec != 0) {
 814              		.loc 1 556 8 is_stmt 1 view .LVU161
 815              		.loc 1 556 11 is_stmt 0 view .LVU162
 816 0014 1AB9     		cbnz	r2, .L54
 552:Middlewares/Third_Party/FreeRTOS/Source/CMSIS_RTOS/cmsis_os.c ****   if (millisec == osWaitForever) {
 817              		.loc 1 552 9 view .LVU163
 818 0016 1D46     		mov	r5, r3
 819 0018 01E0     		b	.L54
 820              	.L60:
 554:Middlewares/Third_Party/FreeRTOS/Source/CMSIS_RTOS/cmsis_os.c ****     ticks = portMAX_DELAY;
 821              		.loc 1 554 11 view .LVU164
 822 001a 4FF0FF35 		mov	r5, #-1
 823              	.L54:
 824              	.LVL53:
 557:Middlewares/Third_Party/FreeRTOS/Source/CMSIS_RTOS/cmsis_os.c ****     ticks = millisec / portTICK_PERIOD_MS;
 558:Middlewares/Third_Party/FreeRTOS/Source/CMSIS_RTOS/cmsis_os.c ****     if (ticks == 0) {
 559:Middlewares/Third_Party/FreeRTOS/Source/CMSIS_RTOS/cmsis_os.c ****       ticks = 1;
 560:Middlewares/Third_Party/FreeRTOS/Source/CMSIS_RTOS/cmsis_os.c ****     }
 561:Middlewares/Third_Party/FreeRTOS/Source/CMSIS_RTOS/cmsis_os.c ****   }  
 562:Middlewares/Third_Party/FreeRTOS/Source/CMSIS_RTOS/cmsis_os.c ****   
 563:Middlewares/Third_Party/FreeRTOS/Source/CMSIS_RTOS/cmsis_os.c ****   if (inHandlerMode())
 825              		.loc 1 563 3 is_stmt 1 view .LVU165
 826              		.loc 1 563 7 is_stmt 0 view .LVU166
 827 001e FFF7FEFF 		bl	inHandlerMode
 828              	.LVL54:
 829              		.loc 1 563 6 view .LVU167
 830 0022 48B1     		cbz	r0, .L55
 564:Middlewares/Third_Party/FreeRTOS/Source/CMSIS_RTOS/cmsis_os.c ****   {
 565:Middlewares/Third_Party/FreeRTOS/Source/CMSIS_RTOS/cmsis_os.c ****     ret.status = osErrorISR;  /*Not allowed in ISR*/
 831              		.loc 1 565 5 is_stmt 1 view .LVU168
 832              		.loc 1 565 16 is_stmt 0 view .LVU169
 833 0024 8223     		movs	r3, #130
 834 0026 0193     		str	r3, [sp, #4]
 835              	.L56:
 566:Middlewares/Third_Party/FreeRTOS/Source/CMSIS_RTOS/cmsis_os.c ****   }
 567:Middlewares/Third_Party/FreeRTOS/Source/CMSIS_RTOS/cmsis_os.c ****   else
 568:Middlewares/Third_Party/FreeRTOS/Source/CMSIS_RTOS/cmsis_os.c ****   {
 569:Middlewares/Third_Party/FreeRTOS/Source/CMSIS_RTOS/cmsis_os.c ****     if(xTaskNotifyWait( 0,(uint32_t) signals, (uint32_t *)&ret.value.signals, ticks) != pdTRUE)
 570:Middlewares/Third_Party/FreeRTOS/Source/CMSIS_RTOS/cmsis_os.c ****     {
 571:Middlewares/Third_Party/FreeRTOS/Source/CMSIS_RTOS/cmsis_os.c ****       if(ticks == 0)  ret.status = osOK;
 572:Middlewares/Third_Party/FreeRTOS/Source/CMSIS_RTOS/cmsis_os.c ****       else  ret.status = osEventTimeout;
ARM GAS  C:\Users\User\AppData\Local\Temp\ccTFByJK.s 			page 29


 573:Middlewares/Third_Party/FreeRTOS/Source/CMSIS_RTOS/cmsis_os.c ****     }
 574:Middlewares/Third_Party/FreeRTOS/Source/CMSIS_RTOS/cmsis_os.c ****     else if(ret.value.signals < 0)
 575:Middlewares/Third_Party/FreeRTOS/Source/CMSIS_RTOS/cmsis_os.c ****     {
 576:Middlewares/Third_Party/FreeRTOS/Source/CMSIS_RTOS/cmsis_os.c ****       ret.status =  osErrorValue;     
 577:Middlewares/Third_Party/FreeRTOS/Source/CMSIS_RTOS/cmsis_os.c ****     }
 578:Middlewares/Third_Party/FreeRTOS/Source/CMSIS_RTOS/cmsis_os.c ****     else  ret.status =  osEventSignal;
 579:Middlewares/Third_Party/FreeRTOS/Source/CMSIS_RTOS/cmsis_os.c ****   }
 580:Middlewares/Third_Party/FreeRTOS/Source/CMSIS_RTOS/cmsis_os.c **** #else
 581:Middlewares/Third_Party/FreeRTOS/Source/CMSIS_RTOS/cmsis_os.c ****   (void) signals;
 582:Middlewares/Third_Party/FreeRTOS/Source/CMSIS_RTOS/cmsis_os.c ****   (void) millisec;
 583:Middlewares/Third_Party/FreeRTOS/Source/CMSIS_RTOS/cmsis_os.c **** 	
 584:Middlewares/Third_Party/FreeRTOS/Source/CMSIS_RTOS/cmsis_os.c ****   ret.status =  osErrorOS;	/* Task Notification not supported */
 585:Middlewares/Third_Party/FreeRTOS/Source/CMSIS_RTOS/cmsis_os.c **** #endif
 586:Middlewares/Third_Party/FreeRTOS/Source/CMSIS_RTOS/cmsis_os.c ****   
 587:Middlewares/Third_Party/FreeRTOS/Source/CMSIS_RTOS/cmsis_os.c ****   return ret;
 836              		.loc 1 587 3 is_stmt 1 view .LVU170
 837              		.loc 1 587 10 is_stmt 0 view .LVU171
 838 0028 04AB     		add	r3, sp, #16
 839 002a 13E90700 		ldmdb	r3, {r0, r1, r2}
 840 002e 84E80700 		stm	r4, {r0, r1, r2}
 588:Middlewares/Third_Party/FreeRTOS/Source/CMSIS_RTOS/cmsis_os.c **** }
 841              		.loc 1 588 1 view .LVU172
 842 0032 2046     		mov	r0, r4
 843 0034 04B0     		add	sp, sp, #16
 844              	.LCFI18:
 845              		.cfi_remember_state
 846              		.cfi_def_cfa_offset 16
 847              		@ sp needed
 848 0036 70BD     		pop	{r4, r5, r6, pc}
 849              	.LVL55:
 850              	.L55:
 851              	.LCFI19:
 852              		.cfi_restore_state
 569:Middlewares/Third_Party/FreeRTOS/Source/CMSIS_RTOS/cmsis_os.c ****     {
 853              		.loc 1 569 5 is_stmt 1 view .LVU173
 569:Middlewares/Third_Party/FreeRTOS/Source/CMSIS_RTOS/cmsis_os.c ****     {
 854              		.loc 1 569 8 is_stmt 0 view .LVU174
 855 0038 2B46     		mov	r3, r5
 856 003a 02AA     		add	r2, sp, #8
 857 003c 3146     		mov	r1, r6
 858 003e 0020     		movs	r0, #0
 859 0040 FFF7FEFF 		bl	xTaskNotifyWait
 860              	.LVL56:
 569:Middlewares/Third_Party/FreeRTOS/Source/CMSIS_RTOS/cmsis_os.c ****     {
 861              		.loc 1 569 7 view .LVU175
 862 0044 0128     		cmp	r0, #1
 863 0046 06D0     		beq	.L57
 571:Middlewares/Third_Party/FreeRTOS/Source/CMSIS_RTOS/cmsis_os.c ****       else  ret.status = osEventTimeout;
 864              		.loc 1 571 7 is_stmt 1 view .LVU176
 571:Middlewares/Third_Party/FreeRTOS/Source/CMSIS_RTOS/cmsis_os.c ****       else  ret.status = osEventTimeout;
 865              		.loc 1 571 9 is_stmt 0 view .LVU177
 866 0048 15B9     		cbnz	r5, .L58
 571:Middlewares/Third_Party/FreeRTOS/Source/CMSIS_RTOS/cmsis_os.c ****       else  ret.status = osEventTimeout;
 867              		.loc 1 571 23 is_stmt 1 discriminator 1 view .LVU178
 571:Middlewares/Third_Party/FreeRTOS/Source/CMSIS_RTOS/cmsis_os.c ****       else  ret.status = osEventTimeout;
 868              		.loc 1 571 34 is_stmt 0 discriminator 1 view .LVU179
 869 004a 0023     		movs	r3, #0
ARM GAS  C:\Users\User\AppData\Local\Temp\ccTFByJK.s 			page 30


 870 004c 0193     		str	r3, [sp, #4]
 871 004e EBE7     		b	.L56
 872              	.L58:
 572:Middlewares/Third_Party/FreeRTOS/Source/CMSIS_RTOS/cmsis_os.c ****     }
 873              		.loc 1 572 13 is_stmt 1 view .LVU180
 572:Middlewares/Third_Party/FreeRTOS/Source/CMSIS_RTOS/cmsis_os.c ****     }
 874              		.loc 1 572 24 is_stmt 0 view .LVU181
 875 0050 4023     		movs	r3, #64
 876 0052 0193     		str	r3, [sp, #4]
 877 0054 E8E7     		b	.L56
 878              	.L57:
 574:Middlewares/Third_Party/FreeRTOS/Source/CMSIS_RTOS/cmsis_os.c ****     {
 879              		.loc 1 574 10 is_stmt 1 view .LVU182
 574:Middlewares/Third_Party/FreeRTOS/Source/CMSIS_RTOS/cmsis_os.c ****     {
 880              		.loc 1 574 22 is_stmt 0 view .LVU183
 881 0056 029B     		ldr	r3, [sp, #8]
 574:Middlewares/Third_Party/FreeRTOS/Source/CMSIS_RTOS/cmsis_os.c ****     {
 882              		.loc 1 574 12 view .LVU184
 883 0058 002B     		cmp	r3, #0
 884 005a 02DB     		blt	.L62
 578:Middlewares/Third_Party/FreeRTOS/Source/CMSIS_RTOS/cmsis_os.c ****   }
 885              		.loc 1 578 11 is_stmt 1 view .LVU185
 578:Middlewares/Third_Party/FreeRTOS/Source/CMSIS_RTOS/cmsis_os.c ****   }
 886              		.loc 1 578 22 is_stmt 0 view .LVU186
 887 005c 0823     		movs	r3, #8
 888 005e 0193     		str	r3, [sp, #4]
 889 0060 E2E7     		b	.L56
 890              	.L62:
 576:Middlewares/Third_Party/FreeRTOS/Source/CMSIS_RTOS/cmsis_os.c ****     }
 891              		.loc 1 576 7 is_stmt 1 view .LVU187
 576:Middlewares/Third_Party/FreeRTOS/Source/CMSIS_RTOS/cmsis_os.c ****     }
 892              		.loc 1 576 18 is_stmt 0 view .LVU188
 893 0062 8623     		movs	r3, #134
 894 0064 0193     		str	r3, [sp, #4]
 895 0066 DFE7     		b	.L56
 896              		.cfi_endproc
 897              	.LFE67:
 899              		.section	.text.osMutexCreate,"ax",%progbits
 900              		.align	1
 901              		.global	osMutexCreate
 902              		.syntax unified
 903              		.thumb
 904              		.thumb_func
 905              		.fpu softvfp
 907              	osMutexCreate:
 908              	.LVL57:
 909              	.LFB68:
 589:Middlewares/Third_Party/FreeRTOS/Source/CMSIS_RTOS/cmsis_os.c **** 
 590:Middlewares/Third_Party/FreeRTOS/Source/CMSIS_RTOS/cmsis_os.c **** /****************************  Mutex Management ********************************/
 591:Middlewares/Third_Party/FreeRTOS/Source/CMSIS_RTOS/cmsis_os.c **** /**
 592:Middlewares/Third_Party/FreeRTOS/Source/CMSIS_RTOS/cmsis_os.c **** * @brief  Create and Initialize a Mutex object
 593:Middlewares/Third_Party/FreeRTOS/Source/CMSIS_RTOS/cmsis_os.c **** * @param  mutex_def     mutex definition referenced with \ref osMutex.
 594:Middlewares/Third_Party/FreeRTOS/Source/CMSIS_RTOS/cmsis_os.c **** * @retval  mutex ID for reference by other functions or NULL in case of error.
 595:Middlewares/Third_Party/FreeRTOS/Source/CMSIS_RTOS/cmsis_os.c **** * @note   MUST REMAIN UNCHANGED: \b osMutexCreate shall be consistent in every CMSIS-RTOS.
 596:Middlewares/Third_Party/FreeRTOS/Source/CMSIS_RTOS/cmsis_os.c **** */
 597:Middlewares/Third_Party/FreeRTOS/Source/CMSIS_RTOS/cmsis_os.c **** osMutexId osMutexCreate (const osMutexDef_t *mutex_def)
 598:Middlewares/Third_Party/FreeRTOS/Source/CMSIS_RTOS/cmsis_os.c **** {
ARM GAS  C:\Users\User\AppData\Local\Temp\ccTFByJK.s 			page 31


 910              		.loc 1 598 1 is_stmt 1 view -0
 911              		.cfi_startproc
 912              		@ args = 0, pretend = 0, frame = 0
 913              		@ frame_needed = 0, uses_anonymous_args = 0
 914              		.loc 1 598 1 is_stmt 0 view .LVU190
 915 0000 08B5     		push	{r3, lr}
 916              	.LCFI20:
 917              		.cfi_def_cfa_offset 8
 918              		.cfi_offset 3, -8
 919              		.cfi_offset 14, -4
 599:Middlewares/Third_Party/FreeRTOS/Source/CMSIS_RTOS/cmsis_os.c **** #if ( configUSE_MUTEXES == 1)
 600:Middlewares/Third_Party/FreeRTOS/Source/CMSIS_RTOS/cmsis_os.c **** 
 601:Middlewares/Third_Party/FreeRTOS/Source/CMSIS_RTOS/cmsis_os.c **** #if( configSUPPORT_STATIC_ALLOCATION == 1 ) && ( configSUPPORT_DYNAMIC_ALLOCATION == 1 )
 602:Middlewares/Third_Party/FreeRTOS/Source/CMSIS_RTOS/cmsis_os.c **** 
 603:Middlewares/Third_Party/FreeRTOS/Source/CMSIS_RTOS/cmsis_os.c ****   if (mutex_def->controlblock != NULL) {
 604:Middlewares/Third_Party/FreeRTOS/Source/CMSIS_RTOS/cmsis_os.c ****     return xSemaphoreCreateMutexStatic( mutex_def->controlblock );
 605:Middlewares/Third_Party/FreeRTOS/Source/CMSIS_RTOS/cmsis_os.c ****      }
 606:Middlewares/Third_Party/FreeRTOS/Source/CMSIS_RTOS/cmsis_os.c ****   else {
 607:Middlewares/Third_Party/FreeRTOS/Source/CMSIS_RTOS/cmsis_os.c ****     return xSemaphoreCreateMutex(); 
 608:Middlewares/Third_Party/FreeRTOS/Source/CMSIS_RTOS/cmsis_os.c ****   }
 609:Middlewares/Third_Party/FreeRTOS/Source/CMSIS_RTOS/cmsis_os.c **** #elif ( configSUPPORT_STATIC_ALLOCATION == 1 )
 610:Middlewares/Third_Party/FreeRTOS/Source/CMSIS_RTOS/cmsis_os.c ****   return xSemaphoreCreateMutexStatic( mutex_def->controlblock );
 611:Middlewares/Third_Party/FreeRTOS/Source/CMSIS_RTOS/cmsis_os.c **** #else  
 612:Middlewares/Third_Party/FreeRTOS/Source/CMSIS_RTOS/cmsis_os.c ****     return xSemaphoreCreateMutex(); 
 920              		.loc 1 612 5 is_stmt 1 view .LVU191
 921              		.loc 1 612 12 is_stmt 0 view .LVU192
 922 0002 0120     		movs	r0, #1
 923              	.LVL58:
 924              		.loc 1 612 12 view .LVU193
 925 0004 FFF7FEFF 		bl	xQueueCreateMutex
 926              	.LVL59:
 613:Middlewares/Third_Party/FreeRTOS/Source/CMSIS_RTOS/cmsis_os.c **** #endif
 614:Middlewares/Third_Party/FreeRTOS/Source/CMSIS_RTOS/cmsis_os.c **** #else
 615:Middlewares/Third_Party/FreeRTOS/Source/CMSIS_RTOS/cmsis_os.c ****   return NULL;
 616:Middlewares/Third_Party/FreeRTOS/Source/CMSIS_RTOS/cmsis_os.c **** #endif
 617:Middlewares/Third_Party/FreeRTOS/Source/CMSIS_RTOS/cmsis_os.c **** }
 927              		.loc 1 617 1 view .LVU194
 928 0008 08BD     		pop	{r3, pc}
 929              		.cfi_endproc
 930              	.LFE68:
 932              		.section	.text.osMutexWait,"ax",%progbits
 933              		.align	1
 934              		.global	osMutexWait
 935              		.syntax unified
 936              		.thumb
 937              		.thumb_func
 938              		.fpu softvfp
 940              	osMutexWait:
 941              	.LVL60:
 942              	.LFB69:
 618:Middlewares/Third_Party/FreeRTOS/Source/CMSIS_RTOS/cmsis_os.c **** 
 619:Middlewares/Third_Party/FreeRTOS/Source/CMSIS_RTOS/cmsis_os.c **** /**
 620:Middlewares/Third_Party/FreeRTOS/Source/CMSIS_RTOS/cmsis_os.c **** * @brief Wait until a Mutex becomes available
 621:Middlewares/Third_Party/FreeRTOS/Source/CMSIS_RTOS/cmsis_os.c **** * @param mutex_id      mutex ID obtained by \ref osMutexCreate.
 622:Middlewares/Third_Party/FreeRTOS/Source/CMSIS_RTOS/cmsis_os.c **** * @param millisec      timeout value or 0 in case of no time-out.
 623:Middlewares/Third_Party/FreeRTOS/Source/CMSIS_RTOS/cmsis_os.c **** * @retval  status code that indicates the execution status of the function.
 624:Middlewares/Third_Party/FreeRTOS/Source/CMSIS_RTOS/cmsis_os.c **** * @note   MUST REMAIN UNCHANGED: \b osMutexWait shall be consistent in every CMSIS-RTOS.
ARM GAS  C:\Users\User\AppData\Local\Temp\ccTFByJK.s 			page 32


 625:Middlewares/Third_Party/FreeRTOS/Source/CMSIS_RTOS/cmsis_os.c **** */
 626:Middlewares/Third_Party/FreeRTOS/Source/CMSIS_RTOS/cmsis_os.c **** osStatus osMutexWait (osMutexId mutex_id, uint32_t millisec)
 627:Middlewares/Third_Party/FreeRTOS/Source/CMSIS_RTOS/cmsis_os.c **** {
 943              		.loc 1 627 1 is_stmt 1 view -0
 944              		.cfi_startproc
 945              		@ args = 0, pretend = 0, frame = 8
 946              		@ frame_needed = 0, uses_anonymous_args = 0
 947              		.loc 1 627 1 is_stmt 0 view .LVU196
 948 0000 30B5     		push	{r4, r5, lr}
 949              	.LCFI21:
 950              		.cfi_def_cfa_offset 12
 951              		.cfi_offset 4, -12
 952              		.cfi_offset 5, -8
 953              		.cfi_offset 14, -4
 954 0002 83B0     		sub	sp, sp, #12
 955              	.LCFI22:
 956              		.cfi_def_cfa_offset 24
 628:Middlewares/Third_Party/FreeRTOS/Source/CMSIS_RTOS/cmsis_os.c ****   TickType_t ticks;
 957              		.loc 1 628 3 is_stmt 1 view .LVU197
 629:Middlewares/Third_Party/FreeRTOS/Source/CMSIS_RTOS/cmsis_os.c ****   portBASE_TYPE taskWoken = pdFALSE;  
 958              		.loc 1 629 3 view .LVU198
 959              		.loc 1 629 17 is_stmt 0 view .LVU199
 960 0004 0023     		movs	r3, #0
 961 0006 0193     		str	r3, [sp, #4]
 630:Middlewares/Third_Party/FreeRTOS/Source/CMSIS_RTOS/cmsis_os.c ****   
 631:Middlewares/Third_Party/FreeRTOS/Source/CMSIS_RTOS/cmsis_os.c ****   
 632:Middlewares/Third_Party/FreeRTOS/Source/CMSIS_RTOS/cmsis_os.c ****   if (mutex_id == NULL) {
 962              		.loc 1 632 3 is_stmt 1 view .LVU200
 963              		.loc 1 632 6 is_stmt 0 view .LVU201
 964 0008 40B3     		cbz	r0, .L69
 965 000a 0C46     		mov	r4, r1
 966 000c 0546     		mov	r5, r0
 633:Middlewares/Third_Party/FreeRTOS/Source/CMSIS_RTOS/cmsis_os.c ****     return osErrorParameter;
 634:Middlewares/Third_Party/FreeRTOS/Source/CMSIS_RTOS/cmsis_os.c ****   }
 635:Middlewares/Third_Party/FreeRTOS/Source/CMSIS_RTOS/cmsis_os.c ****   
 636:Middlewares/Third_Party/FreeRTOS/Source/CMSIS_RTOS/cmsis_os.c ****   ticks = 0;
 967              		.loc 1 636 3 is_stmt 1 view .LVU202
 968              	.LVL61:
 637:Middlewares/Third_Party/FreeRTOS/Source/CMSIS_RTOS/cmsis_os.c ****   if (millisec == osWaitForever) {
 969              		.loc 1 637 3 view .LVU203
 970              		.loc 1 637 6 is_stmt 0 view .LVU204
 971 000e B1F1FF3F 		cmp	r1, #-1
 972 0012 02D0     		beq	.L70
 638:Middlewares/Third_Party/FreeRTOS/Source/CMSIS_RTOS/cmsis_os.c ****     ticks = portMAX_DELAY;
 639:Middlewares/Third_Party/FreeRTOS/Source/CMSIS_RTOS/cmsis_os.c ****   }
 640:Middlewares/Third_Party/FreeRTOS/Source/CMSIS_RTOS/cmsis_os.c ****   else if (millisec != 0) {
 973              		.loc 1 640 8 is_stmt 1 view .LVU205
 974              		.loc 1 640 11 is_stmt 0 view .LVU206
 975 0014 19B9     		cbnz	r1, .L67
 636:Middlewares/Third_Party/FreeRTOS/Source/CMSIS_RTOS/cmsis_os.c ****   if (millisec == osWaitForever) {
 976              		.loc 1 636 9 view .LVU207
 977 0016 1C46     		mov	r4, r3
 978 0018 01E0     		b	.L67
 979              	.L70:
 638:Middlewares/Third_Party/FreeRTOS/Source/CMSIS_RTOS/cmsis_os.c ****     ticks = portMAX_DELAY;
 980              		.loc 1 638 11 view .LVU208
 981 001a 4FF0FF34 		mov	r4, #-1
ARM GAS  C:\Users\User\AppData\Local\Temp\ccTFByJK.s 			page 33


 982              	.L67:
 983              	.LVL62:
 641:Middlewares/Third_Party/FreeRTOS/Source/CMSIS_RTOS/cmsis_os.c ****     ticks = millisec / portTICK_PERIOD_MS;
 642:Middlewares/Third_Party/FreeRTOS/Source/CMSIS_RTOS/cmsis_os.c ****     if (ticks == 0) {
 643:Middlewares/Third_Party/FreeRTOS/Source/CMSIS_RTOS/cmsis_os.c ****       ticks = 1;
 644:Middlewares/Third_Party/FreeRTOS/Source/CMSIS_RTOS/cmsis_os.c ****     }
 645:Middlewares/Third_Party/FreeRTOS/Source/CMSIS_RTOS/cmsis_os.c ****   }
 646:Middlewares/Third_Party/FreeRTOS/Source/CMSIS_RTOS/cmsis_os.c ****   
 647:Middlewares/Third_Party/FreeRTOS/Source/CMSIS_RTOS/cmsis_os.c ****   if (inHandlerMode()) {
 984              		.loc 1 647 3 is_stmt 1 view .LVU209
 985              		.loc 1 647 7 is_stmt 0 view .LVU210
 986 001e FFF7FEFF 		bl	inHandlerMode
 987              	.LVL63:
 988              		.loc 1 647 6 view .LVU211
 989 0022 90B1     		cbz	r0, .L68
 648:Middlewares/Third_Party/FreeRTOS/Source/CMSIS_RTOS/cmsis_os.c ****     if (xSemaphoreTakeFromISR(mutex_id, &taskWoken) != pdTRUE) {
 990              		.loc 1 648 5 is_stmt 1 view .LVU212
 991              		.loc 1 648 9 is_stmt 0 view .LVU213
 992 0024 01AA     		add	r2, sp, #4
 993 0026 0021     		movs	r1, #0
 994 0028 2846     		mov	r0, r5
 995 002a FFF7FEFF 		bl	xQueueReceiveFromISR
 996              	.LVL64:
 997              		.loc 1 648 8 view .LVU214
 998 002e 0128     		cmp	r0, #1
 999 0030 16D1     		bne	.L71
 649:Middlewares/Third_Party/FreeRTOS/Source/CMSIS_RTOS/cmsis_os.c ****       return osErrorOS;
 650:Middlewares/Third_Party/FreeRTOS/Source/CMSIS_RTOS/cmsis_os.c ****     }
 651:Middlewares/Third_Party/FreeRTOS/Source/CMSIS_RTOS/cmsis_os.c **** 	portEND_SWITCHING_ISR(taskWoken);
 1000              		.loc 1 651 2 is_stmt 1 view .LVU215
 1001 0032 019B     		ldr	r3, [sp, #4]
 1002 0034 B3B1     		cbz	r3, .L72
 1003              		.loc 1 651 2 discriminator 1 view .LVU216
 1004 0036 0D4B     		ldr	r3, .L75
 1005 0038 4FF08052 		mov	r2, #268435456
 1006 003c 1A60     		str	r2, [r3]
 1007              		.loc 1 651 2 discriminator 1 view .LVU217
 1008              		.syntax unified
 1009              	@ 651 "Middlewares/Third_Party/FreeRTOS/Source/CMSIS_RTOS/cmsis_os.c" 1
 1010 003e BFF34F8F 		dsb
 1011              	@ 0 "" 2
 1012              		.loc 1 651 2 discriminator 1 view .LVU218
 1013              	@ 651 "Middlewares/Third_Party/FreeRTOS/Source/CMSIS_RTOS/cmsis_os.c" 1
 1014 0042 BFF36F8F 		isb
 1015              	@ 0 "" 2
 652:Middlewares/Third_Party/FreeRTOS/Source/CMSIS_RTOS/cmsis_os.c ****   } 
 653:Middlewares/Third_Party/FreeRTOS/Source/CMSIS_RTOS/cmsis_os.c ****   else if (xSemaphoreTake(mutex_id, ticks) != pdTRUE) {
 654:Middlewares/Third_Party/FreeRTOS/Source/CMSIS_RTOS/cmsis_os.c ****     return osErrorOS;
 655:Middlewares/Third_Party/FreeRTOS/Source/CMSIS_RTOS/cmsis_os.c ****   }
 656:Middlewares/Third_Party/FreeRTOS/Source/CMSIS_RTOS/cmsis_os.c ****   
 657:Middlewares/Third_Party/FreeRTOS/Source/CMSIS_RTOS/cmsis_os.c ****   return osOK;
 1016              		.loc 1 657 10 is_stmt 0 discriminator 1 view .LVU219
 1017              		.thumb
 1018              		.syntax unified
 1019 0046 0020     		movs	r0, #0
 1020 0048 06E0     		b	.L65
 1021              	.L68:
ARM GAS  C:\Users\User\AppData\Local\Temp\ccTFByJK.s 			page 34


 653:Middlewares/Third_Party/FreeRTOS/Source/CMSIS_RTOS/cmsis_os.c ****     return osErrorOS;
 1022              		.loc 1 653 8 is_stmt 1 view .LVU220
 653:Middlewares/Third_Party/FreeRTOS/Source/CMSIS_RTOS/cmsis_os.c ****     return osErrorOS;
 1023              		.loc 1 653 12 is_stmt 0 view .LVU221
 1024 004a 2146     		mov	r1, r4
 1025 004c 2846     		mov	r0, r5
 1026 004e FFF7FEFF 		bl	xQueueSemaphoreTake
 1027              	.LVL65:
 653:Middlewares/Third_Party/FreeRTOS/Source/CMSIS_RTOS/cmsis_os.c ****     return osErrorOS;
 1028              		.loc 1 653 11 view .LVU222
 1029 0052 0128     		cmp	r0, #1
 1030 0054 08D1     		bne	.L73
 1031              		.loc 1 657 10 view .LVU223
 1032 0056 0020     		movs	r0, #0
 1033              	.LVL66:
 1034              	.L65:
 658:Middlewares/Third_Party/FreeRTOS/Source/CMSIS_RTOS/cmsis_os.c **** }
 1035              		.loc 1 658 1 view .LVU224
 1036 0058 03B0     		add	sp, sp, #12
 1037              	.LCFI23:
 1038              		.cfi_remember_state
 1039              		.cfi_def_cfa_offset 12
 1040              		@ sp needed
 1041 005a 30BD     		pop	{r4, r5, pc}
 1042              	.LVL67:
 1043              	.L69:
 1044              	.LCFI24:
 1045              		.cfi_restore_state
 633:Middlewares/Third_Party/FreeRTOS/Source/CMSIS_RTOS/cmsis_os.c ****   }
 1046              		.loc 1 633 12 view .LVU225
 1047 005c 8020     		movs	r0, #128
 1048              	.LVL68:
 633:Middlewares/Third_Party/FreeRTOS/Source/CMSIS_RTOS/cmsis_os.c ****   }
 1049              		.loc 1 633 12 view .LVU226
 1050 005e FBE7     		b	.L65
 1051              	.LVL69:
 1052              	.L71:
 649:Middlewares/Third_Party/FreeRTOS/Source/CMSIS_RTOS/cmsis_os.c ****     }
 1053              		.loc 1 649 14 view .LVU227
 1054 0060 FF20     		movs	r0, #255
 1055 0062 F9E7     		b	.L65
 1056              	.L72:
 657:Middlewares/Third_Party/FreeRTOS/Source/CMSIS_RTOS/cmsis_os.c **** }
 1057              		.loc 1 657 10 view .LVU228
 1058 0064 0020     		movs	r0, #0
 1059 0066 F7E7     		b	.L65
 1060              	.L73:
 654:Middlewares/Third_Party/FreeRTOS/Source/CMSIS_RTOS/cmsis_os.c ****   }
 1061              		.loc 1 654 12 view .LVU229
 1062 0068 FF20     		movs	r0, #255
 1063 006a F5E7     		b	.L65
 1064              	.L76:
 1065              		.align	2
 1066              	.L75:
 1067 006c 04ED00E0 		.word	-536810236
 1068              		.cfi_endproc
 1069              	.LFE69:
ARM GAS  C:\Users\User\AppData\Local\Temp\ccTFByJK.s 			page 35


 1071              		.section	.text.osMutexRelease,"ax",%progbits
 1072              		.align	1
 1073              		.global	osMutexRelease
 1074              		.syntax unified
 1075              		.thumb
 1076              		.thumb_func
 1077              		.fpu softvfp
 1079              	osMutexRelease:
 1080              	.LVL70:
 1081              	.LFB70:
 659:Middlewares/Third_Party/FreeRTOS/Source/CMSIS_RTOS/cmsis_os.c **** 
 660:Middlewares/Third_Party/FreeRTOS/Source/CMSIS_RTOS/cmsis_os.c **** /**
 661:Middlewares/Third_Party/FreeRTOS/Source/CMSIS_RTOS/cmsis_os.c **** * @brief Release a Mutex that was obtained by \ref osMutexWait
 662:Middlewares/Third_Party/FreeRTOS/Source/CMSIS_RTOS/cmsis_os.c **** * @param mutex_id      mutex ID obtained by \ref osMutexCreate.
 663:Middlewares/Third_Party/FreeRTOS/Source/CMSIS_RTOS/cmsis_os.c **** * @retval  status code that indicates the execution status of the function.
 664:Middlewares/Third_Party/FreeRTOS/Source/CMSIS_RTOS/cmsis_os.c **** * @note   MUST REMAIN UNCHANGED: \b osMutexRelease shall be consistent in every CMSIS-RTOS.
 665:Middlewares/Third_Party/FreeRTOS/Source/CMSIS_RTOS/cmsis_os.c **** */
 666:Middlewares/Third_Party/FreeRTOS/Source/CMSIS_RTOS/cmsis_os.c **** osStatus osMutexRelease (osMutexId mutex_id)
 667:Middlewares/Third_Party/FreeRTOS/Source/CMSIS_RTOS/cmsis_os.c **** {
 1082              		.loc 1 667 1 is_stmt 1 view -0
 1083              		.cfi_startproc
 1084              		@ args = 0, pretend = 0, frame = 8
 1085              		@ frame_needed = 0, uses_anonymous_args = 0
 1086              		.loc 1 667 1 is_stmt 0 view .LVU231
 1087 0000 10B5     		push	{r4, lr}
 1088              	.LCFI25:
 1089              		.cfi_def_cfa_offset 8
 1090              		.cfi_offset 4, -8
 1091              		.cfi_offset 14, -4
 1092 0002 82B0     		sub	sp, sp, #8
 1093              	.LCFI26:
 1094              		.cfi_def_cfa_offset 16
 1095 0004 0446     		mov	r4, r0
 668:Middlewares/Third_Party/FreeRTOS/Source/CMSIS_RTOS/cmsis_os.c ****   osStatus result = osOK;
 1096              		.loc 1 668 3 is_stmt 1 view .LVU232
 1097              	.LVL71:
 669:Middlewares/Third_Party/FreeRTOS/Source/CMSIS_RTOS/cmsis_os.c ****   portBASE_TYPE taskWoken = pdFALSE;
 1098              		.loc 1 669 3 view .LVU233
 1099              		.loc 1 669 17 is_stmt 0 view .LVU234
 1100 0006 0023     		movs	r3, #0
 1101 0008 0193     		str	r3, [sp, #4]
 670:Middlewares/Third_Party/FreeRTOS/Source/CMSIS_RTOS/cmsis_os.c ****   
 671:Middlewares/Third_Party/FreeRTOS/Source/CMSIS_RTOS/cmsis_os.c ****   if (inHandlerMode()) {
 1102              		.loc 1 671 3 is_stmt 1 view .LVU235
 1103              		.loc 1 671 7 is_stmt 0 view .LVU236
 1104 000a FFF7FEFF 		bl	inHandlerMode
 1105              	.LVL72:
 1106              		.loc 1 671 6 view .LVU237
 1107 000e 88B1     		cbz	r0, .L78
 672:Middlewares/Third_Party/FreeRTOS/Source/CMSIS_RTOS/cmsis_os.c ****     if (xSemaphoreGiveFromISR(mutex_id, &taskWoken) != pdTRUE) {
 1108              		.loc 1 672 5 is_stmt 1 view .LVU238
 1109              		.loc 1 672 9 is_stmt 0 view .LVU239
 1110 0010 01A9     		add	r1, sp, #4
 1111 0012 2046     		mov	r0, r4
 1112 0014 FFF7FEFF 		bl	xQueueGiveFromISR
 1113              	.LVL73:
 1114              		.loc 1 672 8 view .LVU240
ARM GAS  C:\Users\User\AppData\Local\Temp\ccTFByJK.s 			page 36


 1115 0018 0128     		cmp	r0, #1
 1116 001a 18D1     		bne	.L80
 673:Middlewares/Third_Party/FreeRTOS/Source/CMSIS_RTOS/cmsis_os.c ****       return osErrorOS;
 674:Middlewares/Third_Party/FreeRTOS/Source/CMSIS_RTOS/cmsis_os.c ****     }
 675:Middlewares/Third_Party/FreeRTOS/Source/CMSIS_RTOS/cmsis_os.c ****     portEND_SWITCHING_ISR(taskWoken);
 1117              		.loc 1 675 5 is_stmt 1 view .LVU241
 1118 001c 019B     		ldr	r3, [sp, #4]
 1119 001e C3B1     		cbz	r3, .L81
 1120              		.loc 1 675 5 discriminator 1 view .LVU242
 1121 0020 0D4B     		ldr	r3, .L85
 1122 0022 4FF08052 		mov	r2, #268435456
 1123 0026 1A60     		str	r2, [r3]
 1124              		.loc 1 675 5 discriminator 1 view .LVU243
 1125              		.syntax unified
 1126              	@ 675 "Middlewares/Third_Party/FreeRTOS/Source/CMSIS_RTOS/cmsis_os.c" 1
 1127 0028 BFF34F8F 		dsb
 1128              	@ 0 "" 2
 1129              		.loc 1 675 5 discriminator 1 view .LVU244
 1130              	@ 675 "Middlewares/Third_Party/FreeRTOS/Source/CMSIS_RTOS/cmsis_os.c" 1
 1131 002c BFF36F8F 		isb
 1132              	@ 0 "" 2
 668:Middlewares/Third_Party/FreeRTOS/Source/CMSIS_RTOS/cmsis_os.c ****   portBASE_TYPE taskWoken = pdFALSE;
 1133              		.loc 1 668 12 is_stmt 0 discriminator 1 view .LVU245
 1134              		.thumb
 1135              		.syntax unified
 1136 0030 0020     		movs	r0, #0
 1137 0032 08E0     		b	.L77
 1138              	.L78:
 676:Middlewares/Third_Party/FreeRTOS/Source/CMSIS_RTOS/cmsis_os.c ****   }
 677:Middlewares/Third_Party/FreeRTOS/Source/CMSIS_RTOS/cmsis_os.c ****   else if (xSemaphoreGive(mutex_id) != pdTRUE) 
 1139              		.loc 1 677 8 is_stmt 1 view .LVU246
 1140              		.loc 1 677 12 is_stmt 0 view .LVU247
 1141 0034 0023     		movs	r3, #0
 1142 0036 1A46     		mov	r2, r3
 1143 0038 1946     		mov	r1, r3
 1144 003a 2046     		mov	r0, r4
 1145 003c FFF7FEFF 		bl	xQueueGenericSend
 1146              	.LVL74:
 1147              		.loc 1 677 11 view .LVU248
 1148 0040 0128     		cmp	r0, #1
 1149 0042 02D0     		beq	.L84
 678:Middlewares/Third_Party/FreeRTOS/Source/CMSIS_RTOS/cmsis_os.c ****   {
 679:Middlewares/Third_Party/FreeRTOS/Source/CMSIS_RTOS/cmsis_os.c ****     result = osErrorOS;
 1150              		.loc 1 679 12 view .LVU249
 1151 0044 FF20     		movs	r0, #255
 1152              	.L77:
 680:Middlewares/Third_Party/FreeRTOS/Source/CMSIS_RTOS/cmsis_os.c ****   }
 681:Middlewares/Third_Party/FreeRTOS/Source/CMSIS_RTOS/cmsis_os.c ****   return result;
 682:Middlewares/Third_Party/FreeRTOS/Source/CMSIS_RTOS/cmsis_os.c **** }
 1153              		.loc 1 682 1 view .LVU250
 1154 0046 02B0     		add	sp, sp, #8
 1155              	.LCFI27:
 1156              		.cfi_remember_state
 1157              		.cfi_def_cfa_offset 8
 1158              		@ sp needed
 1159 0048 10BD     		pop	{r4, pc}
 1160              	.LVL75:
ARM GAS  C:\Users\User\AppData\Local\Temp\ccTFByJK.s 			page 37


 1161              	.L84:
 1162              	.LCFI28:
 1163              		.cfi_restore_state
 668:Middlewares/Third_Party/FreeRTOS/Source/CMSIS_RTOS/cmsis_os.c ****   portBASE_TYPE taskWoken = pdFALSE;
 1164              		.loc 1 668 12 view .LVU251
 1165 004a 0020     		movs	r0, #0
 1166 004c FBE7     		b	.L77
 1167              	.L80:
 673:Middlewares/Third_Party/FreeRTOS/Source/CMSIS_RTOS/cmsis_os.c ****     }
 1168              		.loc 1 673 14 view .LVU252
 1169 004e FF20     		movs	r0, #255
 1170 0050 F9E7     		b	.L77
 1171              	.L81:
 668:Middlewares/Third_Party/FreeRTOS/Source/CMSIS_RTOS/cmsis_os.c ****   portBASE_TYPE taskWoken = pdFALSE;
 1172              		.loc 1 668 12 view .LVU253
 1173 0052 0020     		movs	r0, #0
 1174 0054 F7E7     		b	.L77
 1175              	.L86:
 1176 0056 00BF     		.align	2
 1177              	.L85:
 1178 0058 04ED00E0 		.word	-536810236
 1179              		.cfi_endproc
 1180              	.LFE70:
 1182              		.section	.text.osMutexDelete,"ax",%progbits
 1183              		.align	1
 1184              		.global	osMutexDelete
 1185              		.syntax unified
 1186              		.thumb
 1187              		.thumb_func
 1188              		.fpu softvfp
 1190              	osMutexDelete:
 1191              	.LVL76:
 1192              	.LFB71:
 683:Middlewares/Third_Party/FreeRTOS/Source/CMSIS_RTOS/cmsis_os.c **** 
 684:Middlewares/Third_Party/FreeRTOS/Source/CMSIS_RTOS/cmsis_os.c **** /**
 685:Middlewares/Third_Party/FreeRTOS/Source/CMSIS_RTOS/cmsis_os.c **** * @brief Delete a Mutex
 686:Middlewares/Third_Party/FreeRTOS/Source/CMSIS_RTOS/cmsis_os.c **** * @param mutex_id  mutex ID obtained by \ref osMutexCreate.
 687:Middlewares/Third_Party/FreeRTOS/Source/CMSIS_RTOS/cmsis_os.c **** * @retval  status code that indicates the execution status of the function.
 688:Middlewares/Third_Party/FreeRTOS/Source/CMSIS_RTOS/cmsis_os.c **** * @note   MUST REMAIN UNCHANGED: \b osMutexDelete shall be consistent in every CMSIS-RTOS.
 689:Middlewares/Third_Party/FreeRTOS/Source/CMSIS_RTOS/cmsis_os.c **** */
 690:Middlewares/Third_Party/FreeRTOS/Source/CMSIS_RTOS/cmsis_os.c **** osStatus osMutexDelete (osMutexId mutex_id)
 691:Middlewares/Third_Party/FreeRTOS/Source/CMSIS_RTOS/cmsis_os.c **** {
 1193              		.loc 1 691 1 is_stmt 1 view -0
 1194              		.cfi_startproc
 1195              		@ args = 0, pretend = 0, frame = 0
 1196              		@ frame_needed = 0, uses_anonymous_args = 0
 1197              		.loc 1 691 1 is_stmt 0 view .LVU255
 1198 0000 10B5     		push	{r4, lr}
 1199              	.LCFI29:
 1200              		.cfi_def_cfa_offset 8
 1201              		.cfi_offset 4, -8
 1202              		.cfi_offset 14, -4
 1203 0002 0446     		mov	r4, r0
 692:Middlewares/Third_Party/FreeRTOS/Source/CMSIS_RTOS/cmsis_os.c ****   if (inHandlerMode()) {
 1204              		.loc 1 692 3 is_stmt 1 view .LVU256
 1205              		.loc 1 692 7 is_stmt 0 view .LVU257
 1206 0004 FFF7FEFF 		bl	inHandlerMode
ARM GAS  C:\Users\User\AppData\Local\Temp\ccTFByJK.s 			page 38


 1207              	.LVL77:
 1208              		.loc 1 692 6 view .LVU258
 1209 0008 20B9     		cbnz	r0, .L89
 693:Middlewares/Third_Party/FreeRTOS/Source/CMSIS_RTOS/cmsis_os.c ****     return osErrorISR;
 694:Middlewares/Third_Party/FreeRTOS/Source/CMSIS_RTOS/cmsis_os.c ****   }
 695:Middlewares/Third_Party/FreeRTOS/Source/CMSIS_RTOS/cmsis_os.c **** 
 696:Middlewares/Third_Party/FreeRTOS/Source/CMSIS_RTOS/cmsis_os.c ****   vQueueDelete(mutex_id);
 1210              		.loc 1 696 3 is_stmt 1 view .LVU259
 1211 000a 2046     		mov	r0, r4
 1212 000c FFF7FEFF 		bl	vQueueDelete
 1213              	.LVL78:
 697:Middlewares/Third_Party/FreeRTOS/Source/CMSIS_RTOS/cmsis_os.c **** 
 698:Middlewares/Third_Party/FreeRTOS/Source/CMSIS_RTOS/cmsis_os.c ****   return osOK;
 1214              		.loc 1 698 3 view .LVU260
 1215              		.loc 1 698 10 is_stmt 0 view .LVU261
 1216 0010 0020     		movs	r0, #0
 1217              	.L87:
 699:Middlewares/Third_Party/FreeRTOS/Source/CMSIS_RTOS/cmsis_os.c **** }
 1218              		.loc 1 699 1 view .LVU262
 1219 0012 10BD     		pop	{r4, pc}
 1220              	.LVL79:
 1221              	.L89:
 693:Middlewares/Third_Party/FreeRTOS/Source/CMSIS_RTOS/cmsis_os.c ****     return osErrorISR;
 1222              		.loc 1 693 12 view .LVU263
 1223 0014 8220     		movs	r0, #130
 1224 0016 FCE7     		b	.L87
 1225              		.cfi_endproc
 1226              	.LFE71:
 1228              		.section	.text.osSemaphoreCreate,"ax",%progbits
 1229              		.align	1
 1230              		.global	osSemaphoreCreate
 1231              		.syntax unified
 1232              		.thumb
 1233              		.thumb_func
 1234              		.fpu softvfp
 1236              	osSemaphoreCreate:
 1237              	.LVL80:
 1238              	.LFB72:
 700:Middlewares/Third_Party/FreeRTOS/Source/CMSIS_RTOS/cmsis_os.c **** 
 701:Middlewares/Third_Party/FreeRTOS/Source/CMSIS_RTOS/cmsis_os.c **** /********************  Semaphore Management Functions **************************/
 702:Middlewares/Third_Party/FreeRTOS/Source/CMSIS_RTOS/cmsis_os.c **** 
 703:Middlewares/Third_Party/FreeRTOS/Source/CMSIS_RTOS/cmsis_os.c **** #if (defined (osFeature_Semaphore)  &&  (osFeature_Semaphore != 0))
 704:Middlewares/Third_Party/FreeRTOS/Source/CMSIS_RTOS/cmsis_os.c **** 
 705:Middlewares/Third_Party/FreeRTOS/Source/CMSIS_RTOS/cmsis_os.c **** /**
 706:Middlewares/Third_Party/FreeRTOS/Source/CMSIS_RTOS/cmsis_os.c **** * @brief Create and Initialize a Semaphore object used for managing resources
 707:Middlewares/Third_Party/FreeRTOS/Source/CMSIS_RTOS/cmsis_os.c **** * @param semaphore_def semaphore definition referenced with \ref osSemaphore.
 708:Middlewares/Third_Party/FreeRTOS/Source/CMSIS_RTOS/cmsis_os.c **** * @param count         number of available resources.
 709:Middlewares/Third_Party/FreeRTOS/Source/CMSIS_RTOS/cmsis_os.c **** * @retval  semaphore ID for reference by other functions or NULL in case of error.
 710:Middlewares/Third_Party/FreeRTOS/Source/CMSIS_RTOS/cmsis_os.c **** * @note   MUST REMAIN UNCHANGED: \b osSemaphoreCreate shall be consistent in every CMSIS-RTOS.
 711:Middlewares/Third_Party/FreeRTOS/Source/CMSIS_RTOS/cmsis_os.c **** */
 712:Middlewares/Third_Party/FreeRTOS/Source/CMSIS_RTOS/cmsis_os.c **** osSemaphoreId osSemaphoreCreate (const osSemaphoreDef_t *semaphore_def, int32_t count)
 713:Middlewares/Third_Party/FreeRTOS/Source/CMSIS_RTOS/cmsis_os.c **** { 
 1239              		.loc 1 713 1 is_stmt 1 view -0
 1240              		.cfi_startproc
 1241              		@ args = 0, pretend = 0, frame = 0
 1242              		@ frame_needed = 0, uses_anonymous_args = 0
 1243              		.loc 1 713 1 is_stmt 0 view .LVU265
ARM GAS  C:\Users\User\AppData\Local\Temp\ccTFByJK.s 			page 39


 1244 0000 10B5     		push	{r4, lr}
 1245              	.LCFI30:
 1246              		.cfi_def_cfa_offset 8
 1247              		.cfi_offset 4, -8
 1248              		.cfi_offset 14, -4
 714:Middlewares/Third_Party/FreeRTOS/Source/CMSIS_RTOS/cmsis_os.c **** #if( configSUPPORT_STATIC_ALLOCATION == 1 ) && ( configSUPPORT_DYNAMIC_ALLOCATION == 1 )
 715:Middlewares/Third_Party/FreeRTOS/Source/CMSIS_RTOS/cmsis_os.c **** 
 716:Middlewares/Third_Party/FreeRTOS/Source/CMSIS_RTOS/cmsis_os.c ****   osSemaphoreId sema;
 717:Middlewares/Third_Party/FreeRTOS/Source/CMSIS_RTOS/cmsis_os.c ****   
 718:Middlewares/Third_Party/FreeRTOS/Source/CMSIS_RTOS/cmsis_os.c ****   if (semaphore_def->controlblock != NULL){
 719:Middlewares/Third_Party/FreeRTOS/Source/CMSIS_RTOS/cmsis_os.c ****     if (count == 1) {
 720:Middlewares/Third_Party/FreeRTOS/Source/CMSIS_RTOS/cmsis_os.c ****       return xSemaphoreCreateBinaryStatic( semaphore_def->controlblock );
 721:Middlewares/Third_Party/FreeRTOS/Source/CMSIS_RTOS/cmsis_os.c ****     }
 722:Middlewares/Third_Party/FreeRTOS/Source/CMSIS_RTOS/cmsis_os.c ****     else {
 723:Middlewares/Third_Party/FreeRTOS/Source/CMSIS_RTOS/cmsis_os.c **** #if (configUSE_COUNTING_SEMAPHORES == 1 )
 724:Middlewares/Third_Party/FreeRTOS/Source/CMSIS_RTOS/cmsis_os.c ****       return xSemaphoreCreateCountingStatic( count, count, semaphore_def->controlblock );
 725:Middlewares/Third_Party/FreeRTOS/Source/CMSIS_RTOS/cmsis_os.c **** #else
 726:Middlewares/Third_Party/FreeRTOS/Source/CMSIS_RTOS/cmsis_os.c ****       return NULL;
 727:Middlewares/Third_Party/FreeRTOS/Source/CMSIS_RTOS/cmsis_os.c **** #endif
 728:Middlewares/Third_Party/FreeRTOS/Source/CMSIS_RTOS/cmsis_os.c ****     }
 729:Middlewares/Third_Party/FreeRTOS/Source/CMSIS_RTOS/cmsis_os.c ****   }
 730:Middlewares/Third_Party/FreeRTOS/Source/CMSIS_RTOS/cmsis_os.c ****   else {
 731:Middlewares/Third_Party/FreeRTOS/Source/CMSIS_RTOS/cmsis_os.c ****     if (count == 1) {
 732:Middlewares/Third_Party/FreeRTOS/Source/CMSIS_RTOS/cmsis_os.c ****       vSemaphoreCreateBinary(sema);
 733:Middlewares/Third_Party/FreeRTOS/Source/CMSIS_RTOS/cmsis_os.c ****       return sema;
 734:Middlewares/Third_Party/FreeRTOS/Source/CMSIS_RTOS/cmsis_os.c ****     }
 735:Middlewares/Third_Party/FreeRTOS/Source/CMSIS_RTOS/cmsis_os.c ****     else {
 736:Middlewares/Third_Party/FreeRTOS/Source/CMSIS_RTOS/cmsis_os.c **** #if (configUSE_COUNTING_SEMAPHORES == 1 )	
 737:Middlewares/Third_Party/FreeRTOS/Source/CMSIS_RTOS/cmsis_os.c ****       return xSemaphoreCreateCounting(count, count);
 738:Middlewares/Third_Party/FreeRTOS/Source/CMSIS_RTOS/cmsis_os.c **** #else
 739:Middlewares/Third_Party/FreeRTOS/Source/CMSIS_RTOS/cmsis_os.c ****       return NULL;
 740:Middlewares/Third_Party/FreeRTOS/Source/CMSIS_RTOS/cmsis_os.c **** #endif    
 741:Middlewares/Third_Party/FreeRTOS/Source/CMSIS_RTOS/cmsis_os.c ****     }
 742:Middlewares/Third_Party/FreeRTOS/Source/CMSIS_RTOS/cmsis_os.c ****   }
 743:Middlewares/Third_Party/FreeRTOS/Source/CMSIS_RTOS/cmsis_os.c **** #elif ( configSUPPORT_STATIC_ALLOCATION == 1 ) // configSUPPORT_DYNAMIC_ALLOCATION == 0
 744:Middlewares/Third_Party/FreeRTOS/Source/CMSIS_RTOS/cmsis_os.c ****   if(count == 1) {
 745:Middlewares/Third_Party/FreeRTOS/Source/CMSIS_RTOS/cmsis_os.c ****     return xSemaphoreCreateBinaryStatic( semaphore_def->controlblock );
 746:Middlewares/Third_Party/FreeRTOS/Source/CMSIS_RTOS/cmsis_os.c ****   }
 747:Middlewares/Third_Party/FreeRTOS/Source/CMSIS_RTOS/cmsis_os.c ****   else
 748:Middlewares/Third_Party/FreeRTOS/Source/CMSIS_RTOS/cmsis_os.c ****   {
 749:Middlewares/Third_Party/FreeRTOS/Source/CMSIS_RTOS/cmsis_os.c **** #if (configUSE_COUNTING_SEMAPHORES == 1 )
 750:Middlewares/Third_Party/FreeRTOS/Source/CMSIS_RTOS/cmsis_os.c ****       return xSemaphoreCreateCountingStatic( count, count, semaphore_def->controlblock );
 751:Middlewares/Third_Party/FreeRTOS/Source/CMSIS_RTOS/cmsis_os.c **** #else
 752:Middlewares/Third_Party/FreeRTOS/Source/CMSIS_RTOS/cmsis_os.c ****       return NULL;
 753:Middlewares/Third_Party/FreeRTOS/Source/CMSIS_RTOS/cmsis_os.c **** #endif    
 754:Middlewares/Third_Party/FreeRTOS/Source/CMSIS_RTOS/cmsis_os.c ****   }
 755:Middlewares/Third_Party/FreeRTOS/Source/CMSIS_RTOS/cmsis_os.c **** #else  // configSUPPORT_STATIC_ALLOCATION == 0  && configSUPPORT_DYNAMIC_ALLOCATION == 1
 756:Middlewares/Third_Party/FreeRTOS/Source/CMSIS_RTOS/cmsis_os.c ****   osSemaphoreId sema;
 1249              		.loc 1 756 3 is_stmt 1 view .LVU266
 757:Middlewares/Third_Party/FreeRTOS/Source/CMSIS_RTOS/cmsis_os.c ****  
 758:Middlewares/Third_Party/FreeRTOS/Source/CMSIS_RTOS/cmsis_os.c ****   if (count == 1) {
 1250              		.loc 1 758 3 view .LVU267
 1251              		.loc 1 758 6 is_stmt 0 view .LVU268
 1252 0002 0129     		cmp	r1, #1
 1253 0004 02D0     		beq	.L96
 759:Middlewares/Third_Party/FreeRTOS/Source/CMSIS_RTOS/cmsis_os.c ****     vSemaphoreCreateBinary(sema);
 760:Middlewares/Third_Party/FreeRTOS/Source/CMSIS_RTOS/cmsis_os.c ****     return sema;
ARM GAS  C:\Users\User\AppData\Local\Temp\ccTFByJK.s 			page 40


 761:Middlewares/Third_Party/FreeRTOS/Source/CMSIS_RTOS/cmsis_os.c ****   }
 762:Middlewares/Third_Party/FreeRTOS/Source/CMSIS_RTOS/cmsis_os.c ****   else {
 763:Middlewares/Third_Party/FreeRTOS/Source/CMSIS_RTOS/cmsis_os.c **** #if (configUSE_COUNTING_SEMAPHORES == 1 )	
 764:Middlewares/Third_Party/FreeRTOS/Source/CMSIS_RTOS/cmsis_os.c ****     return xSemaphoreCreateCounting(count, count);
 765:Middlewares/Third_Party/FreeRTOS/Source/CMSIS_RTOS/cmsis_os.c **** #else
 766:Middlewares/Third_Party/FreeRTOS/Source/CMSIS_RTOS/cmsis_os.c ****     return NULL;
 1254              		.loc 1 766 12 view .LVU269
 1255 0006 0024     		movs	r4, #0
 1256              	.LVL81:
 1257              	.L91:
 767:Middlewares/Third_Party/FreeRTOS/Source/CMSIS_RTOS/cmsis_os.c **** #endif
 768:Middlewares/Third_Party/FreeRTOS/Source/CMSIS_RTOS/cmsis_os.c ****   }
 769:Middlewares/Third_Party/FreeRTOS/Source/CMSIS_RTOS/cmsis_os.c **** #endif
 770:Middlewares/Third_Party/FreeRTOS/Source/CMSIS_RTOS/cmsis_os.c **** }
 1258              		.loc 1 770 1 view .LVU270
 1259 0008 2046     		mov	r0, r4
 1260 000a 10BD     		pop	{r4, pc}
 1261              	.LVL82:
 1262              	.L96:
 759:Middlewares/Third_Party/FreeRTOS/Source/CMSIS_RTOS/cmsis_os.c ****     vSemaphoreCreateBinary(sema);
 1263              		.loc 1 759 5 is_stmt 1 view .LVU271
 1264 000c 0322     		movs	r2, #3
 1265 000e 0021     		movs	r1, #0
 1266              	.LVL83:
 759:Middlewares/Third_Party/FreeRTOS/Source/CMSIS_RTOS/cmsis_os.c ****     vSemaphoreCreateBinary(sema);
 1267              		.loc 1 759 5 is_stmt 0 view .LVU272
 1268 0010 0120     		movs	r0, #1
 1269              	.LVL84:
 759:Middlewares/Third_Party/FreeRTOS/Source/CMSIS_RTOS/cmsis_os.c ****     vSemaphoreCreateBinary(sema);
 1270              		.loc 1 759 5 view .LVU273
 1271 0012 FFF7FEFF 		bl	xQueueGenericCreate
 1272              	.LVL85:
 759:Middlewares/Third_Party/FreeRTOS/Source/CMSIS_RTOS/cmsis_os.c ****     vSemaphoreCreateBinary(sema);
 1273              		.loc 1 759 5 is_stmt 1 view .LVU274
 1274 0016 0446     		mov	r4, r0
 1275 0018 0028     		cmp	r0, #0
 1276 001a F5D0     		beq	.L91
 759:Middlewares/Third_Party/FreeRTOS/Source/CMSIS_RTOS/cmsis_os.c ****     vSemaphoreCreateBinary(sema);
 1277              		.loc 1 759 5 discriminator 1 view .LVU275
 1278 001c 0023     		movs	r3, #0
 1279 001e 1A46     		mov	r2, r3
 1280 0020 1946     		mov	r1, r3
 1281 0022 FFF7FEFF 		bl	xQueueGenericSend
 1282              	.LVL86:
 759:Middlewares/Third_Party/FreeRTOS/Source/CMSIS_RTOS/cmsis_os.c ****     vSemaphoreCreateBinary(sema);
 1283              		.loc 1 759 33 discriminator 1 view .LVU276
 760:Middlewares/Third_Party/FreeRTOS/Source/CMSIS_RTOS/cmsis_os.c ****   }
 1284              		.loc 1 760 5 discriminator 1 view .LVU277
 760:Middlewares/Third_Party/FreeRTOS/Source/CMSIS_RTOS/cmsis_os.c ****   }
 1285              		.loc 1 760 12 is_stmt 0 discriminator 1 view .LVU278
 1286 0026 EFE7     		b	.L91
 1287              		.cfi_endproc
 1288              	.LFE72:
 1290              		.section	.text.osSemaphoreWait,"ax",%progbits
 1291              		.align	1
 1292              		.global	osSemaphoreWait
 1293              		.syntax unified
ARM GAS  C:\Users\User\AppData\Local\Temp\ccTFByJK.s 			page 41


 1294              		.thumb
 1295              		.thumb_func
 1296              		.fpu softvfp
 1298              	osSemaphoreWait:
 1299              	.LVL87:
 1300              	.LFB73:
 771:Middlewares/Third_Party/FreeRTOS/Source/CMSIS_RTOS/cmsis_os.c **** 
 772:Middlewares/Third_Party/FreeRTOS/Source/CMSIS_RTOS/cmsis_os.c **** /**
 773:Middlewares/Third_Party/FreeRTOS/Source/CMSIS_RTOS/cmsis_os.c **** * @brief Wait until a Semaphore token becomes available
 774:Middlewares/Third_Party/FreeRTOS/Source/CMSIS_RTOS/cmsis_os.c **** * @param  semaphore_id  semaphore object referenced with \ref osSemaphore.
 775:Middlewares/Third_Party/FreeRTOS/Source/CMSIS_RTOS/cmsis_os.c **** * @param  millisec      timeout value or 0 in case of no time-out.
 776:Middlewares/Third_Party/FreeRTOS/Source/CMSIS_RTOS/cmsis_os.c **** * @retval  number of available tokens, or -1 in case of incorrect parameters.
 777:Middlewares/Third_Party/FreeRTOS/Source/CMSIS_RTOS/cmsis_os.c **** * @note   MUST REMAIN UNCHANGED: \b osSemaphoreWait shall be consistent in every CMSIS-RTOS.
 778:Middlewares/Third_Party/FreeRTOS/Source/CMSIS_RTOS/cmsis_os.c **** */
 779:Middlewares/Third_Party/FreeRTOS/Source/CMSIS_RTOS/cmsis_os.c **** int32_t osSemaphoreWait (osSemaphoreId semaphore_id, uint32_t millisec)
 780:Middlewares/Third_Party/FreeRTOS/Source/CMSIS_RTOS/cmsis_os.c **** {
 1301              		.loc 1 780 1 is_stmt 1 view -0
 1302              		.cfi_startproc
 1303              		@ args = 0, pretend = 0, frame = 8
 1304              		@ frame_needed = 0, uses_anonymous_args = 0
 1305              		.loc 1 780 1 is_stmt 0 view .LVU280
 1306 0000 30B5     		push	{r4, r5, lr}
 1307              	.LCFI31:
 1308              		.cfi_def_cfa_offset 12
 1309              		.cfi_offset 4, -12
 1310              		.cfi_offset 5, -8
 1311              		.cfi_offset 14, -4
 1312 0002 83B0     		sub	sp, sp, #12
 1313              	.LCFI32:
 1314              		.cfi_def_cfa_offset 24
 781:Middlewares/Third_Party/FreeRTOS/Source/CMSIS_RTOS/cmsis_os.c ****   TickType_t ticks;
 1315              		.loc 1 781 3 is_stmt 1 view .LVU281
 782:Middlewares/Third_Party/FreeRTOS/Source/CMSIS_RTOS/cmsis_os.c ****   portBASE_TYPE taskWoken = pdFALSE;  
 1316              		.loc 1 782 3 view .LVU282
 1317              		.loc 1 782 17 is_stmt 0 view .LVU283
 1318 0004 0023     		movs	r3, #0
 1319 0006 0193     		str	r3, [sp, #4]
 783:Middlewares/Third_Party/FreeRTOS/Source/CMSIS_RTOS/cmsis_os.c ****   
 784:Middlewares/Third_Party/FreeRTOS/Source/CMSIS_RTOS/cmsis_os.c ****   
 785:Middlewares/Third_Party/FreeRTOS/Source/CMSIS_RTOS/cmsis_os.c ****   if (semaphore_id == NULL) {
 1320              		.loc 1 785 3 is_stmt 1 view .LVU284
 1321              		.loc 1 785 6 is_stmt 0 view .LVU285
 1322 0008 40B3     		cbz	r0, .L101
 1323 000a 0C46     		mov	r4, r1
 1324 000c 0546     		mov	r5, r0
 786:Middlewares/Third_Party/FreeRTOS/Source/CMSIS_RTOS/cmsis_os.c ****     return osErrorParameter;
 787:Middlewares/Third_Party/FreeRTOS/Source/CMSIS_RTOS/cmsis_os.c ****   }
 788:Middlewares/Third_Party/FreeRTOS/Source/CMSIS_RTOS/cmsis_os.c ****   
 789:Middlewares/Third_Party/FreeRTOS/Source/CMSIS_RTOS/cmsis_os.c ****   ticks = 0;
 1325              		.loc 1 789 3 is_stmt 1 view .LVU286
 1326              	.LVL88:
 790:Middlewares/Third_Party/FreeRTOS/Source/CMSIS_RTOS/cmsis_os.c ****   if (millisec == osWaitForever) {
 1327              		.loc 1 790 3 view .LVU287
 1328              		.loc 1 790 6 is_stmt 0 view .LVU288
 1329 000e B1F1FF3F 		cmp	r1, #-1
 1330 0012 02D0     		beq	.L102
 791:Middlewares/Third_Party/FreeRTOS/Source/CMSIS_RTOS/cmsis_os.c ****     ticks = portMAX_DELAY;
ARM GAS  C:\Users\User\AppData\Local\Temp\ccTFByJK.s 			page 42


 792:Middlewares/Third_Party/FreeRTOS/Source/CMSIS_RTOS/cmsis_os.c ****   }
 793:Middlewares/Third_Party/FreeRTOS/Source/CMSIS_RTOS/cmsis_os.c ****   else if (millisec != 0) {
 1331              		.loc 1 793 8 is_stmt 1 view .LVU289
 1332              		.loc 1 793 11 is_stmt 0 view .LVU290
 1333 0014 19B9     		cbnz	r1, .L99
 789:Middlewares/Third_Party/FreeRTOS/Source/CMSIS_RTOS/cmsis_os.c ****   if (millisec == osWaitForever) {
 1334              		.loc 1 789 9 view .LVU291
 1335 0016 1C46     		mov	r4, r3
 1336 0018 01E0     		b	.L99
 1337              	.L102:
 791:Middlewares/Third_Party/FreeRTOS/Source/CMSIS_RTOS/cmsis_os.c ****     ticks = portMAX_DELAY;
 1338              		.loc 1 791 11 view .LVU292
 1339 001a 4FF0FF34 		mov	r4, #-1
 1340              	.L99:
 1341              	.LVL89:
 794:Middlewares/Third_Party/FreeRTOS/Source/CMSIS_RTOS/cmsis_os.c ****     ticks = millisec / portTICK_PERIOD_MS;
 795:Middlewares/Third_Party/FreeRTOS/Source/CMSIS_RTOS/cmsis_os.c ****     if (ticks == 0) {
 796:Middlewares/Third_Party/FreeRTOS/Source/CMSIS_RTOS/cmsis_os.c ****       ticks = 1;
 797:Middlewares/Third_Party/FreeRTOS/Source/CMSIS_RTOS/cmsis_os.c ****     }
 798:Middlewares/Third_Party/FreeRTOS/Source/CMSIS_RTOS/cmsis_os.c ****   }
 799:Middlewares/Third_Party/FreeRTOS/Source/CMSIS_RTOS/cmsis_os.c ****   
 800:Middlewares/Third_Party/FreeRTOS/Source/CMSIS_RTOS/cmsis_os.c ****   if (inHandlerMode()) {
 1342              		.loc 1 800 3 is_stmt 1 view .LVU293
 1343              		.loc 1 800 7 is_stmt 0 view .LVU294
 1344 001e FFF7FEFF 		bl	inHandlerMode
 1345              	.LVL90:
 1346              		.loc 1 800 6 view .LVU295
 1347 0022 90B1     		cbz	r0, .L100
 801:Middlewares/Third_Party/FreeRTOS/Source/CMSIS_RTOS/cmsis_os.c ****     if (xSemaphoreTakeFromISR(semaphore_id, &taskWoken) != pdTRUE) {
 1348              		.loc 1 801 5 is_stmt 1 view .LVU296
 1349              		.loc 1 801 9 is_stmt 0 view .LVU297
 1350 0024 01AA     		add	r2, sp, #4
 1351 0026 0021     		movs	r1, #0
 1352 0028 2846     		mov	r0, r5
 1353 002a FFF7FEFF 		bl	xQueueReceiveFromISR
 1354              	.LVL91:
 1355              		.loc 1 801 8 view .LVU298
 1356 002e 0128     		cmp	r0, #1
 1357 0030 16D1     		bne	.L103
 802:Middlewares/Third_Party/FreeRTOS/Source/CMSIS_RTOS/cmsis_os.c ****       return osErrorOS;
 803:Middlewares/Third_Party/FreeRTOS/Source/CMSIS_RTOS/cmsis_os.c ****     }
 804:Middlewares/Third_Party/FreeRTOS/Source/CMSIS_RTOS/cmsis_os.c **** 	portEND_SWITCHING_ISR(taskWoken);
 1358              		.loc 1 804 2 is_stmt 1 view .LVU299
 1359 0032 019B     		ldr	r3, [sp, #4]
 1360 0034 B3B1     		cbz	r3, .L104
 1361              		.loc 1 804 2 discriminator 1 view .LVU300
 1362 0036 0D4B     		ldr	r3, .L107
 1363 0038 4FF08052 		mov	r2, #268435456
 1364 003c 1A60     		str	r2, [r3]
 1365              		.loc 1 804 2 discriminator 1 view .LVU301
 1366              		.syntax unified
 1367              	@ 804 "Middlewares/Third_Party/FreeRTOS/Source/CMSIS_RTOS/cmsis_os.c" 1
 1368 003e BFF34F8F 		dsb
 1369              	@ 0 "" 2
 1370              		.loc 1 804 2 discriminator 1 view .LVU302
 1371              	@ 804 "Middlewares/Third_Party/FreeRTOS/Source/CMSIS_RTOS/cmsis_os.c" 1
 1372 0042 BFF36F8F 		isb
ARM GAS  C:\Users\User\AppData\Local\Temp\ccTFByJK.s 			page 43


 1373              	@ 0 "" 2
 805:Middlewares/Third_Party/FreeRTOS/Source/CMSIS_RTOS/cmsis_os.c ****   }  
 806:Middlewares/Third_Party/FreeRTOS/Source/CMSIS_RTOS/cmsis_os.c ****   else if (xSemaphoreTake(semaphore_id, ticks) != pdTRUE) {
 807:Middlewares/Third_Party/FreeRTOS/Source/CMSIS_RTOS/cmsis_os.c ****     return osErrorOS;
 808:Middlewares/Third_Party/FreeRTOS/Source/CMSIS_RTOS/cmsis_os.c ****   }
 809:Middlewares/Third_Party/FreeRTOS/Source/CMSIS_RTOS/cmsis_os.c ****   
 810:Middlewares/Third_Party/FreeRTOS/Source/CMSIS_RTOS/cmsis_os.c ****   return osOK;
 1374              		.loc 1 810 10 is_stmt 0 discriminator 1 view .LVU303
 1375              		.thumb
 1376              		.syntax unified
 1377 0046 0020     		movs	r0, #0
 1378 0048 06E0     		b	.L97
 1379              	.L100:
 806:Middlewares/Third_Party/FreeRTOS/Source/CMSIS_RTOS/cmsis_os.c ****     return osErrorOS;
 1380              		.loc 1 806 8 is_stmt 1 view .LVU304
 806:Middlewares/Third_Party/FreeRTOS/Source/CMSIS_RTOS/cmsis_os.c ****     return osErrorOS;
 1381              		.loc 1 806 12 is_stmt 0 view .LVU305
 1382 004a 2146     		mov	r1, r4
 1383 004c 2846     		mov	r0, r5
 1384 004e FFF7FEFF 		bl	xQueueSemaphoreTake
 1385              	.LVL92:
 806:Middlewares/Third_Party/FreeRTOS/Source/CMSIS_RTOS/cmsis_os.c ****     return osErrorOS;
 1386              		.loc 1 806 11 view .LVU306
 1387 0052 0128     		cmp	r0, #1
 1388 0054 08D1     		bne	.L105
 1389              		.loc 1 810 10 view .LVU307
 1390 0056 0020     		movs	r0, #0
 1391              	.LVL93:
 1392              	.L97:
 811:Middlewares/Third_Party/FreeRTOS/Source/CMSIS_RTOS/cmsis_os.c **** }
 1393              		.loc 1 811 1 view .LVU308
 1394 0058 03B0     		add	sp, sp, #12
 1395              	.LCFI33:
 1396              		.cfi_remember_state
 1397              		.cfi_def_cfa_offset 12
 1398              		@ sp needed
 1399 005a 30BD     		pop	{r4, r5, pc}
 1400              	.LVL94:
 1401              	.L101:
 1402              	.LCFI34:
 1403              		.cfi_restore_state
 786:Middlewares/Third_Party/FreeRTOS/Source/CMSIS_RTOS/cmsis_os.c ****   }
 1404              		.loc 1 786 12 view .LVU309
 1405 005c 8020     		movs	r0, #128
 1406              	.LVL95:
 786:Middlewares/Third_Party/FreeRTOS/Source/CMSIS_RTOS/cmsis_os.c ****   }
 1407              		.loc 1 786 12 view .LVU310
 1408 005e FBE7     		b	.L97
 1409              	.LVL96:
 1410              	.L103:
 802:Middlewares/Third_Party/FreeRTOS/Source/CMSIS_RTOS/cmsis_os.c ****     }
 1411              		.loc 1 802 14 view .LVU311
 1412 0060 FF20     		movs	r0, #255
 1413 0062 F9E7     		b	.L97
 1414              	.L104:
 810:Middlewares/Third_Party/FreeRTOS/Source/CMSIS_RTOS/cmsis_os.c **** }
 1415              		.loc 1 810 10 view .LVU312
ARM GAS  C:\Users\User\AppData\Local\Temp\ccTFByJK.s 			page 44


 1416 0064 0020     		movs	r0, #0
 1417 0066 F7E7     		b	.L97
 1418              	.L105:
 807:Middlewares/Third_Party/FreeRTOS/Source/CMSIS_RTOS/cmsis_os.c ****   }
 1419              		.loc 1 807 12 view .LVU313
 1420 0068 FF20     		movs	r0, #255
 1421 006a F5E7     		b	.L97
 1422              	.L108:
 1423              		.align	2
 1424              	.L107:
 1425 006c 04ED00E0 		.word	-536810236
 1426              		.cfi_endproc
 1427              	.LFE73:
 1429              		.section	.text.osSemaphoreRelease,"ax",%progbits
 1430              		.align	1
 1431              		.global	osSemaphoreRelease
 1432              		.syntax unified
 1433              		.thumb
 1434              		.thumb_func
 1435              		.fpu softvfp
 1437              	osSemaphoreRelease:
 1438              	.LVL97:
 1439              	.LFB74:
 812:Middlewares/Third_Party/FreeRTOS/Source/CMSIS_RTOS/cmsis_os.c **** 
 813:Middlewares/Third_Party/FreeRTOS/Source/CMSIS_RTOS/cmsis_os.c **** /**
 814:Middlewares/Third_Party/FreeRTOS/Source/CMSIS_RTOS/cmsis_os.c **** * @brief Release a Semaphore token
 815:Middlewares/Third_Party/FreeRTOS/Source/CMSIS_RTOS/cmsis_os.c **** * @param  semaphore_id  semaphore object referenced with \ref osSemaphore.
 816:Middlewares/Third_Party/FreeRTOS/Source/CMSIS_RTOS/cmsis_os.c **** * @retval  status code that indicates the execution status of the function.
 817:Middlewares/Third_Party/FreeRTOS/Source/CMSIS_RTOS/cmsis_os.c **** * @note   MUST REMAIN UNCHANGED: \b osSemaphoreRelease shall be consistent in every CMSIS-RTOS.
 818:Middlewares/Third_Party/FreeRTOS/Source/CMSIS_RTOS/cmsis_os.c **** */
 819:Middlewares/Third_Party/FreeRTOS/Source/CMSIS_RTOS/cmsis_os.c **** osStatus osSemaphoreRelease (osSemaphoreId semaphore_id)
 820:Middlewares/Third_Party/FreeRTOS/Source/CMSIS_RTOS/cmsis_os.c **** {
 1440              		.loc 1 820 1 is_stmt 1 view -0
 1441              		.cfi_startproc
 1442              		@ args = 0, pretend = 0, frame = 8
 1443              		@ frame_needed = 0, uses_anonymous_args = 0
 1444              		.loc 1 820 1 is_stmt 0 view .LVU315
 1445 0000 10B5     		push	{r4, lr}
 1446              	.LCFI35:
 1447              		.cfi_def_cfa_offset 8
 1448              		.cfi_offset 4, -8
 1449              		.cfi_offset 14, -4
 1450 0002 82B0     		sub	sp, sp, #8
 1451              	.LCFI36:
 1452              		.cfi_def_cfa_offset 16
 1453 0004 0446     		mov	r4, r0
 821:Middlewares/Third_Party/FreeRTOS/Source/CMSIS_RTOS/cmsis_os.c ****   osStatus result = osOK;
 1454              		.loc 1 821 3 is_stmt 1 view .LVU316
 1455              	.LVL98:
 822:Middlewares/Third_Party/FreeRTOS/Source/CMSIS_RTOS/cmsis_os.c ****   portBASE_TYPE taskWoken = pdFALSE;
 1456              		.loc 1 822 3 view .LVU317
 1457              		.loc 1 822 17 is_stmt 0 view .LVU318
 1458 0006 0023     		movs	r3, #0
 1459 0008 0193     		str	r3, [sp, #4]
 823:Middlewares/Third_Party/FreeRTOS/Source/CMSIS_RTOS/cmsis_os.c ****   
 824:Middlewares/Third_Party/FreeRTOS/Source/CMSIS_RTOS/cmsis_os.c ****   
 825:Middlewares/Third_Party/FreeRTOS/Source/CMSIS_RTOS/cmsis_os.c ****   if (inHandlerMode()) {
ARM GAS  C:\Users\User\AppData\Local\Temp\ccTFByJK.s 			page 45


 1460              		.loc 1 825 3 is_stmt 1 view .LVU319
 1461              		.loc 1 825 7 is_stmt 0 view .LVU320
 1462 000a FFF7FEFF 		bl	inHandlerMode
 1463              	.LVL99:
 1464              		.loc 1 825 6 view .LVU321
 1465 000e 88B1     		cbz	r0, .L110
 826:Middlewares/Third_Party/FreeRTOS/Source/CMSIS_RTOS/cmsis_os.c ****     if (xSemaphoreGiveFromISR(semaphore_id, &taskWoken) != pdTRUE) {
 1466              		.loc 1 826 5 is_stmt 1 view .LVU322
 1467              		.loc 1 826 9 is_stmt 0 view .LVU323
 1468 0010 01A9     		add	r1, sp, #4
 1469 0012 2046     		mov	r0, r4
 1470 0014 FFF7FEFF 		bl	xQueueGiveFromISR
 1471              	.LVL100:
 1472              		.loc 1 826 8 view .LVU324
 1473 0018 0128     		cmp	r0, #1
 1474 001a 18D1     		bne	.L112
 827:Middlewares/Third_Party/FreeRTOS/Source/CMSIS_RTOS/cmsis_os.c ****       return osErrorOS;
 828:Middlewares/Third_Party/FreeRTOS/Source/CMSIS_RTOS/cmsis_os.c ****     }
 829:Middlewares/Third_Party/FreeRTOS/Source/CMSIS_RTOS/cmsis_os.c ****     portEND_SWITCHING_ISR(taskWoken);
 1475              		.loc 1 829 5 is_stmt 1 view .LVU325
 1476 001c 019B     		ldr	r3, [sp, #4]
 1477 001e C3B1     		cbz	r3, .L113
 1478              		.loc 1 829 5 discriminator 1 view .LVU326
 1479 0020 0D4B     		ldr	r3, .L117
 1480 0022 4FF08052 		mov	r2, #268435456
 1481 0026 1A60     		str	r2, [r3]
 1482              		.loc 1 829 5 discriminator 1 view .LVU327
 1483              		.syntax unified
 1484              	@ 829 "Middlewares/Third_Party/FreeRTOS/Source/CMSIS_RTOS/cmsis_os.c" 1
 1485 0028 BFF34F8F 		dsb
 1486              	@ 0 "" 2
 1487              		.loc 1 829 5 discriminator 1 view .LVU328
 1488              	@ 829 "Middlewares/Third_Party/FreeRTOS/Source/CMSIS_RTOS/cmsis_os.c" 1
 1489 002c BFF36F8F 		isb
 1490              	@ 0 "" 2
 821:Middlewares/Third_Party/FreeRTOS/Source/CMSIS_RTOS/cmsis_os.c ****   portBASE_TYPE taskWoken = pdFALSE;
 1491              		.loc 1 821 12 is_stmt 0 discriminator 1 view .LVU329
 1492              		.thumb
 1493              		.syntax unified
 1494 0030 0020     		movs	r0, #0
 1495 0032 08E0     		b	.L109
 1496              	.L110:
 830:Middlewares/Third_Party/FreeRTOS/Source/CMSIS_RTOS/cmsis_os.c ****   }
 831:Middlewares/Third_Party/FreeRTOS/Source/CMSIS_RTOS/cmsis_os.c ****   else {
 832:Middlewares/Third_Party/FreeRTOS/Source/CMSIS_RTOS/cmsis_os.c ****     if (xSemaphoreGive(semaphore_id) != pdTRUE) {
 1497              		.loc 1 832 5 is_stmt 1 view .LVU330
 1498              		.loc 1 832 9 is_stmt 0 view .LVU331
 1499 0034 0023     		movs	r3, #0
 1500 0036 1A46     		mov	r2, r3
 1501 0038 1946     		mov	r1, r3
 1502 003a 2046     		mov	r0, r4
 1503 003c FFF7FEFF 		bl	xQueueGenericSend
 1504              	.LVL101:
 1505              		.loc 1 832 8 view .LVU332
 1506 0040 0128     		cmp	r0, #1
 1507 0042 02D0     		beq	.L116
 833:Middlewares/Third_Party/FreeRTOS/Source/CMSIS_RTOS/cmsis_os.c ****       result = osErrorOS;
ARM GAS  C:\Users\User\AppData\Local\Temp\ccTFByJK.s 			page 46


 1508              		.loc 1 833 14 view .LVU333
 1509 0044 FF20     		movs	r0, #255
 1510              	.L109:
 834:Middlewares/Third_Party/FreeRTOS/Source/CMSIS_RTOS/cmsis_os.c ****     }
 835:Middlewares/Third_Party/FreeRTOS/Source/CMSIS_RTOS/cmsis_os.c ****   }
 836:Middlewares/Third_Party/FreeRTOS/Source/CMSIS_RTOS/cmsis_os.c ****   
 837:Middlewares/Third_Party/FreeRTOS/Source/CMSIS_RTOS/cmsis_os.c ****   return result;
 838:Middlewares/Third_Party/FreeRTOS/Source/CMSIS_RTOS/cmsis_os.c **** }
 1511              		.loc 1 838 1 view .LVU334
 1512 0046 02B0     		add	sp, sp, #8
 1513              	.LCFI37:
 1514              		.cfi_remember_state
 1515              		.cfi_def_cfa_offset 8
 1516              		@ sp needed
 1517 0048 10BD     		pop	{r4, pc}
 1518              	.LVL102:
 1519              	.L116:
 1520              	.LCFI38:
 1521              		.cfi_restore_state
 821:Middlewares/Third_Party/FreeRTOS/Source/CMSIS_RTOS/cmsis_os.c ****   portBASE_TYPE taskWoken = pdFALSE;
 1522              		.loc 1 821 12 view .LVU335
 1523 004a 0020     		movs	r0, #0
 1524 004c FBE7     		b	.L109
 1525              	.L112:
 827:Middlewares/Third_Party/FreeRTOS/Source/CMSIS_RTOS/cmsis_os.c ****     }
 1526              		.loc 1 827 14 view .LVU336
 1527 004e FF20     		movs	r0, #255
 1528 0050 F9E7     		b	.L109
 1529              	.L113:
 821:Middlewares/Third_Party/FreeRTOS/Source/CMSIS_RTOS/cmsis_os.c ****   portBASE_TYPE taskWoken = pdFALSE;
 1530              		.loc 1 821 12 view .LVU337
 1531 0052 0020     		movs	r0, #0
 1532 0054 F7E7     		b	.L109
 1533              	.L118:
 1534 0056 00BF     		.align	2
 1535              	.L117:
 1536 0058 04ED00E0 		.word	-536810236
 1537              		.cfi_endproc
 1538              	.LFE74:
 1540              		.section	.text.osSemaphoreDelete,"ax",%progbits
 1541              		.align	1
 1542              		.global	osSemaphoreDelete
 1543              		.syntax unified
 1544              		.thumb
 1545              		.thumb_func
 1546              		.fpu softvfp
 1548              	osSemaphoreDelete:
 1549              	.LVL103:
 1550              	.LFB75:
 839:Middlewares/Third_Party/FreeRTOS/Source/CMSIS_RTOS/cmsis_os.c **** 
 840:Middlewares/Third_Party/FreeRTOS/Source/CMSIS_RTOS/cmsis_os.c **** /**
 841:Middlewares/Third_Party/FreeRTOS/Source/CMSIS_RTOS/cmsis_os.c **** * @brief Delete a Semaphore
 842:Middlewares/Third_Party/FreeRTOS/Source/CMSIS_RTOS/cmsis_os.c **** * @param  semaphore_id  semaphore object referenced with \ref osSemaphore.
 843:Middlewares/Third_Party/FreeRTOS/Source/CMSIS_RTOS/cmsis_os.c **** * @retval  status code that indicates the execution status of the function.
 844:Middlewares/Third_Party/FreeRTOS/Source/CMSIS_RTOS/cmsis_os.c **** * @note   MUST REMAIN UNCHANGED: \b osSemaphoreDelete shall be consistent in every CMSIS-RTOS.
 845:Middlewares/Third_Party/FreeRTOS/Source/CMSIS_RTOS/cmsis_os.c **** */
 846:Middlewares/Third_Party/FreeRTOS/Source/CMSIS_RTOS/cmsis_os.c **** osStatus osSemaphoreDelete (osSemaphoreId semaphore_id)
ARM GAS  C:\Users\User\AppData\Local\Temp\ccTFByJK.s 			page 47


 847:Middlewares/Third_Party/FreeRTOS/Source/CMSIS_RTOS/cmsis_os.c **** {
 1551              		.loc 1 847 1 is_stmt 1 view -0
 1552              		.cfi_startproc
 1553              		@ args = 0, pretend = 0, frame = 0
 1554              		@ frame_needed = 0, uses_anonymous_args = 0
 1555              		.loc 1 847 1 is_stmt 0 view .LVU339
 1556 0000 10B5     		push	{r4, lr}
 1557              	.LCFI39:
 1558              		.cfi_def_cfa_offset 8
 1559              		.cfi_offset 4, -8
 1560              		.cfi_offset 14, -4
 1561 0002 0446     		mov	r4, r0
 848:Middlewares/Third_Party/FreeRTOS/Source/CMSIS_RTOS/cmsis_os.c ****   if (inHandlerMode()) {
 1562              		.loc 1 848 3 is_stmt 1 view .LVU340
 1563              		.loc 1 848 7 is_stmt 0 view .LVU341
 1564 0004 FFF7FEFF 		bl	inHandlerMode
 1565              	.LVL104:
 1566              		.loc 1 848 6 view .LVU342
 1567 0008 20B9     		cbnz	r0, .L121
 849:Middlewares/Third_Party/FreeRTOS/Source/CMSIS_RTOS/cmsis_os.c ****     return osErrorISR;
 850:Middlewares/Third_Party/FreeRTOS/Source/CMSIS_RTOS/cmsis_os.c ****   }
 851:Middlewares/Third_Party/FreeRTOS/Source/CMSIS_RTOS/cmsis_os.c **** 
 852:Middlewares/Third_Party/FreeRTOS/Source/CMSIS_RTOS/cmsis_os.c ****   vSemaphoreDelete(semaphore_id);
 1568              		.loc 1 852 3 is_stmt 1 view .LVU343
 1569 000a 2046     		mov	r0, r4
 1570 000c FFF7FEFF 		bl	vQueueDelete
 1571              	.LVL105:
 853:Middlewares/Third_Party/FreeRTOS/Source/CMSIS_RTOS/cmsis_os.c **** 
 854:Middlewares/Third_Party/FreeRTOS/Source/CMSIS_RTOS/cmsis_os.c ****   return osOK; 
 1572              		.loc 1 854 3 view .LVU344
 1573              		.loc 1 854 10 is_stmt 0 view .LVU345
 1574 0010 0020     		movs	r0, #0
 1575              	.L119:
 855:Middlewares/Third_Party/FreeRTOS/Source/CMSIS_RTOS/cmsis_os.c **** }
 1576              		.loc 1 855 1 view .LVU346
 1577 0012 10BD     		pop	{r4, pc}
 1578              	.LVL106:
 1579              	.L121:
 849:Middlewares/Third_Party/FreeRTOS/Source/CMSIS_RTOS/cmsis_os.c ****     return osErrorISR;
 1580              		.loc 1 849 12 view .LVU347
 1581 0014 8220     		movs	r0, #130
 1582 0016 FCE7     		b	.L119
 1583              		.cfi_endproc
 1584              	.LFE75:
 1586              		.section	.text.osPoolCreate,"ax",%progbits
 1587              		.align	1
 1588              		.global	osPoolCreate
 1589              		.syntax unified
 1590              		.thumb
 1591              		.thumb_func
 1592              		.fpu softvfp
 1594              	osPoolCreate:
 1595              	.LVL107:
 1596              	.LFB76:
 856:Middlewares/Third_Party/FreeRTOS/Source/CMSIS_RTOS/cmsis_os.c **** 
 857:Middlewares/Third_Party/FreeRTOS/Source/CMSIS_RTOS/cmsis_os.c **** #endif    /* Use Semaphores */
 858:Middlewares/Third_Party/FreeRTOS/Source/CMSIS_RTOS/cmsis_os.c **** 
ARM GAS  C:\Users\User\AppData\Local\Temp\ccTFByJK.s 			page 48


 859:Middlewares/Third_Party/FreeRTOS/Source/CMSIS_RTOS/cmsis_os.c **** /*******************   Memory Pool Management Functions  ***********************/
 860:Middlewares/Third_Party/FreeRTOS/Source/CMSIS_RTOS/cmsis_os.c **** 
 861:Middlewares/Third_Party/FreeRTOS/Source/CMSIS_RTOS/cmsis_os.c **** #if (defined (osFeature_Pool)  &&  (osFeature_Pool != 0)) 
 862:Middlewares/Third_Party/FreeRTOS/Source/CMSIS_RTOS/cmsis_os.c **** 
 863:Middlewares/Third_Party/FreeRTOS/Source/CMSIS_RTOS/cmsis_os.c **** //TODO
 864:Middlewares/Third_Party/FreeRTOS/Source/CMSIS_RTOS/cmsis_os.c **** //This is a primitive and inefficient wrapper around the existing FreeRTOS memory management.
 865:Middlewares/Third_Party/FreeRTOS/Source/CMSIS_RTOS/cmsis_os.c **** //A better implementation will have to modify heap_x.c!
 866:Middlewares/Third_Party/FreeRTOS/Source/CMSIS_RTOS/cmsis_os.c **** 
 867:Middlewares/Third_Party/FreeRTOS/Source/CMSIS_RTOS/cmsis_os.c **** 
 868:Middlewares/Third_Party/FreeRTOS/Source/CMSIS_RTOS/cmsis_os.c **** typedef struct os_pool_cb {
 869:Middlewares/Third_Party/FreeRTOS/Source/CMSIS_RTOS/cmsis_os.c ****   void *pool;
 870:Middlewares/Third_Party/FreeRTOS/Source/CMSIS_RTOS/cmsis_os.c ****   uint8_t *markers;
 871:Middlewares/Third_Party/FreeRTOS/Source/CMSIS_RTOS/cmsis_os.c ****   uint32_t pool_sz;
 872:Middlewares/Third_Party/FreeRTOS/Source/CMSIS_RTOS/cmsis_os.c ****   uint32_t item_sz;
 873:Middlewares/Third_Party/FreeRTOS/Source/CMSIS_RTOS/cmsis_os.c ****   uint32_t currentIndex;
 874:Middlewares/Third_Party/FreeRTOS/Source/CMSIS_RTOS/cmsis_os.c **** } os_pool_cb_t;
 875:Middlewares/Third_Party/FreeRTOS/Source/CMSIS_RTOS/cmsis_os.c **** 
 876:Middlewares/Third_Party/FreeRTOS/Source/CMSIS_RTOS/cmsis_os.c **** 
 877:Middlewares/Third_Party/FreeRTOS/Source/CMSIS_RTOS/cmsis_os.c **** /**
 878:Middlewares/Third_Party/FreeRTOS/Source/CMSIS_RTOS/cmsis_os.c **** * @brief Create and Initialize a memory pool
 879:Middlewares/Third_Party/FreeRTOS/Source/CMSIS_RTOS/cmsis_os.c **** * @param  pool_def      memory pool definition referenced with \ref osPool.
 880:Middlewares/Third_Party/FreeRTOS/Source/CMSIS_RTOS/cmsis_os.c **** * @retval  memory pool ID for reference by other functions or NULL in case of error.
 881:Middlewares/Third_Party/FreeRTOS/Source/CMSIS_RTOS/cmsis_os.c **** * @note   MUST REMAIN UNCHANGED: \b osPoolCreate shall be consistent in every CMSIS-RTOS.
 882:Middlewares/Third_Party/FreeRTOS/Source/CMSIS_RTOS/cmsis_os.c **** */
 883:Middlewares/Third_Party/FreeRTOS/Source/CMSIS_RTOS/cmsis_os.c **** osPoolId osPoolCreate (const osPoolDef_t *pool_def)
 884:Middlewares/Third_Party/FreeRTOS/Source/CMSIS_RTOS/cmsis_os.c **** {
 1597              		.loc 1 884 1 is_stmt 1 view -0
 1598              		.cfi_startproc
 1599              		@ args = 0, pretend = 0, frame = 0
 1600              		@ frame_needed = 0, uses_anonymous_args = 0
 1601              		.loc 1 884 1 is_stmt 0 view .LVU349
 1602 0000 70B5     		push	{r4, r5, r6, lr}
 1603              	.LCFI40:
 1604              		.cfi_def_cfa_offset 16
 1605              		.cfi_offset 4, -16
 1606              		.cfi_offset 5, -12
 1607              		.cfi_offset 6, -8
 1608              		.cfi_offset 14, -4
 1609 0002 0546     		mov	r5, r0
 885:Middlewares/Third_Party/FreeRTOS/Source/CMSIS_RTOS/cmsis_os.c **** #if (configSUPPORT_DYNAMIC_ALLOCATION == 1)
 886:Middlewares/Third_Party/FreeRTOS/Source/CMSIS_RTOS/cmsis_os.c ****   osPoolId thePool;
 1610              		.loc 1 886 3 is_stmt 1 view .LVU350
 887:Middlewares/Third_Party/FreeRTOS/Source/CMSIS_RTOS/cmsis_os.c ****   int itemSize = 4 * ((pool_def->item_sz + 3) / 4);
 1611              		.loc 1 887 3 view .LVU351
 1612              		.loc 1 887 32 is_stmt 0 view .LVU352
 1613 0004 4368     		ldr	r3, [r0, #4]
 1614              		.loc 1 887 42 view .LVU353
 1615 0006 0333     		adds	r3, r3, #3
 1616              		.loc 1 887 7 view .LVU354
 1617 0008 23F00306 		bic	r6, r3, #3
 1618              	.LVL108:
 888:Middlewares/Third_Party/FreeRTOS/Source/CMSIS_RTOS/cmsis_os.c ****   uint32_t i;
 1619              		.loc 1 888 3 is_stmt 1 view .LVU355
 889:Middlewares/Third_Party/FreeRTOS/Source/CMSIS_RTOS/cmsis_os.c ****   
 890:Middlewares/Third_Party/FreeRTOS/Source/CMSIS_RTOS/cmsis_os.c ****   /* First have to allocate memory for the pool control block. */
 891:Middlewares/Third_Party/FreeRTOS/Source/CMSIS_RTOS/cmsis_os.c ****  thePool = pvPortMalloc(sizeof(os_pool_cb_t));
 1620              		.loc 1 891 2 view .LVU356
ARM GAS  C:\Users\User\AppData\Local\Temp\ccTFByJK.s 			page 49


 1621              		.loc 1 891 12 is_stmt 0 view .LVU357
 1622 000c 1420     		movs	r0, #20
 1623              	.LVL109:
 1624              		.loc 1 891 12 view .LVU358
 1625 000e FFF7FEFF 		bl	pvPortMalloc
 1626              	.LVL110:
 892:Middlewares/Third_Party/FreeRTOS/Source/CMSIS_RTOS/cmsis_os.c **** 
 893:Middlewares/Third_Party/FreeRTOS/Source/CMSIS_RTOS/cmsis_os.c ****   
 894:Middlewares/Third_Party/FreeRTOS/Source/CMSIS_RTOS/cmsis_os.c ****   if (thePool) {
 1627              		.loc 1 894 3 is_stmt 1 view .LVU359
 1628              		.loc 1 894 6 is_stmt 0 view .LVU360
 1629 0012 0446     		mov	r4, r0
 1630 0014 28B3     		cbz	r0, .L123
 895:Middlewares/Third_Party/FreeRTOS/Source/CMSIS_RTOS/cmsis_os.c ****     thePool->pool_sz = pool_def->pool_sz;
 1631              		.loc 1 895 5 is_stmt 1 view .LVU361
 1632              		.loc 1 895 32 is_stmt 0 view .LVU362
 1633 0016 2B68     		ldr	r3, [r5]
 1634              		.loc 1 895 22 view .LVU363
 1635 0018 8360     		str	r3, [r0, #8]
 896:Middlewares/Third_Party/FreeRTOS/Source/CMSIS_RTOS/cmsis_os.c ****     thePool->item_sz = itemSize;
 1636              		.loc 1 896 5 is_stmt 1 view .LVU364
 1637              		.loc 1 896 22 is_stmt 0 view .LVU365
 1638 001a C660     		str	r6, [r0, #12]
 897:Middlewares/Third_Party/FreeRTOS/Source/CMSIS_RTOS/cmsis_os.c ****     thePool->currentIndex = 0;
 1639              		.loc 1 897 5 is_stmt 1 view .LVU366
 1640              		.loc 1 897 27 is_stmt 0 view .LVU367
 1641 001c 0023     		movs	r3, #0
 1642 001e 0361     		str	r3, [r0, #16]
 898:Middlewares/Third_Party/FreeRTOS/Source/CMSIS_RTOS/cmsis_os.c ****     
 899:Middlewares/Third_Party/FreeRTOS/Source/CMSIS_RTOS/cmsis_os.c ****     /* Memory for markers */
 900:Middlewares/Third_Party/FreeRTOS/Source/CMSIS_RTOS/cmsis_os.c ****     thePool->markers = pvPortMalloc(pool_def->pool_sz);
 1643              		.loc 1 900 5 is_stmt 1 view .LVU368
 1644              		.loc 1 900 24 is_stmt 0 view .LVU369
 1645 0020 2868     		ldr	r0, [r5]
 1646              	.LVL111:
 1647              		.loc 1 900 24 view .LVU370
 1648 0022 FFF7FEFF 		bl	pvPortMalloc
 1649              	.LVL112:
 1650              		.loc 1 900 22 view .LVU371
 1651 0026 6060     		str	r0, [r4, #4]
 901:Middlewares/Third_Party/FreeRTOS/Source/CMSIS_RTOS/cmsis_os.c ****    
 902:Middlewares/Third_Party/FreeRTOS/Source/CMSIS_RTOS/cmsis_os.c ****     if (thePool->markers) {
 1652              		.loc 1 902 5 is_stmt 1 view .LVU372
 1653              		.loc 1 902 8 is_stmt 0 view .LVU373
 1654 0028 B8B1     		cbz	r0, .L125
 903:Middlewares/Third_Party/FreeRTOS/Source/CMSIS_RTOS/cmsis_os.c ****       /* Now allocate the pool itself. */
 904:Middlewares/Third_Party/FreeRTOS/Source/CMSIS_RTOS/cmsis_os.c ****      thePool->pool = pvPortMalloc(pool_def->pool_sz * itemSize);
 1655              		.loc 1 904 6 is_stmt 1 view .LVU374
 1656              		.loc 1 904 43 is_stmt 0 view .LVU375
 1657 002a 2868     		ldr	r0, [r5]
 1658              		.loc 1 904 22 view .LVU376
 1659 002c 00FB06F0 		mul	r0, r0, r6
 1660 0030 FFF7FEFF 		bl	pvPortMalloc
 1661              	.LVL113:
 1662              		.loc 1 904 20 view .LVU377
 1663 0034 2060     		str	r0, [r4]
 905:Middlewares/Third_Party/FreeRTOS/Source/CMSIS_RTOS/cmsis_os.c ****       
ARM GAS  C:\Users\User\AppData\Local\Temp\ccTFByJK.s 			page 50


 906:Middlewares/Third_Party/FreeRTOS/Source/CMSIS_RTOS/cmsis_os.c ****       if (thePool->pool) {
 1664              		.loc 1 906 7 is_stmt 1 view .LVU378
 1665              		.loc 1 906 10 is_stmt 0 view .LVU379
 1666 0036 40B1     		cbz	r0, .L132
 907:Middlewares/Third_Party/FreeRTOS/Source/CMSIS_RTOS/cmsis_os.c ****         for (i = 0; i < pool_def->pool_sz; i++) {
 1667              		.loc 1 907 16 view .LVU380
 1668 0038 0023     		movs	r3, #0
 1669              	.L126:
 1670              	.LVL114:
 1671              		.loc 1 907 33 discriminator 1 view .LVU381
 1672 003a 2A68     		ldr	r2, [r5]
 1673              		.loc 1 907 9 discriminator 1 view .LVU382
 1674 003c 9A42     		cmp	r2, r3
 1675 003e 10D9     		bls	.L123
 908:Middlewares/Third_Party/FreeRTOS/Source/CMSIS_RTOS/cmsis_os.c ****           thePool->markers[i] = 0;
 1676              		.loc 1 908 11 is_stmt 1 discriminator 3 view .LVU383
 1677              		.loc 1 908 18 is_stmt 0 discriminator 3 view .LVU384
 1678 0040 6268     		ldr	r2, [r4, #4]
 1679              		.loc 1 908 31 discriminator 3 view .LVU385
 1680 0042 0021     		movs	r1, #0
 1681 0044 D154     		strb	r1, [r2, r3]
 907:Middlewares/Third_Party/FreeRTOS/Source/CMSIS_RTOS/cmsis_os.c ****         for (i = 0; i < pool_def->pool_sz; i++) {
 1682              		.loc 1 907 45 discriminator 3 view .LVU386
 1683 0046 0133     		adds	r3, r3, #1
 1684              	.LVL115:
 907:Middlewares/Third_Party/FreeRTOS/Source/CMSIS_RTOS/cmsis_os.c ****         for (i = 0; i < pool_def->pool_sz; i++) {
 1685              		.loc 1 907 45 discriminator 3 view .LVU387
 1686 0048 F7E7     		b	.L126
 1687              	.LVL116:
 1688              	.L132:
 909:Middlewares/Third_Party/FreeRTOS/Source/CMSIS_RTOS/cmsis_os.c ****         }
 910:Middlewares/Third_Party/FreeRTOS/Source/CMSIS_RTOS/cmsis_os.c ****       }
 911:Middlewares/Third_Party/FreeRTOS/Source/CMSIS_RTOS/cmsis_os.c ****       else {
 912:Middlewares/Third_Party/FreeRTOS/Source/CMSIS_RTOS/cmsis_os.c ****         vPortFree(thePool->markers);
 1689              		.loc 1 912 9 is_stmt 1 view .LVU388
 1690 004a 6068     		ldr	r0, [r4, #4]
 1691 004c FFF7FEFF 		bl	vPortFree
 1692              	.LVL117:
 913:Middlewares/Third_Party/FreeRTOS/Source/CMSIS_RTOS/cmsis_os.c ****         vPortFree(thePool);
 1693              		.loc 1 913 9 view .LVU389
 1694 0050 2046     		mov	r0, r4
 1695 0052 FFF7FEFF 		bl	vPortFree
 1696              	.LVL118:
 914:Middlewares/Third_Party/FreeRTOS/Source/CMSIS_RTOS/cmsis_os.c ****         thePool = NULL;
 1697              		.loc 1 914 9 view .LVU390
 1698              		.loc 1 914 17 is_stmt 0 view .LVU391
 1699 0056 0024     		movs	r4, #0
 1700 0058 03E0     		b	.L123
 1701              	.LVL119:
 1702              	.L125:
 915:Middlewares/Third_Party/FreeRTOS/Source/CMSIS_RTOS/cmsis_os.c ****       }
 916:Middlewares/Third_Party/FreeRTOS/Source/CMSIS_RTOS/cmsis_os.c ****     }
 917:Middlewares/Third_Party/FreeRTOS/Source/CMSIS_RTOS/cmsis_os.c ****     else {
 918:Middlewares/Third_Party/FreeRTOS/Source/CMSIS_RTOS/cmsis_os.c ****       vPortFree(thePool);
 1703              		.loc 1 918 7 is_stmt 1 view .LVU392
 1704 005a 2046     		mov	r0, r4
 1705 005c FFF7FEFF 		bl	vPortFree
ARM GAS  C:\Users\User\AppData\Local\Temp\ccTFByJK.s 			page 51


 1706              	.LVL120:
 919:Middlewares/Third_Party/FreeRTOS/Source/CMSIS_RTOS/cmsis_os.c ****       thePool = NULL;
 1707              		.loc 1 919 7 view .LVU393
 1708              		.loc 1 919 15 is_stmt 0 view .LVU394
 1709 0060 0024     		movs	r4, #0
 920:Middlewares/Third_Party/FreeRTOS/Source/CMSIS_RTOS/cmsis_os.c ****     }
 921:Middlewares/Third_Party/FreeRTOS/Source/CMSIS_RTOS/cmsis_os.c ****   }
 922:Middlewares/Third_Party/FreeRTOS/Source/CMSIS_RTOS/cmsis_os.c **** 
 923:Middlewares/Third_Party/FreeRTOS/Source/CMSIS_RTOS/cmsis_os.c ****   return thePool;
 1710              		.loc 1 923 3 is_stmt 1 view .LVU395
 1711              	.LVL121:
 1712              	.L123:
 924:Middlewares/Third_Party/FreeRTOS/Source/CMSIS_RTOS/cmsis_os.c ****  
 925:Middlewares/Third_Party/FreeRTOS/Source/CMSIS_RTOS/cmsis_os.c **** #else
 926:Middlewares/Third_Party/FreeRTOS/Source/CMSIS_RTOS/cmsis_os.c ****   return NULL;
 927:Middlewares/Third_Party/FreeRTOS/Source/CMSIS_RTOS/cmsis_os.c **** #endif
 928:Middlewares/Third_Party/FreeRTOS/Source/CMSIS_RTOS/cmsis_os.c **** }
 1713              		.loc 1 928 1 is_stmt 0 view .LVU396
 1714 0062 2046     		mov	r0, r4
 1715 0064 70BD     		pop	{r4, r5, r6, pc}
 1716              		.loc 1 928 1 view .LVU397
 1717              		.cfi_endproc
 1718              	.LFE76:
 1720              		.section	.text.osPoolAlloc,"ax",%progbits
 1721              		.align	1
 1722              		.global	osPoolAlloc
 1723              		.syntax unified
 1724              		.thumb
 1725              		.thumb_func
 1726              		.fpu softvfp
 1728              	osPoolAlloc:
 1729              	.LVL122:
 1730              	.LFB77:
 929:Middlewares/Third_Party/FreeRTOS/Source/CMSIS_RTOS/cmsis_os.c **** 
 930:Middlewares/Third_Party/FreeRTOS/Source/CMSIS_RTOS/cmsis_os.c **** /**
 931:Middlewares/Third_Party/FreeRTOS/Source/CMSIS_RTOS/cmsis_os.c **** * @brief Allocate a memory block from a memory pool
 932:Middlewares/Third_Party/FreeRTOS/Source/CMSIS_RTOS/cmsis_os.c **** * @param pool_id       memory pool ID obtain referenced with \ref osPoolCreate.
 933:Middlewares/Third_Party/FreeRTOS/Source/CMSIS_RTOS/cmsis_os.c **** * @retval  address of the allocated memory block or NULL in case of no memory available.
 934:Middlewares/Third_Party/FreeRTOS/Source/CMSIS_RTOS/cmsis_os.c **** * @note   MUST REMAIN UNCHANGED: \b osPoolAlloc shall be consistent in every CMSIS-RTOS.
 935:Middlewares/Third_Party/FreeRTOS/Source/CMSIS_RTOS/cmsis_os.c **** */
 936:Middlewares/Third_Party/FreeRTOS/Source/CMSIS_RTOS/cmsis_os.c **** void *osPoolAlloc (osPoolId pool_id)
 937:Middlewares/Third_Party/FreeRTOS/Source/CMSIS_RTOS/cmsis_os.c **** {
 1731              		.loc 1 937 1 is_stmt 1 view -0
 1732              		.cfi_startproc
 1733              		@ args = 0, pretend = 0, frame = 0
 1734              		@ frame_needed = 0, uses_anonymous_args = 0
 1735              		.loc 1 937 1 is_stmt 0 view .LVU399
 1736 0000 70B5     		push	{r4, r5, r6, lr}
 1737              	.LCFI41:
 1738              		.cfi_def_cfa_offset 16
 1739              		.cfi_offset 4, -16
 1740              		.cfi_offset 5, -12
 1741              		.cfi_offset 6, -8
 1742              		.cfi_offset 14, -4
 1743 0002 0446     		mov	r4, r0
 938:Middlewares/Third_Party/FreeRTOS/Source/CMSIS_RTOS/cmsis_os.c ****   int dummy = 0;
 1744              		.loc 1 938 3 is_stmt 1 view .LVU400
ARM GAS  C:\Users\User\AppData\Local\Temp\ccTFByJK.s 			page 52


 1745              	.LVL123:
 939:Middlewares/Third_Party/FreeRTOS/Source/CMSIS_RTOS/cmsis_os.c ****   void *p = NULL;
 1746              		.loc 1 939 3 view .LVU401
 940:Middlewares/Third_Party/FreeRTOS/Source/CMSIS_RTOS/cmsis_os.c ****   uint32_t i;
 1747              		.loc 1 940 3 view .LVU402
 941:Middlewares/Third_Party/FreeRTOS/Source/CMSIS_RTOS/cmsis_os.c ****   uint32_t index;
 1748              		.loc 1 941 3 view .LVU403
 942:Middlewares/Third_Party/FreeRTOS/Source/CMSIS_RTOS/cmsis_os.c ****   
 943:Middlewares/Third_Party/FreeRTOS/Source/CMSIS_RTOS/cmsis_os.c ****   if (inHandlerMode()) {
 1749              		.loc 1 943 3 view .LVU404
 1750              		.loc 1 943 7 is_stmt 0 view .LVU405
 1751 0004 FFF7FEFF 		bl	inHandlerMode
 1752              	.LVL124:
 1753              		.loc 1 943 6 view .LVU406
 1754 0008 C8B1     		cbz	r0, .L134
 944:Middlewares/Third_Party/FreeRTOS/Source/CMSIS_RTOS/cmsis_os.c ****     dummy = portSET_INTERRUPT_MASK_FROM_ISR();
 1755              		.loc 1 944 5 is_stmt 1 view .LVU407
 1756              	.LBB10:
 1757              	.LBI10:
 1758              		.file 3 "Middlewares/Third_Party/FreeRTOS/Source/portable/GCC/ARM_CM3/portmacro.h"
   1:Middlewares/Third_Party/FreeRTOS/Source/portable/GCC/ARM_CM3/portmacro.h **** /*
   2:Middlewares/Third_Party/FreeRTOS/Source/portable/GCC/ARM_CM3/portmacro.h ****  * FreeRTOS Kernel V10.0.1
   3:Middlewares/Third_Party/FreeRTOS/Source/portable/GCC/ARM_CM3/portmacro.h ****  * Copyright (C) 2017 Amazon.com, Inc. or its affiliates.  All Rights Reserved.
   4:Middlewares/Third_Party/FreeRTOS/Source/portable/GCC/ARM_CM3/portmacro.h ****  *
   5:Middlewares/Third_Party/FreeRTOS/Source/portable/GCC/ARM_CM3/portmacro.h ****  * Permission is hereby granted, free of charge, to any person obtaining a copy of
   6:Middlewares/Third_Party/FreeRTOS/Source/portable/GCC/ARM_CM3/portmacro.h ****  * this software and associated documentation files (the "Software"), to deal in
   7:Middlewares/Third_Party/FreeRTOS/Source/portable/GCC/ARM_CM3/portmacro.h ****  * the Software without restriction, including without limitation the rights to
   8:Middlewares/Third_Party/FreeRTOS/Source/portable/GCC/ARM_CM3/portmacro.h ****  * use, copy, modify, merge, publish, distribute, sublicense, and/or sell copies of
   9:Middlewares/Third_Party/FreeRTOS/Source/portable/GCC/ARM_CM3/portmacro.h ****  * the Software, and to permit persons to whom the Software is furnished to do so,
  10:Middlewares/Third_Party/FreeRTOS/Source/portable/GCC/ARM_CM3/portmacro.h ****  * subject to the following conditions:
  11:Middlewares/Third_Party/FreeRTOS/Source/portable/GCC/ARM_CM3/portmacro.h ****  *
  12:Middlewares/Third_Party/FreeRTOS/Source/portable/GCC/ARM_CM3/portmacro.h ****  * The above copyright notice and this permission notice shall be included in all
  13:Middlewares/Third_Party/FreeRTOS/Source/portable/GCC/ARM_CM3/portmacro.h ****  * copies or substantial portions of the Software.
  14:Middlewares/Third_Party/FreeRTOS/Source/portable/GCC/ARM_CM3/portmacro.h ****  *
  15:Middlewares/Third_Party/FreeRTOS/Source/portable/GCC/ARM_CM3/portmacro.h ****  * THE SOFTWARE IS PROVIDED "AS IS", WITHOUT WARRANTY OF ANY KIND, EXPRESS OR
  16:Middlewares/Third_Party/FreeRTOS/Source/portable/GCC/ARM_CM3/portmacro.h ****  * IMPLIED, INCLUDING BUT NOT LIMITED TO THE WARRANTIES OF MERCHANTABILITY, FITNESS
  17:Middlewares/Third_Party/FreeRTOS/Source/portable/GCC/ARM_CM3/portmacro.h ****  * FOR A PARTICULAR PURPOSE AND NONINFRINGEMENT. IN NO EVENT SHALL THE AUTHORS OR
  18:Middlewares/Third_Party/FreeRTOS/Source/portable/GCC/ARM_CM3/portmacro.h ****  * COPYRIGHT HOLDERS BE LIABLE FOR ANY CLAIM, DAMAGES OR OTHER LIABILITY, WHETHER
  19:Middlewares/Third_Party/FreeRTOS/Source/portable/GCC/ARM_CM3/portmacro.h ****  * IN AN ACTION OF CONTRACT, TORT OR OTHERWISE, ARISING FROM, OUT OF OR IN
  20:Middlewares/Third_Party/FreeRTOS/Source/portable/GCC/ARM_CM3/portmacro.h ****  * CONNECTION WITH THE SOFTWARE OR THE USE OR OTHER DEALINGS IN THE SOFTWARE.
  21:Middlewares/Third_Party/FreeRTOS/Source/portable/GCC/ARM_CM3/portmacro.h ****  *
  22:Middlewares/Third_Party/FreeRTOS/Source/portable/GCC/ARM_CM3/portmacro.h ****  * http://www.FreeRTOS.org
  23:Middlewares/Third_Party/FreeRTOS/Source/portable/GCC/ARM_CM3/portmacro.h ****  * http://aws.amazon.com/freertos
  24:Middlewares/Third_Party/FreeRTOS/Source/portable/GCC/ARM_CM3/portmacro.h ****  *
  25:Middlewares/Third_Party/FreeRTOS/Source/portable/GCC/ARM_CM3/portmacro.h ****  * 1 tab == 4 spaces!
  26:Middlewares/Third_Party/FreeRTOS/Source/portable/GCC/ARM_CM3/portmacro.h ****  */
  27:Middlewares/Third_Party/FreeRTOS/Source/portable/GCC/ARM_CM3/portmacro.h **** 
  28:Middlewares/Third_Party/FreeRTOS/Source/portable/GCC/ARM_CM3/portmacro.h **** 
  29:Middlewares/Third_Party/FreeRTOS/Source/portable/GCC/ARM_CM3/portmacro.h **** #ifndef PORTMACRO_H
  30:Middlewares/Third_Party/FreeRTOS/Source/portable/GCC/ARM_CM3/portmacro.h **** #define PORTMACRO_H
  31:Middlewares/Third_Party/FreeRTOS/Source/portable/GCC/ARM_CM3/portmacro.h **** 
  32:Middlewares/Third_Party/FreeRTOS/Source/portable/GCC/ARM_CM3/portmacro.h **** #ifdef __cplusplus
  33:Middlewares/Third_Party/FreeRTOS/Source/portable/GCC/ARM_CM3/portmacro.h **** extern "C" {
  34:Middlewares/Third_Party/FreeRTOS/Source/portable/GCC/ARM_CM3/portmacro.h **** #endif
  35:Middlewares/Third_Party/FreeRTOS/Source/portable/GCC/ARM_CM3/portmacro.h **** 
  36:Middlewares/Third_Party/FreeRTOS/Source/portable/GCC/ARM_CM3/portmacro.h **** /*-----------------------------------------------------------
  37:Middlewares/Third_Party/FreeRTOS/Source/portable/GCC/ARM_CM3/portmacro.h ****  * Port specific definitions.
ARM GAS  C:\Users\User\AppData\Local\Temp\ccTFByJK.s 			page 53


  38:Middlewares/Third_Party/FreeRTOS/Source/portable/GCC/ARM_CM3/portmacro.h ****  *
  39:Middlewares/Third_Party/FreeRTOS/Source/portable/GCC/ARM_CM3/portmacro.h ****  * The settings in this file configure FreeRTOS correctly for the
  40:Middlewares/Third_Party/FreeRTOS/Source/portable/GCC/ARM_CM3/portmacro.h ****  * given hardware and compiler.
  41:Middlewares/Third_Party/FreeRTOS/Source/portable/GCC/ARM_CM3/portmacro.h ****  *
  42:Middlewares/Third_Party/FreeRTOS/Source/portable/GCC/ARM_CM3/portmacro.h ****  * These settings should not be altered.
  43:Middlewares/Third_Party/FreeRTOS/Source/portable/GCC/ARM_CM3/portmacro.h ****  *-----------------------------------------------------------
  44:Middlewares/Third_Party/FreeRTOS/Source/portable/GCC/ARM_CM3/portmacro.h ****  */
  45:Middlewares/Third_Party/FreeRTOS/Source/portable/GCC/ARM_CM3/portmacro.h **** 
  46:Middlewares/Third_Party/FreeRTOS/Source/portable/GCC/ARM_CM3/portmacro.h **** /* Type definitions. */
  47:Middlewares/Third_Party/FreeRTOS/Source/portable/GCC/ARM_CM3/portmacro.h **** #define portCHAR		char
  48:Middlewares/Third_Party/FreeRTOS/Source/portable/GCC/ARM_CM3/portmacro.h **** #define portFLOAT		float
  49:Middlewares/Third_Party/FreeRTOS/Source/portable/GCC/ARM_CM3/portmacro.h **** #define portDOUBLE		double
  50:Middlewares/Third_Party/FreeRTOS/Source/portable/GCC/ARM_CM3/portmacro.h **** #define portLONG		long
  51:Middlewares/Third_Party/FreeRTOS/Source/portable/GCC/ARM_CM3/portmacro.h **** #define portSHORT		short
  52:Middlewares/Third_Party/FreeRTOS/Source/portable/GCC/ARM_CM3/portmacro.h **** #define portSTACK_TYPE	uint32_t
  53:Middlewares/Third_Party/FreeRTOS/Source/portable/GCC/ARM_CM3/portmacro.h **** #define portBASE_TYPE	long
  54:Middlewares/Third_Party/FreeRTOS/Source/portable/GCC/ARM_CM3/portmacro.h **** 
  55:Middlewares/Third_Party/FreeRTOS/Source/portable/GCC/ARM_CM3/portmacro.h **** typedef portSTACK_TYPE StackType_t;
  56:Middlewares/Third_Party/FreeRTOS/Source/portable/GCC/ARM_CM3/portmacro.h **** typedef long BaseType_t;
  57:Middlewares/Third_Party/FreeRTOS/Source/portable/GCC/ARM_CM3/portmacro.h **** typedef unsigned long UBaseType_t;
  58:Middlewares/Third_Party/FreeRTOS/Source/portable/GCC/ARM_CM3/portmacro.h **** 
  59:Middlewares/Third_Party/FreeRTOS/Source/portable/GCC/ARM_CM3/portmacro.h **** #if( configUSE_16_BIT_TICKS == 1 )
  60:Middlewares/Third_Party/FreeRTOS/Source/portable/GCC/ARM_CM3/portmacro.h **** 	typedef uint16_t TickType_t;
  61:Middlewares/Third_Party/FreeRTOS/Source/portable/GCC/ARM_CM3/portmacro.h **** 	#define portMAX_DELAY ( TickType_t ) 0xffff
  62:Middlewares/Third_Party/FreeRTOS/Source/portable/GCC/ARM_CM3/portmacro.h **** #else
  63:Middlewares/Third_Party/FreeRTOS/Source/portable/GCC/ARM_CM3/portmacro.h **** 	typedef uint32_t TickType_t;
  64:Middlewares/Third_Party/FreeRTOS/Source/portable/GCC/ARM_CM3/portmacro.h **** 	#define portMAX_DELAY ( TickType_t ) 0xffffffffUL
  65:Middlewares/Third_Party/FreeRTOS/Source/portable/GCC/ARM_CM3/portmacro.h **** 
  66:Middlewares/Third_Party/FreeRTOS/Source/portable/GCC/ARM_CM3/portmacro.h **** 	/* 32-bit tick type on a 32-bit architecture, so reads of the tick count do
  67:Middlewares/Third_Party/FreeRTOS/Source/portable/GCC/ARM_CM3/portmacro.h **** 	not need to be guarded with a critical section. */
  68:Middlewares/Third_Party/FreeRTOS/Source/portable/GCC/ARM_CM3/portmacro.h **** 	#define portTICK_TYPE_IS_ATOMIC 1
  69:Middlewares/Third_Party/FreeRTOS/Source/portable/GCC/ARM_CM3/portmacro.h **** #endif
  70:Middlewares/Third_Party/FreeRTOS/Source/portable/GCC/ARM_CM3/portmacro.h **** /*-----------------------------------------------------------*/
  71:Middlewares/Third_Party/FreeRTOS/Source/portable/GCC/ARM_CM3/portmacro.h **** 
  72:Middlewares/Third_Party/FreeRTOS/Source/portable/GCC/ARM_CM3/portmacro.h **** /* Architecture specifics. */
  73:Middlewares/Third_Party/FreeRTOS/Source/portable/GCC/ARM_CM3/portmacro.h **** #define portSTACK_GROWTH			( -1 )
  74:Middlewares/Third_Party/FreeRTOS/Source/portable/GCC/ARM_CM3/portmacro.h **** #define portTICK_PERIOD_MS			( ( TickType_t ) 1000 / configTICK_RATE_HZ )
  75:Middlewares/Third_Party/FreeRTOS/Source/portable/GCC/ARM_CM3/portmacro.h **** #define portBYTE_ALIGNMENT			8
  76:Middlewares/Third_Party/FreeRTOS/Source/portable/GCC/ARM_CM3/portmacro.h **** /*-----------------------------------------------------------*/
  77:Middlewares/Third_Party/FreeRTOS/Source/portable/GCC/ARM_CM3/portmacro.h **** 
  78:Middlewares/Third_Party/FreeRTOS/Source/portable/GCC/ARM_CM3/portmacro.h **** /* Scheduler utilities. */
  79:Middlewares/Third_Party/FreeRTOS/Source/portable/GCC/ARM_CM3/portmacro.h **** #define portYIELD() 															\
  80:Middlewares/Third_Party/FreeRTOS/Source/portable/GCC/ARM_CM3/portmacro.h **** {																				\
  81:Middlewares/Third_Party/FreeRTOS/Source/portable/GCC/ARM_CM3/portmacro.h **** 	/* Set a PendSV to request a context switch. */								\
  82:Middlewares/Third_Party/FreeRTOS/Source/portable/GCC/ARM_CM3/portmacro.h **** 	portNVIC_INT_CTRL_REG = portNVIC_PENDSVSET_BIT;								\
  83:Middlewares/Third_Party/FreeRTOS/Source/portable/GCC/ARM_CM3/portmacro.h **** 																				\
  84:Middlewares/Third_Party/FreeRTOS/Source/portable/GCC/ARM_CM3/portmacro.h **** 	/* Barriers are normally not required but do ensure the code is completely	\
  85:Middlewares/Third_Party/FreeRTOS/Source/portable/GCC/ARM_CM3/portmacro.h **** 	within the specified behaviour for the architecture. */						\
  86:Middlewares/Third_Party/FreeRTOS/Source/portable/GCC/ARM_CM3/portmacro.h **** 	__asm volatile( "dsb" ::: "memory" );										\
  87:Middlewares/Third_Party/FreeRTOS/Source/portable/GCC/ARM_CM3/portmacro.h **** 	__asm volatile( "isb" );													\
  88:Middlewares/Third_Party/FreeRTOS/Source/portable/GCC/ARM_CM3/portmacro.h **** }
  89:Middlewares/Third_Party/FreeRTOS/Source/portable/GCC/ARM_CM3/portmacro.h **** 
  90:Middlewares/Third_Party/FreeRTOS/Source/portable/GCC/ARM_CM3/portmacro.h **** #define portNVIC_INT_CTRL_REG		( * ( ( volatile uint32_t * ) 0xe000ed04 ) )
  91:Middlewares/Third_Party/FreeRTOS/Source/portable/GCC/ARM_CM3/portmacro.h **** #define portNVIC_PENDSVSET_BIT		( 1UL << 28UL )
  92:Middlewares/Third_Party/FreeRTOS/Source/portable/GCC/ARM_CM3/portmacro.h **** #define portEND_SWITCHING_ISR( xSwitchRequired ) if( xSwitchRequired != pdFALSE ) portYIELD()
  93:Middlewares/Third_Party/FreeRTOS/Source/portable/GCC/ARM_CM3/portmacro.h **** #define portYIELD_FROM_ISR( x ) portEND_SWITCHING_ISR( x )
  94:Middlewares/Third_Party/FreeRTOS/Source/portable/GCC/ARM_CM3/portmacro.h **** /*-----------------------------------------------------------*/
ARM GAS  C:\Users\User\AppData\Local\Temp\ccTFByJK.s 			page 54


  95:Middlewares/Third_Party/FreeRTOS/Source/portable/GCC/ARM_CM3/portmacro.h **** 
  96:Middlewares/Third_Party/FreeRTOS/Source/portable/GCC/ARM_CM3/portmacro.h **** /* Critical section management. */
  97:Middlewares/Third_Party/FreeRTOS/Source/portable/GCC/ARM_CM3/portmacro.h **** extern void vPortEnterCritical( void );
  98:Middlewares/Third_Party/FreeRTOS/Source/portable/GCC/ARM_CM3/portmacro.h **** extern void vPortExitCritical( void );
  99:Middlewares/Third_Party/FreeRTOS/Source/portable/GCC/ARM_CM3/portmacro.h **** #define portSET_INTERRUPT_MASK_FROM_ISR()		ulPortRaiseBASEPRI()
 100:Middlewares/Third_Party/FreeRTOS/Source/portable/GCC/ARM_CM3/portmacro.h **** #define portCLEAR_INTERRUPT_MASK_FROM_ISR(x)	vPortSetBASEPRI(x)
 101:Middlewares/Third_Party/FreeRTOS/Source/portable/GCC/ARM_CM3/portmacro.h **** #define portDISABLE_INTERRUPTS()				vPortRaiseBASEPRI()
 102:Middlewares/Third_Party/FreeRTOS/Source/portable/GCC/ARM_CM3/portmacro.h **** #define portENABLE_INTERRUPTS()					vPortSetBASEPRI(0)
 103:Middlewares/Third_Party/FreeRTOS/Source/portable/GCC/ARM_CM3/portmacro.h **** #define portENTER_CRITICAL()					vPortEnterCritical()
 104:Middlewares/Third_Party/FreeRTOS/Source/portable/GCC/ARM_CM3/portmacro.h **** #define portEXIT_CRITICAL()						vPortExitCritical()
 105:Middlewares/Third_Party/FreeRTOS/Source/portable/GCC/ARM_CM3/portmacro.h **** 
 106:Middlewares/Third_Party/FreeRTOS/Source/portable/GCC/ARM_CM3/portmacro.h **** /*-----------------------------------------------------------*/
 107:Middlewares/Third_Party/FreeRTOS/Source/portable/GCC/ARM_CM3/portmacro.h **** 
 108:Middlewares/Third_Party/FreeRTOS/Source/portable/GCC/ARM_CM3/portmacro.h **** /* Task function macros as described on the FreeRTOS.org WEB site.  These are
 109:Middlewares/Third_Party/FreeRTOS/Source/portable/GCC/ARM_CM3/portmacro.h **** not necessary for to use this port.  They are defined so the common demo files
 110:Middlewares/Third_Party/FreeRTOS/Source/portable/GCC/ARM_CM3/portmacro.h **** (which build with all the ports) will build. */
 111:Middlewares/Third_Party/FreeRTOS/Source/portable/GCC/ARM_CM3/portmacro.h **** #define portTASK_FUNCTION_PROTO( vFunction, pvParameters ) void vFunction( void *pvParameters )
 112:Middlewares/Third_Party/FreeRTOS/Source/portable/GCC/ARM_CM3/portmacro.h **** #define portTASK_FUNCTION( vFunction, pvParameters ) void vFunction( void *pvParameters )
 113:Middlewares/Third_Party/FreeRTOS/Source/portable/GCC/ARM_CM3/portmacro.h **** /*-----------------------------------------------------------*/
 114:Middlewares/Third_Party/FreeRTOS/Source/portable/GCC/ARM_CM3/portmacro.h **** 
 115:Middlewares/Third_Party/FreeRTOS/Source/portable/GCC/ARM_CM3/portmacro.h **** /* Tickless idle/low power functionality. */
 116:Middlewares/Third_Party/FreeRTOS/Source/portable/GCC/ARM_CM3/portmacro.h **** #ifndef portSUPPRESS_TICKS_AND_SLEEP
 117:Middlewares/Third_Party/FreeRTOS/Source/portable/GCC/ARM_CM3/portmacro.h **** 	extern void vPortSuppressTicksAndSleep( TickType_t xExpectedIdleTime );
 118:Middlewares/Third_Party/FreeRTOS/Source/portable/GCC/ARM_CM3/portmacro.h **** 	#define portSUPPRESS_TICKS_AND_SLEEP( xExpectedIdleTime ) vPortSuppressTicksAndSleep( xExpectedIdl
 119:Middlewares/Third_Party/FreeRTOS/Source/portable/GCC/ARM_CM3/portmacro.h **** #endif
 120:Middlewares/Third_Party/FreeRTOS/Source/portable/GCC/ARM_CM3/portmacro.h **** /*-----------------------------------------------------------*/
 121:Middlewares/Third_Party/FreeRTOS/Source/portable/GCC/ARM_CM3/portmacro.h **** 
 122:Middlewares/Third_Party/FreeRTOS/Source/portable/GCC/ARM_CM3/portmacro.h **** /* Architecture specific optimisations. */
 123:Middlewares/Third_Party/FreeRTOS/Source/portable/GCC/ARM_CM3/portmacro.h **** #ifndef configUSE_PORT_OPTIMISED_TASK_SELECTION
 124:Middlewares/Third_Party/FreeRTOS/Source/portable/GCC/ARM_CM3/portmacro.h **** 	#define configUSE_PORT_OPTIMISED_TASK_SELECTION 1
 125:Middlewares/Third_Party/FreeRTOS/Source/portable/GCC/ARM_CM3/portmacro.h **** #endif
 126:Middlewares/Third_Party/FreeRTOS/Source/portable/GCC/ARM_CM3/portmacro.h **** 
 127:Middlewares/Third_Party/FreeRTOS/Source/portable/GCC/ARM_CM3/portmacro.h **** #if configUSE_PORT_OPTIMISED_TASK_SELECTION == 1
 128:Middlewares/Third_Party/FreeRTOS/Source/portable/GCC/ARM_CM3/portmacro.h **** 
 129:Middlewares/Third_Party/FreeRTOS/Source/portable/GCC/ARM_CM3/portmacro.h **** 	/* Generic helper function. */
 130:Middlewares/Third_Party/FreeRTOS/Source/portable/GCC/ARM_CM3/portmacro.h **** 	__attribute__( ( always_inline ) ) static inline uint8_t ucPortCountLeadingZeros( uint32_t ulBitma
 131:Middlewares/Third_Party/FreeRTOS/Source/portable/GCC/ARM_CM3/portmacro.h **** 	{
 132:Middlewares/Third_Party/FreeRTOS/Source/portable/GCC/ARM_CM3/portmacro.h **** 	uint8_t ucReturn;
 133:Middlewares/Third_Party/FreeRTOS/Source/portable/GCC/ARM_CM3/portmacro.h **** 
 134:Middlewares/Third_Party/FreeRTOS/Source/portable/GCC/ARM_CM3/portmacro.h **** 		__asm volatile ( "clz %0, %1" : "=r" ( ucReturn ) : "r" ( ulBitmap ) : "memory" );
 135:Middlewares/Third_Party/FreeRTOS/Source/portable/GCC/ARM_CM3/portmacro.h **** 		return ucReturn;
 136:Middlewares/Third_Party/FreeRTOS/Source/portable/GCC/ARM_CM3/portmacro.h **** 	}
 137:Middlewares/Third_Party/FreeRTOS/Source/portable/GCC/ARM_CM3/portmacro.h **** 
 138:Middlewares/Third_Party/FreeRTOS/Source/portable/GCC/ARM_CM3/portmacro.h **** 	/* Check the configuration. */
 139:Middlewares/Third_Party/FreeRTOS/Source/portable/GCC/ARM_CM3/portmacro.h **** 	#if( configMAX_PRIORITIES > 32 )
 140:Middlewares/Third_Party/FreeRTOS/Source/portable/GCC/ARM_CM3/portmacro.h **** 		#error configUSE_PORT_OPTIMISED_TASK_SELECTION can only be set to 1 when configMAX_PRIORITIES is 
 141:Middlewares/Third_Party/FreeRTOS/Source/portable/GCC/ARM_CM3/portmacro.h **** 	#endif
 142:Middlewares/Third_Party/FreeRTOS/Source/portable/GCC/ARM_CM3/portmacro.h **** 
 143:Middlewares/Third_Party/FreeRTOS/Source/portable/GCC/ARM_CM3/portmacro.h **** 	/* Store/clear the ready priorities in a bit map. */
 144:Middlewares/Third_Party/FreeRTOS/Source/portable/GCC/ARM_CM3/portmacro.h **** 	#define portRECORD_READY_PRIORITY( uxPriority, uxReadyPriorities ) ( uxReadyPriorities ) |= ( 1UL 
 145:Middlewares/Third_Party/FreeRTOS/Source/portable/GCC/ARM_CM3/portmacro.h **** 	#define portRESET_READY_PRIORITY( uxPriority, uxReadyPriorities ) ( uxReadyPriorities ) &= ~( 1UL 
 146:Middlewares/Third_Party/FreeRTOS/Source/portable/GCC/ARM_CM3/portmacro.h **** 
 147:Middlewares/Third_Party/FreeRTOS/Source/portable/GCC/ARM_CM3/portmacro.h **** 	/*-----------------------------------------------------------*/
 148:Middlewares/Third_Party/FreeRTOS/Source/portable/GCC/ARM_CM3/portmacro.h **** 
 149:Middlewares/Third_Party/FreeRTOS/Source/portable/GCC/ARM_CM3/portmacro.h **** 	#define portGET_HIGHEST_PRIORITY( uxTopPriority, uxReadyPriorities ) uxTopPriority = ( 31UL - ( ui
 150:Middlewares/Third_Party/FreeRTOS/Source/portable/GCC/ARM_CM3/portmacro.h **** 
 151:Middlewares/Third_Party/FreeRTOS/Source/portable/GCC/ARM_CM3/portmacro.h **** #endif /* configUSE_PORT_OPTIMISED_TASK_SELECTION */
ARM GAS  C:\Users\User\AppData\Local\Temp\ccTFByJK.s 			page 55


 152:Middlewares/Third_Party/FreeRTOS/Source/portable/GCC/ARM_CM3/portmacro.h **** 
 153:Middlewares/Third_Party/FreeRTOS/Source/portable/GCC/ARM_CM3/portmacro.h **** /*-----------------------------------------------------------*/
 154:Middlewares/Third_Party/FreeRTOS/Source/portable/GCC/ARM_CM3/portmacro.h **** 
 155:Middlewares/Third_Party/FreeRTOS/Source/portable/GCC/ARM_CM3/portmacro.h **** #ifdef configASSERT
 156:Middlewares/Third_Party/FreeRTOS/Source/portable/GCC/ARM_CM3/portmacro.h **** 	void vPortValidateInterruptPriority( void );
 157:Middlewares/Third_Party/FreeRTOS/Source/portable/GCC/ARM_CM3/portmacro.h **** 	#define portASSERT_IF_INTERRUPT_PRIORITY_INVALID() 	vPortValidateInterruptPriority()
 158:Middlewares/Third_Party/FreeRTOS/Source/portable/GCC/ARM_CM3/portmacro.h **** #endif
 159:Middlewares/Third_Party/FreeRTOS/Source/portable/GCC/ARM_CM3/portmacro.h **** 
 160:Middlewares/Third_Party/FreeRTOS/Source/portable/GCC/ARM_CM3/portmacro.h **** /* portNOP() is not required by this port. */
 161:Middlewares/Third_Party/FreeRTOS/Source/portable/GCC/ARM_CM3/portmacro.h **** #define portNOP()
 162:Middlewares/Third_Party/FreeRTOS/Source/portable/GCC/ARM_CM3/portmacro.h **** 
 163:Middlewares/Third_Party/FreeRTOS/Source/portable/GCC/ARM_CM3/portmacro.h **** #define portINLINE	__inline
 164:Middlewares/Third_Party/FreeRTOS/Source/portable/GCC/ARM_CM3/portmacro.h **** 
 165:Middlewares/Third_Party/FreeRTOS/Source/portable/GCC/ARM_CM3/portmacro.h **** #ifndef portFORCE_INLINE
 166:Middlewares/Third_Party/FreeRTOS/Source/portable/GCC/ARM_CM3/portmacro.h **** 	#define portFORCE_INLINE inline __attribute__(( always_inline))
 167:Middlewares/Third_Party/FreeRTOS/Source/portable/GCC/ARM_CM3/portmacro.h **** #endif
 168:Middlewares/Third_Party/FreeRTOS/Source/portable/GCC/ARM_CM3/portmacro.h **** 
 169:Middlewares/Third_Party/FreeRTOS/Source/portable/GCC/ARM_CM3/portmacro.h **** portFORCE_INLINE static BaseType_t xPortIsInsideInterrupt( void )
 170:Middlewares/Third_Party/FreeRTOS/Source/portable/GCC/ARM_CM3/portmacro.h **** {
 171:Middlewares/Third_Party/FreeRTOS/Source/portable/GCC/ARM_CM3/portmacro.h **** uint32_t ulCurrentInterrupt;
 172:Middlewares/Third_Party/FreeRTOS/Source/portable/GCC/ARM_CM3/portmacro.h **** BaseType_t xReturn;
 173:Middlewares/Third_Party/FreeRTOS/Source/portable/GCC/ARM_CM3/portmacro.h **** 
 174:Middlewares/Third_Party/FreeRTOS/Source/portable/GCC/ARM_CM3/portmacro.h **** 	/* Obtain the number of the currently executing interrupt. */
 175:Middlewares/Third_Party/FreeRTOS/Source/portable/GCC/ARM_CM3/portmacro.h **** 	__asm volatile( "mrs %0, ipsr" : "=r"( ulCurrentInterrupt ) :: "memory" );
 176:Middlewares/Third_Party/FreeRTOS/Source/portable/GCC/ARM_CM3/portmacro.h **** 
 177:Middlewares/Third_Party/FreeRTOS/Source/portable/GCC/ARM_CM3/portmacro.h **** 	if( ulCurrentInterrupt == 0 )
 178:Middlewares/Third_Party/FreeRTOS/Source/portable/GCC/ARM_CM3/portmacro.h **** 	{
 179:Middlewares/Third_Party/FreeRTOS/Source/portable/GCC/ARM_CM3/portmacro.h **** 		xReturn = pdFALSE;
 180:Middlewares/Third_Party/FreeRTOS/Source/portable/GCC/ARM_CM3/portmacro.h **** 	}
 181:Middlewares/Third_Party/FreeRTOS/Source/portable/GCC/ARM_CM3/portmacro.h **** 	else
 182:Middlewares/Third_Party/FreeRTOS/Source/portable/GCC/ARM_CM3/portmacro.h **** 	{
 183:Middlewares/Third_Party/FreeRTOS/Source/portable/GCC/ARM_CM3/portmacro.h **** 		xReturn = pdTRUE;
 184:Middlewares/Third_Party/FreeRTOS/Source/portable/GCC/ARM_CM3/portmacro.h **** 	}
 185:Middlewares/Third_Party/FreeRTOS/Source/portable/GCC/ARM_CM3/portmacro.h **** 
 186:Middlewares/Third_Party/FreeRTOS/Source/portable/GCC/ARM_CM3/portmacro.h **** 	return xReturn;
 187:Middlewares/Third_Party/FreeRTOS/Source/portable/GCC/ARM_CM3/portmacro.h **** }
 188:Middlewares/Third_Party/FreeRTOS/Source/portable/GCC/ARM_CM3/portmacro.h **** 
 189:Middlewares/Third_Party/FreeRTOS/Source/portable/GCC/ARM_CM3/portmacro.h **** /*-----------------------------------------------------------*/
 190:Middlewares/Third_Party/FreeRTOS/Source/portable/GCC/ARM_CM3/portmacro.h **** 
 191:Middlewares/Third_Party/FreeRTOS/Source/portable/GCC/ARM_CM3/portmacro.h **** portFORCE_INLINE static void vPortRaiseBASEPRI( void )
 192:Middlewares/Third_Party/FreeRTOS/Source/portable/GCC/ARM_CM3/portmacro.h **** {
 193:Middlewares/Third_Party/FreeRTOS/Source/portable/GCC/ARM_CM3/portmacro.h **** uint32_t ulNewBASEPRI;
 194:Middlewares/Third_Party/FreeRTOS/Source/portable/GCC/ARM_CM3/portmacro.h **** 
 195:Middlewares/Third_Party/FreeRTOS/Source/portable/GCC/ARM_CM3/portmacro.h **** 	__asm volatile
 196:Middlewares/Third_Party/FreeRTOS/Source/portable/GCC/ARM_CM3/portmacro.h **** 	(
 197:Middlewares/Third_Party/FreeRTOS/Source/portable/GCC/ARM_CM3/portmacro.h **** 		"	mov %0, %1												\n" \
 198:Middlewares/Third_Party/FreeRTOS/Source/portable/GCC/ARM_CM3/portmacro.h **** 		"	msr basepri, %0											\n" \
 199:Middlewares/Third_Party/FreeRTOS/Source/portable/GCC/ARM_CM3/portmacro.h **** 		"	isb														\n" \
 200:Middlewares/Third_Party/FreeRTOS/Source/portable/GCC/ARM_CM3/portmacro.h **** 		"	dsb														\n" \
 201:Middlewares/Third_Party/FreeRTOS/Source/portable/GCC/ARM_CM3/portmacro.h **** 		:"=r" (ulNewBASEPRI) : "i" ( configMAX_SYSCALL_INTERRUPT_PRIORITY ) : "memory"
 202:Middlewares/Third_Party/FreeRTOS/Source/portable/GCC/ARM_CM3/portmacro.h **** 	);
 203:Middlewares/Third_Party/FreeRTOS/Source/portable/GCC/ARM_CM3/portmacro.h **** }
 204:Middlewares/Third_Party/FreeRTOS/Source/portable/GCC/ARM_CM3/portmacro.h **** 
 205:Middlewares/Third_Party/FreeRTOS/Source/portable/GCC/ARM_CM3/portmacro.h **** /*-----------------------------------------------------------*/
 206:Middlewares/Third_Party/FreeRTOS/Source/portable/GCC/ARM_CM3/portmacro.h **** 
 207:Middlewares/Third_Party/FreeRTOS/Source/portable/GCC/ARM_CM3/portmacro.h **** portFORCE_INLINE static uint32_t ulPortRaiseBASEPRI( void )
 1759              		.loc 3 207 34 view .LVU408
ARM GAS  C:\Users\User\AppData\Local\Temp\ccTFByJK.s 			page 56


 1760              	.LBB11:
 208:Middlewares/Third_Party/FreeRTOS/Source/portable/GCC/ARM_CM3/portmacro.h **** {
 209:Middlewares/Third_Party/FreeRTOS/Source/portable/GCC/ARM_CM3/portmacro.h **** uint32_t ulOriginalBASEPRI, ulNewBASEPRI;
 1761              		.loc 3 209 1 view .LVU409
 210:Middlewares/Third_Party/FreeRTOS/Source/portable/GCC/ARM_CM3/portmacro.h **** 
 211:Middlewares/Third_Party/FreeRTOS/Source/portable/GCC/ARM_CM3/portmacro.h **** 	__asm volatile
 1762              		.loc 3 211 2 view .LVU410
 1763              		.syntax unified
 1764              	@ 211 "Middlewares/Third_Party/FreeRTOS/Source/portable/GCC/ARM_CM3/portmacro.h" 1
 1765 000a EFF31185 			mrs r5, basepri											
 1766 000e 4FF05003 		mov r3, #80												
 1767 0012 83F31188 		msr basepri, r3											
 1768 0016 BFF36F8F 		isb														
 1769 001a BFF34F8F 		dsb														
 1770              	
 1771              	@ 0 "" 2
 1772              	.LVL125:
 212:Middlewares/Third_Party/FreeRTOS/Source/portable/GCC/ARM_CM3/portmacro.h **** 	(
 213:Middlewares/Third_Party/FreeRTOS/Source/portable/GCC/ARM_CM3/portmacro.h **** 		"	mrs %0, basepri											\n" \
 214:Middlewares/Third_Party/FreeRTOS/Source/portable/GCC/ARM_CM3/portmacro.h **** 		"	mov %1, %2												\n" \
 215:Middlewares/Third_Party/FreeRTOS/Source/portable/GCC/ARM_CM3/portmacro.h **** 		"	msr basepri, %1											\n" \
 216:Middlewares/Third_Party/FreeRTOS/Source/portable/GCC/ARM_CM3/portmacro.h **** 		"	isb														\n" \
 217:Middlewares/Third_Party/FreeRTOS/Source/portable/GCC/ARM_CM3/portmacro.h **** 		"	dsb														\n" \
 218:Middlewares/Third_Party/FreeRTOS/Source/portable/GCC/ARM_CM3/portmacro.h **** 		:"=r" (ulOriginalBASEPRI), "=r" (ulNewBASEPRI) : "i" ( configMAX_SYSCALL_INTERRUPT_PRIORITY ) : "
 219:Middlewares/Third_Party/FreeRTOS/Source/portable/GCC/ARM_CM3/portmacro.h **** 	);
 220:Middlewares/Third_Party/FreeRTOS/Source/portable/GCC/ARM_CM3/portmacro.h **** 
 221:Middlewares/Third_Party/FreeRTOS/Source/portable/GCC/ARM_CM3/portmacro.h **** 	/* This return will not be reached but is necessary to prevent compiler
 222:Middlewares/Third_Party/FreeRTOS/Source/portable/GCC/ARM_CM3/portmacro.h **** 	warnings. */
 223:Middlewares/Third_Party/FreeRTOS/Source/portable/GCC/ARM_CM3/portmacro.h **** 	return ulOriginalBASEPRI;
 1773              		.loc 3 223 2 view .LVU411
 1774              		.thumb
 1775              		.syntax unified
 1776              	.L135:
 1777              		.loc 3 223 2 is_stmt 0 view .LVU412
 1778              	.LBE11:
 1779              	.LBE10:
 945:Middlewares/Third_Party/FreeRTOS/Source/CMSIS_RTOS/cmsis_os.c ****   }
 946:Middlewares/Third_Party/FreeRTOS/Source/CMSIS_RTOS/cmsis_os.c ****   else {
 947:Middlewares/Third_Party/FreeRTOS/Source/CMSIS_RTOS/cmsis_os.c ****     vPortEnterCritical();
 948:Middlewares/Third_Party/FreeRTOS/Source/CMSIS_RTOS/cmsis_os.c ****   }
 949:Middlewares/Third_Party/FreeRTOS/Source/CMSIS_RTOS/cmsis_os.c ****   
 950:Middlewares/Third_Party/FreeRTOS/Source/CMSIS_RTOS/cmsis_os.c ****   for (i = 0; i < pool_id->pool_sz; i++) {
 1780              		.loc 1 950 3 is_stmt 1 view .LVU413
 1781              		.loc 1 950 10 is_stmt 0 view .LVU414
 1782 001e 0020     		movs	r0, #0
 1783              	.LVL126:
 1784              	.L136:
 1785              		.loc 1 950 26 discriminator 1 view .LVU415
 1786 0020 A168     		ldr	r1, [r4, #8]
 1787              		.loc 1 950 3 discriminator 1 view .LVU416
 1788 0022 8142     		cmp	r1, r0
 1789 0024 17D9     		bls	.L143
 951:Middlewares/Third_Party/FreeRTOS/Source/CMSIS_RTOS/cmsis_os.c ****     index = (pool_id->currentIndex + i) % pool_id->pool_sz;
 1790              		.loc 1 951 5 is_stmt 1 view .LVU417
 1791              		.loc 1 951 21 is_stmt 0 view .LVU418
 1792 0026 2369     		ldr	r3, [r4, #16]
 1793              		.loc 1 951 36 view .LVU419
ARM GAS  C:\Users\User\AppData\Local\Temp\ccTFByJK.s 			page 57


 1794 0028 1A18     		adds	r2, r3, r0
 1795              		.loc 1 951 11 view .LVU420
 1796 002a B2FBF1F3 		udiv	r3, r2, r1
 1797 002e 01FB1323 		mls	r3, r1, r3, r2
 1798              	.LVL127:
 952:Middlewares/Third_Party/FreeRTOS/Source/CMSIS_RTOS/cmsis_os.c ****     
 953:Middlewares/Third_Party/FreeRTOS/Source/CMSIS_RTOS/cmsis_os.c ****     if (pool_id->markers[index] == 0) {
 1799              		.loc 1 953 5 is_stmt 1 view .LVU421
 1800              		.loc 1 953 16 is_stmt 0 view .LVU422
 1801 0032 6268     		ldr	r2, [r4, #4]
 1802              		.loc 1 953 25 view .LVU423
 1803 0034 D118     		adds	r1, r2, r3
 1804 0036 D25C     		ldrb	r2, [r2, r3]	@ zero_extendqisi2
 1805              		.loc 1 953 8 view .LVU424
 1806 0038 2AB1     		cbz	r2, .L144
 950:Middlewares/Third_Party/FreeRTOS/Source/CMSIS_RTOS/cmsis_os.c ****     index = (pool_id->currentIndex + i) % pool_id->pool_sz;
 1807              		.loc 1 950 38 discriminator 2 view .LVU425
 1808 003a 0130     		adds	r0, r0, #1
 1809              	.LVL128:
 950:Middlewares/Third_Party/FreeRTOS/Source/CMSIS_RTOS/cmsis_os.c ****     index = (pool_id->currentIndex + i) % pool_id->pool_sz;
 1810              		.loc 1 950 38 discriminator 2 view .LVU426
 1811 003c F0E7     		b	.L136
 1812              	.LVL129:
 1813              	.L134:
 950:Middlewares/Third_Party/FreeRTOS/Source/CMSIS_RTOS/cmsis_os.c ****     index = (pool_id->currentIndex + i) % pool_id->pool_sz;
 1814              		.loc 1 950 38 discriminator 2 view .LVU427
 1815 003e 0546     		mov	r5, r0
 947:Middlewares/Third_Party/FreeRTOS/Source/CMSIS_RTOS/cmsis_os.c ****   }
 1816              		.loc 1 947 5 is_stmt 1 view .LVU428
 1817 0040 FFF7FEFF 		bl	vPortEnterCritical
 1818              	.LVL130:
 1819 0044 EBE7     		b	.L135
 1820              	.LVL131:
 1821              	.L144:
 954:Middlewares/Third_Party/FreeRTOS/Source/CMSIS_RTOS/cmsis_os.c ****       pool_id->markers[index] = 1;
 1822              		.loc 1 954 7 view .LVU429
 1823              		.loc 1 954 31 is_stmt 0 view .LVU430
 1824 0046 0122     		movs	r2, #1
 1825 0048 0A70     		strb	r2, [r1]
 955:Middlewares/Third_Party/FreeRTOS/Source/CMSIS_RTOS/cmsis_os.c ****       p = (void *)((uint32_t)(pool_id->pool) + (index * pool_id->item_sz));
 1826              		.loc 1 955 7 is_stmt 1 view .LVU431
 1827              		.loc 1 955 38 is_stmt 0 view .LVU432
 1828 004a 2268     		ldr	r2, [r4]
 1829              		.loc 1 955 64 view .LVU433
 1830 004c E668     		ldr	r6, [r4, #12]
 1831              		.loc 1 955 46 view .LVU434
 1832 004e 03FB0626 		mla	r6, r3, r6, r2
 1833              	.LVL132:
 956:Middlewares/Third_Party/FreeRTOS/Source/CMSIS_RTOS/cmsis_os.c ****       pool_id->currentIndex = index;
 1834              		.loc 1 956 7 is_stmt 1 view .LVU435
 1835              		.loc 1 956 29 is_stmt 0 view .LVU436
 1836 0052 2361     		str	r3, [r4, #16]
 957:Middlewares/Third_Party/FreeRTOS/Source/CMSIS_RTOS/cmsis_os.c ****       break;
 1837              		.loc 1 957 7 is_stmt 1 view .LVU437
 1838 0054 00E0     		b	.L138
 1839              	.LVL133:
 1840              	.L143:
ARM GAS  C:\Users\User\AppData\Local\Temp\ccTFByJK.s 			page 58


 939:Middlewares/Third_Party/FreeRTOS/Source/CMSIS_RTOS/cmsis_os.c ****   uint32_t i;
 1841              		.loc 1 939 9 is_stmt 0 view .LVU438
 1842 0056 0026     		movs	r6, #0
 1843              	.LVL134:
 1844              	.L138:
 958:Middlewares/Third_Party/FreeRTOS/Source/CMSIS_RTOS/cmsis_os.c ****     }
 959:Middlewares/Third_Party/FreeRTOS/Source/CMSIS_RTOS/cmsis_os.c ****   }
 960:Middlewares/Third_Party/FreeRTOS/Source/CMSIS_RTOS/cmsis_os.c ****   
 961:Middlewares/Third_Party/FreeRTOS/Source/CMSIS_RTOS/cmsis_os.c ****   if (inHandlerMode()) {
 1845              		.loc 1 961 3 is_stmt 1 view .LVU439
 1846              		.loc 1 961 7 is_stmt 0 view .LVU440
 1847 0058 FFF7FEFF 		bl	inHandlerMode
 1848              	.LVL135:
 1849              		.loc 1 961 6 view .LVU441
 1850 005c 18B1     		cbz	r0, .L140
 962:Middlewares/Third_Party/FreeRTOS/Source/CMSIS_RTOS/cmsis_os.c ****     portCLEAR_INTERRUPT_MASK_FROM_ISR(dummy);
 1851              		.loc 1 962 5 is_stmt 1 view .LVU442
 1852              	.LVL136:
 1853              	.LBB12:
 1854              	.LBI12:
 224:Middlewares/Third_Party/FreeRTOS/Source/portable/GCC/ARM_CM3/portmacro.h **** }
 225:Middlewares/Third_Party/FreeRTOS/Source/portable/GCC/ARM_CM3/portmacro.h **** /*-----------------------------------------------------------*/
 226:Middlewares/Third_Party/FreeRTOS/Source/portable/GCC/ARM_CM3/portmacro.h **** 
 227:Middlewares/Third_Party/FreeRTOS/Source/portable/GCC/ARM_CM3/portmacro.h **** portFORCE_INLINE static void vPortSetBASEPRI( uint32_t ulNewMaskValue )
 1855              		.loc 3 227 30 view .LVU443
 1856              	.LBB13:
 228:Middlewares/Third_Party/FreeRTOS/Source/portable/GCC/ARM_CM3/portmacro.h **** {
 229:Middlewares/Third_Party/FreeRTOS/Source/portable/GCC/ARM_CM3/portmacro.h **** 	__asm volatile
 1857              		.loc 3 229 2 view .LVU444
 1858              		.syntax unified
 1859              	@ 229 "Middlewares/Third_Party/FreeRTOS/Source/portable/GCC/ARM_CM3/portmacro.h" 1
 1860 005e 85F31188 			msr basepri, r5	
 1861              	@ 0 "" 2
 1862              	.LVL137:
 1863              		.thumb
 1864              		.syntax unified
 1865              	.L133:
 1866              		.loc 3 229 2 is_stmt 0 view .LVU445
 1867              	.LBE13:
 1868              	.LBE12:
 963:Middlewares/Third_Party/FreeRTOS/Source/CMSIS_RTOS/cmsis_os.c ****   }
 964:Middlewares/Third_Party/FreeRTOS/Source/CMSIS_RTOS/cmsis_os.c ****   else {
 965:Middlewares/Third_Party/FreeRTOS/Source/CMSIS_RTOS/cmsis_os.c ****     vPortExitCritical();
 966:Middlewares/Third_Party/FreeRTOS/Source/CMSIS_RTOS/cmsis_os.c ****   }
 967:Middlewares/Third_Party/FreeRTOS/Source/CMSIS_RTOS/cmsis_os.c ****   
 968:Middlewares/Third_Party/FreeRTOS/Source/CMSIS_RTOS/cmsis_os.c ****   return p;
 969:Middlewares/Third_Party/FreeRTOS/Source/CMSIS_RTOS/cmsis_os.c **** }
 1869              		.loc 1 969 1 view .LVU446
 1870 0062 3046     		mov	r0, r6
 1871 0064 70BD     		pop	{r4, r5, r6, pc}
 1872              	.LVL138:
 1873              	.L140:
 965:Middlewares/Third_Party/FreeRTOS/Source/CMSIS_RTOS/cmsis_os.c ****   }
 1874              		.loc 1 965 5 is_stmt 1 view .LVU447
 1875 0066 FFF7FEFF 		bl	vPortExitCritical
 1876              	.LVL139:
 968:Middlewares/Third_Party/FreeRTOS/Source/CMSIS_RTOS/cmsis_os.c **** }
ARM GAS  C:\Users\User\AppData\Local\Temp\ccTFByJK.s 			page 59


 1877              		.loc 1 968 3 view .LVU448
 968:Middlewares/Third_Party/FreeRTOS/Source/CMSIS_RTOS/cmsis_os.c **** }
 1878              		.loc 1 968 10 is_stmt 0 view .LVU449
 1879 006a FAE7     		b	.L133
 1880              		.cfi_endproc
 1881              	.LFE77:
 1883              		.section	.text.osPoolCAlloc,"ax",%progbits
 1884              		.align	1
 1885              		.global	osPoolCAlloc
 1886              		.syntax unified
 1887              		.thumb
 1888              		.thumb_func
 1889              		.fpu softvfp
 1891              	osPoolCAlloc:
 1892              	.LVL140:
 1893              	.LFB78:
 970:Middlewares/Third_Party/FreeRTOS/Source/CMSIS_RTOS/cmsis_os.c **** 
 971:Middlewares/Third_Party/FreeRTOS/Source/CMSIS_RTOS/cmsis_os.c **** /**
 972:Middlewares/Third_Party/FreeRTOS/Source/CMSIS_RTOS/cmsis_os.c **** * @brief Allocate a memory block from a memory pool and set memory block to zero
 973:Middlewares/Third_Party/FreeRTOS/Source/CMSIS_RTOS/cmsis_os.c **** * @param  pool_id       memory pool ID obtain referenced with \ref osPoolCreate.
 974:Middlewares/Third_Party/FreeRTOS/Source/CMSIS_RTOS/cmsis_os.c **** * @retval  address of the allocated memory block or NULL in case of no memory available.
 975:Middlewares/Third_Party/FreeRTOS/Source/CMSIS_RTOS/cmsis_os.c **** * @note   MUST REMAIN UNCHANGED: \b osPoolCAlloc shall be consistent in every CMSIS-RTOS.
 976:Middlewares/Third_Party/FreeRTOS/Source/CMSIS_RTOS/cmsis_os.c **** */
 977:Middlewares/Third_Party/FreeRTOS/Source/CMSIS_RTOS/cmsis_os.c **** void *osPoolCAlloc (osPoolId pool_id)
 978:Middlewares/Third_Party/FreeRTOS/Source/CMSIS_RTOS/cmsis_os.c **** {
 1894              		.loc 1 978 1 is_stmt 1 view -0
 1895              		.cfi_startproc
 1896              		@ args = 0, pretend = 0, frame = 0
 1897              		@ frame_needed = 0, uses_anonymous_args = 0
 1898              		.loc 1 978 1 is_stmt 0 view .LVU451
 1899 0000 08B5     		push	{r3, lr}
 1900              	.LCFI42:
 1901              		.cfi_def_cfa_offset 8
 1902              		.cfi_offset 3, -8
 1903              		.cfi_offset 14, -4
 979:Middlewares/Third_Party/FreeRTOS/Source/CMSIS_RTOS/cmsis_os.c ****   void *p = osPoolAlloc(pool_id);
 1904              		.loc 1 979 3 is_stmt 1 view .LVU452
 1905              		.loc 1 979 13 is_stmt 0 view .LVU453
 1906 0002 FFF7FEFF 		bl	osPoolAlloc
 1907              	.LVL141:
 980:Middlewares/Third_Party/FreeRTOS/Source/CMSIS_RTOS/cmsis_os.c ****   
 981:Middlewares/Third_Party/FreeRTOS/Source/CMSIS_RTOS/cmsis_os.c ****   if (p != NULL)
 1908              		.loc 1 981 3 is_stmt 1 view .LVU454
 1909              		.loc 1 981 6 is_stmt 0 view .LVU455
 1910 0006 0346     		mov	r3, r0
 1911 0008 08B1     		cbz	r0, .L145
 982:Middlewares/Third_Party/FreeRTOS/Source/CMSIS_RTOS/cmsis_os.c ****   {
 983:Middlewares/Third_Party/FreeRTOS/Source/CMSIS_RTOS/cmsis_os.c ****     memset(p, 0, sizeof(pool_id->pool_sz));
 1912              		.loc 1 983 5 is_stmt 1 view .LVU456
 1913 000a 0022     		movs	r2, #0
 1914 000c 0260     		str	r2, [r0]	@ unaligned
 984:Middlewares/Third_Party/FreeRTOS/Source/CMSIS_RTOS/cmsis_os.c ****   }
 985:Middlewares/Third_Party/FreeRTOS/Source/CMSIS_RTOS/cmsis_os.c ****   
 986:Middlewares/Third_Party/FreeRTOS/Source/CMSIS_RTOS/cmsis_os.c ****   return p;
 1915              		.loc 1 986 3 view .LVU457
 1916              	.L145:
 987:Middlewares/Third_Party/FreeRTOS/Source/CMSIS_RTOS/cmsis_os.c **** }
ARM GAS  C:\Users\User\AppData\Local\Temp\ccTFByJK.s 			page 60


 1917              		.loc 1 987 1 is_stmt 0 view .LVU458
 1918 000e 1846     		mov	r0, r3
 1919              	.LVL142:
 1920              		.loc 1 987 1 view .LVU459
 1921 0010 08BD     		pop	{r3, pc}
 1922              		.loc 1 987 1 view .LVU460
 1923              		.cfi_endproc
 1924              	.LFE78:
 1926              		.section	.text.osPoolFree,"ax",%progbits
 1927              		.align	1
 1928              		.global	osPoolFree
 1929              		.syntax unified
 1930              		.thumb
 1931              		.thumb_func
 1932              		.fpu softvfp
 1934              	osPoolFree:
 1935              	.LVL143:
 1936              	.LFB79:
 988:Middlewares/Third_Party/FreeRTOS/Source/CMSIS_RTOS/cmsis_os.c **** 
 989:Middlewares/Third_Party/FreeRTOS/Source/CMSIS_RTOS/cmsis_os.c **** /**
 990:Middlewares/Third_Party/FreeRTOS/Source/CMSIS_RTOS/cmsis_os.c **** * @brief Return an allocated memory block back to a specific memory pool
 991:Middlewares/Third_Party/FreeRTOS/Source/CMSIS_RTOS/cmsis_os.c **** * @param  pool_id       memory pool ID obtain referenced with \ref osPoolCreate.
 992:Middlewares/Third_Party/FreeRTOS/Source/CMSIS_RTOS/cmsis_os.c **** * @param  block         address of the allocated memory block that is returned to the memory pool.
 993:Middlewares/Third_Party/FreeRTOS/Source/CMSIS_RTOS/cmsis_os.c **** * @retval  status code that indicates the execution status of the function.
 994:Middlewares/Third_Party/FreeRTOS/Source/CMSIS_RTOS/cmsis_os.c **** * @note   MUST REMAIN UNCHANGED: \b osPoolFree shall be consistent in every CMSIS-RTOS.
 995:Middlewares/Third_Party/FreeRTOS/Source/CMSIS_RTOS/cmsis_os.c **** */
 996:Middlewares/Third_Party/FreeRTOS/Source/CMSIS_RTOS/cmsis_os.c **** osStatus osPoolFree (osPoolId pool_id, void *block)
 997:Middlewares/Third_Party/FreeRTOS/Source/CMSIS_RTOS/cmsis_os.c **** {
 1937              		.loc 1 997 1 is_stmt 1 view -0
 1938              		.cfi_startproc
 1939              		@ args = 0, pretend = 0, frame = 0
 1940              		@ frame_needed = 0, uses_anonymous_args = 0
 1941              		@ link register save eliminated.
 998:Middlewares/Third_Party/FreeRTOS/Source/CMSIS_RTOS/cmsis_os.c ****   uint32_t index;
 1942              		.loc 1 998 3 view .LVU462
 999:Middlewares/Third_Party/FreeRTOS/Source/CMSIS_RTOS/cmsis_os.c ****   
1000:Middlewares/Third_Party/FreeRTOS/Source/CMSIS_RTOS/cmsis_os.c ****   if (pool_id == NULL) {
 1943              		.loc 1 1000 3 view .LVU463
 1944              		.loc 1 1000 6 is_stmt 0 view .LVU464
 1945 0000 0346     		mov	r3, r0
 1946 0002 98B1     		cbz	r0, .L150
1001:Middlewares/Third_Party/FreeRTOS/Source/CMSIS_RTOS/cmsis_os.c ****     return osErrorParameter;
1002:Middlewares/Third_Party/FreeRTOS/Source/CMSIS_RTOS/cmsis_os.c ****   }
1003:Middlewares/Third_Party/FreeRTOS/Source/CMSIS_RTOS/cmsis_os.c ****   
1004:Middlewares/Third_Party/FreeRTOS/Source/CMSIS_RTOS/cmsis_os.c ****   if (block == NULL) {
 1947              		.loc 1 1004 3 is_stmt 1 view .LVU465
 1948              		.loc 1 1004 6 is_stmt 0 view .LVU466
 1949 0004 A1B1     		cbz	r1, .L151
1005:Middlewares/Third_Party/FreeRTOS/Source/CMSIS_RTOS/cmsis_os.c ****     return osErrorParameter;
1006:Middlewares/Third_Party/FreeRTOS/Source/CMSIS_RTOS/cmsis_os.c ****   }
1007:Middlewares/Third_Party/FreeRTOS/Source/CMSIS_RTOS/cmsis_os.c ****   
1008:Middlewares/Third_Party/FreeRTOS/Source/CMSIS_RTOS/cmsis_os.c ****   if (block < pool_id->pool) {
 1950              		.loc 1 1008 3 is_stmt 1 view .LVU467
 1951              		.loc 1 1008 22 is_stmt 0 view .LVU468
 1952 0006 0268     		ldr	r2, [r0]
 1953              		.loc 1 1008 6 view .LVU469
 1954 0008 8A42     		cmp	r2, r1
ARM GAS  C:\Users\User\AppData\Local\Temp\ccTFByJK.s 			page 61


 1955 000a 13D8     		bhi	.L152
1009:Middlewares/Third_Party/FreeRTOS/Source/CMSIS_RTOS/cmsis_os.c ****     return osErrorParameter;
1010:Middlewares/Third_Party/FreeRTOS/Source/CMSIS_RTOS/cmsis_os.c ****   }
1011:Middlewares/Third_Party/FreeRTOS/Source/CMSIS_RTOS/cmsis_os.c ****   
1012:Middlewares/Third_Party/FreeRTOS/Source/CMSIS_RTOS/cmsis_os.c ****   index = (uint32_t)block - (uint32_t)(pool_id->pool);
 1956              		.loc 1 1012 3 is_stmt 1 view .LVU470
 1957              		.loc 1 1012 9 is_stmt 0 view .LVU471
 1958 000c 891A     		subs	r1, r1, r2
 1959              	.LVL144:
1013:Middlewares/Third_Party/FreeRTOS/Source/CMSIS_RTOS/cmsis_os.c ****   if (index % pool_id->item_sz) {
 1960              		.loc 1 1013 3 is_stmt 1 view .LVU472
 1961              		.loc 1 1013 22 is_stmt 0 view .LVU473
 1962 000e C068     		ldr	r0, [r0, #12]
 1963              	.LVL145:
 1964              		.loc 1 1013 13 view .LVU474
 1965 0010 B1FBF0F2 		udiv	r2, r1, r0
 1966 0014 00FB1212 		mls	r2, r0, r2, r1
 1967              		.loc 1 1013 6 view .LVU475
 1968 0018 72B9     		cbnz	r2, .L153
1014:Middlewares/Third_Party/FreeRTOS/Source/CMSIS_RTOS/cmsis_os.c ****     return osErrorParameter;
1015:Middlewares/Third_Party/FreeRTOS/Source/CMSIS_RTOS/cmsis_os.c ****   }
1016:Middlewares/Third_Party/FreeRTOS/Source/CMSIS_RTOS/cmsis_os.c ****   index = index / pool_id->item_sz;
 1969              		.loc 1 1016 3 is_stmt 1 view .LVU476
 1970              		.loc 1 1016 9 is_stmt 0 view .LVU477
 1971 001a B1FBF0F1 		udiv	r1, r1, r0
 1972              	.LVL146:
1017:Middlewares/Third_Party/FreeRTOS/Source/CMSIS_RTOS/cmsis_os.c ****   if (index >= pool_id->pool_sz) {
 1973              		.loc 1 1017 3 is_stmt 1 view .LVU478
 1974              		.loc 1 1017 23 is_stmt 0 view .LVU479
 1975 001e 9A68     		ldr	r2, [r3, #8]
 1976              		.loc 1 1017 6 view .LVU480
 1977 0020 8A42     		cmp	r2, r1
 1978 0022 0BD9     		bls	.L154
1018:Middlewares/Third_Party/FreeRTOS/Source/CMSIS_RTOS/cmsis_os.c ****     return osErrorParameter;
1019:Middlewares/Third_Party/FreeRTOS/Source/CMSIS_RTOS/cmsis_os.c ****   }
1020:Middlewares/Third_Party/FreeRTOS/Source/CMSIS_RTOS/cmsis_os.c ****   
1021:Middlewares/Third_Party/FreeRTOS/Source/CMSIS_RTOS/cmsis_os.c ****   pool_id->markers[index] = 0;
 1979              		.loc 1 1021 3 is_stmt 1 view .LVU481
 1980              		.loc 1 1021 10 is_stmt 0 view .LVU482
 1981 0024 5B68     		ldr	r3, [r3, #4]
 1982              	.LVL147:
 1983              		.loc 1 1021 27 view .LVU483
 1984 0026 0020     		movs	r0, #0
 1985 0028 5854     		strb	r0, [r3, r1]
1022:Middlewares/Third_Party/FreeRTOS/Source/CMSIS_RTOS/cmsis_os.c ****   
1023:Middlewares/Third_Party/FreeRTOS/Source/CMSIS_RTOS/cmsis_os.c ****   return osOK;
 1986              		.loc 1 1023 3 is_stmt 1 view .LVU484
 1987              		.loc 1 1023 10 is_stmt 0 view .LVU485
 1988 002a 7047     		bx	lr
 1989              	.LVL148:
 1990              	.L150:
1001:Middlewares/Third_Party/FreeRTOS/Source/CMSIS_RTOS/cmsis_os.c ****   }
 1991              		.loc 1 1001 12 view .LVU486
 1992 002c 8020     		movs	r0, #128
 1993              	.LVL149:
1001:Middlewares/Third_Party/FreeRTOS/Source/CMSIS_RTOS/cmsis_os.c ****   }
 1994              		.loc 1 1001 12 view .LVU487
ARM GAS  C:\Users\User\AppData\Local\Temp\ccTFByJK.s 			page 62


 1995 002e 7047     		bx	lr
 1996              	.LVL150:
 1997              	.L151:
1005:Middlewares/Third_Party/FreeRTOS/Source/CMSIS_RTOS/cmsis_os.c ****   }
 1998              		.loc 1 1005 12 view .LVU488
 1999 0030 8020     		movs	r0, #128
 2000              	.LVL151:
1005:Middlewares/Third_Party/FreeRTOS/Source/CMSIS_RTOS/cmsis_os.c ****   }
 2001              		.loc 1 1005 12 view .LVU489
 2002 0032 7047     		bx	lr
 2003              	.LVL152:
 2004              	.L152:
1009:Middlewares/Third_Party/FreeRTOS/Source/CMSIS_RTOS/cmsis_os.c ****   }
 2005              		.loc 1 1009 12 view .LVU490
 2006 0034 8020     		movs	r0, #128
 2007              	.LVL153:
1009:Middlewares/Third_Party/FreeRTOS/Source/CMSIS_RTOS/cmsis_os.c ****   }
 2008              		.loc 1 1009 12 view .LVU491
 2009 0036 7047     		bx	lr
 2010              	.LVL154:
 2011              	.L153:
1014:Middlewares/Third_Party/FreeRTOS/Source/CMSIS_RTOS/cmsis_os.c ****   }
 2012              		.loc 1 1014 12 view .LVU492
 2013 0038 8020     		movs	r0, #128
 2014 003a 7047     		bx	lr
 2015              	.L154:
1018:Middlewares/Third_Party/FreeRTOS/Source/CMSIS_RTOS/cmsis_os.c ****   }
 2016              		.loc 1 1018 12 view .LVU493
 2017 003c 8020     		movs	r0, #128
1024:Middlewares/Third_Party/FreeRTOS/Source/CMSIS_RTOS/cmsis_os.c **** }
 2018              		.loc 1 1024 1 view .LVU494
 2019 003e 7047     		bx	lr
 2020              		.cfi_endproc
 2021              	.LFE79:
 2023              		.section	.text.osMessageCreate,"ax",%progbits
 2024              		.align	1
 2025              		.global	osMessageCreate
 2026              		.syntax unified
 2027              		.thumb
 2028              		.thumb_func
 2029              		.fpu softvfp
 2031              	osMessageCreate:
 2032              	.LVL155:
 2033              	.LFB80:
1025:Middlewares/Third_Party/FreeRTOS/Source/CMSIS_RTOS/cmsis_os.c **** 
1026:Middlewares/Third_Party/FreeRTOS/Source/CMSIS_RTOS/cmsis_os.c **** 
1027:Middlewares/Third_Party/FreeRTOS/Source/CMSIS_RTOS/cmsis_os.c **** #endif   /* Use Memory Pool Management */
1028:Middlewares/Third_Party/FreeRTOS/Source/CMSIS_RTOS/cmsis_os.c **** 
1029:Middlewares/Third_Party/FreeRTOS/Source/CMSIS_RTOS/cmsis_os.c **** /*******************   Message Queue Management Functions  *********************/
1030:Middlewares/Third_Party/FreeRTOS/Source/CMSIS_RTOS/cmsis_os.c **** 
1031:Middlewares/Third_Party/FreeRTOS/Source/CMSIS_RTOS/cmsis_os.c **** #if (defined (osFeature_MessageQ)  &&  (osFeature_MessageQ != 0)) /* Use Message Queues */
1032:Middlewares/Third_Party/FreeRTOS/Source/CMSIS_RTOS/cmsis_os.c **** 
1033:Middlewares/Third_Party/FreeRTOS/Source/CMSIS_RTOS/cmsis_os.c **** /**
1034:Middlewares/Third_Party/FreeRTOS/Source/CMSIS_RTOS/cmsis_os.c **** * @brief Create and Initialize a Message Queue
1035:Middlewares/Third_Party/FreeRTOS/Source/CMSIS_RTOS/cmsis_os.c **** * @param queue_def     queue definition referenced with \ref osMessageQ.
1036:Middlewares/Third_Party/FreeRTOS/Source/CMSIS_RTOS/cmsis_os.c **** * @param  thread_id     thread ID (obtained by \ref osThreadCreate or \ref osThreadGetId) or NULL.
1037:Middlewares/Third_Party/FreeRTOS/Source/CMSIS_RTOS/cmsis_os.c **** * @retval  message queue ID for reference by other functions or NULL in case of error.
ARM GAS  C:\Users\User\AppData\Local\Temp\ccTFByJK.s 			page 63


1038:Middlewares/Third_Party/FreeRTOS/Source/CMSIS_RTOS/cmsis_os.c **** * @note   MUST REMAIN UNCHANGED: \b osMessageCreate shall be consistent in every CMSIS-RTOS.
1039:Middlewares/Third_Party/FreeRTOS/Source/CMSIS_RTOS/cmsis_os.c **** */
1040:Middlewares/Third_Party/FreeRTOS/Source/CMSIS_RTOS/cmsis_os.c **** osMessageQId osMessageCreate (const osMessageQDef_t *queue_def, osThreadId thread_id)
1041:Middlewares/Third_Party/FreeRTOS/Source/CMSIS_RTOS/cmsis_os.c **** {
 2034              		.loc 1 1041 1 is_stmt 1 view -0
 2035              		.cfi_startproc
 2036              		@ args = 0, pretend = 0, frame = 0
 2037              		@ frame_needed = 0, uses_anonymous_args = 0
 2038              		.loc 1 1041 1 is_stmt 0 view .LVU496
 2039 0000 08B5     		push	{r3, lr}
 2040              	.LCFI43:
 2041              		.cfi_def_cfa_offset 8
 2042              		.cfi_offset 3, -8
 2043              		.cfi_offset 14, -4
1042:Middlewares/Third_Party/FreeRTOS/Source/CMSIS_RTOS/cmsis_os.c ****   (void) thread_id;
 2044              		.loc 1 1042 3 is_stmt 1 view .LVU497
1043:Middlewares/Third_Party/FreeRTOS/Source/CMSIS_RTOS/cmsis_os.c ****   
1044:Middlewares/Third_Party/FreeRTOS/Source/CMSIS_RTOS/cmsis_os.c **** #if( configSUPPORT_STATIC_ALLOCATION == 1 ) && ( configSUPPORT_DYNAMIC_ALLOCATION == 1 )
1045:Middlewares/Third_Party/FreeRTOS/Source/CMSIS_RTOS/cmsis_os.c **** 
1046:Middlewares/Third_Party/FreeRTOS/Source/CMSIS_RTOS/cmsis_os.c ****   if ((queue_def->buffer != NULL) && (queue_def->controlblock != NULL)) {
1047:Middlewares/Third_Party/FreeRTOS/Source/CMSIS_RTOS/cmsis_os.c ****     return xQueueCreateStatic(queue_def->queue_sz, queue_def->item_sz, queue_def->buffer, queue_def
1048:Middlewares/Third_Party/FreeRTOS/Source/CMSIS_RTOS/cmsis_os.c ****   }
1049:Middlewares/Third_Party/FreeRTOS/Source/CMSIS_RTOS/cmsis_os.c ****   else {
1050:Middlewares/Third_Party/FreeRTOS/Source/CMSIS_RTOS/cmsis_os.c ****     return xQueueCreate(queue_def->queue_sz, queue_def->item_sz);
1051:Middlewares/Third_Party/FreeRTOS/Source/CMSIS_RTOS/cmsis_os.c ****   }
1052:Middlewares/Third_Party/FreeRTOS/Source/CMSIS_RTOS/cmsis_os.c **** #elif ( configSUPPORT_STATIC_ALLOCATION == 1 )
1053:Middlewares/Third_Party/FreeRTOS/Source/CMSIS_RTOS/cmsis_os.c ****   return xQueueCreateStatic(queue_def->queue_sz, queue_def->item_sz, queue_def->buffer, queue_def->
1054:Middlewares/Third_Party/FreeRTOS/Source/CMSIS_RTOS/cmsis_os.c **** #else  
1055:Middlewares/Third_Party/FreeRTOS/Source/CMSIS_RTOS/cmsis_os.c ****   return xQueueCreate(queue_def->queue_sz, queue_def->item_sz);
 2045              		.loc 1 1055 3 view .LVU498
 2046              		.loc 1 1055 10 is_stmt 0 view .LVU499
 2047 0002 0022     		movs	r2, #0
 2048 0004 4168     		ldr	r1, [r0, #4]
 2049              	.LVL156:
 2050              		.loc 1 1055 10 view .LVU500
 2051 0006 0068     		ldr	r0, [r0]
 2052              	.LVL157:
 2053              		.loc 1 1055 10 view .LVU501
 2054 0008 FFF7FEFF 		bl	xQueueGenericCreate
 2055              	.LVL158:
1056:Middlewares/Third_Party/FreeRTOS/Source/CMSIS_RTOS/cmsis_os.c **** #endif
1057:Middlewares/Third_Party/FreeRTOS/Source/CMSIS_RTOS/cmsis_os.c **** }
 2056              		.loc 1 1057 1 view .LVU502
 2057 000c 08BD     		pop	{r3, pc}
 2058              		.cfi_endproc
 2059              	.LFE80:
 2061              		.section	.text.osMessagePut,"ax",%progbits
 2062              		.align	1
 2063              		.global	osMessagePut
 2064              		.syntax unified
 2065              		.thumb
 2066              		.thumb_func
 2067              		.fpu softvfp
 2069              	osMessagePut:
 2070              	.LVL159:
 2071              	.LFB81:
1058:Middlewares/Third_Party/FreeRTOS/Source/CMSIS_RTOS/cmsis_os.c **** 
ARM GAS  C:\Users\User\AppData\Local\Temp\ccTFByJK.s 			page 64


1059:Middlewares/Third_Party/FreeRTOS/Source/CMSIS_RTOS/cmsis_os.c **** /**
1060:Middlewares/Third_Party/FreeRTOS/Source/CMSIS_RTOS/cmsis_os.c **** * @brief Put a Message to a Queue.
1061:Middlewares/Third_Party/FreeRTOS/Source/CMSIS_RTOS/cmsis_os.c **** * @param  queue_id  message queue ID obtained with \ref osMessageCreate.
1062:Middlewares/Third_Party/FreeRTOS/Source/CMSIS_RTOS/cmsis_os.c **** * @param  info      message information.
1063:Middlewares/Third_Party/FreeRTOS/Source/CMSIS_RTOS/cmsis_os.c **** * @param  millisec  timeout value or 0 in case of no time-out.
1064:Middlewares/Third_Party/FreeRTOS/Source/CMSIS_RTOS/cmsis_os.c **** * @retval status code that indicates the execution status of the function.
1065:Middlewares/Third_Party/FreeRTOS/Source/CMSIS_RTOS/cmsis_os.c **** * @note   MUST REMAIN UNCHANGED: \b osMessagePut shall be consistent in every CMSIS-RTOS.
1066:Middlewares/Third_Party/FreeRTOS/Source/CMSIS_RTOS/cmsis_os.c **** */
1067:Middlewares/Third_Party/FreeRTOS/Source/CMSIS_RTOS/cmsis_os.c **** osStatus osMessagePut (osMessageQId queue_id, uint32_t info, uint32_t millisec)
1068:Middlewares/Third_Party/FreeRTOS/Source/CMSIS_RTOS/cmsis_os.c **** {
 2072              		.loc 1 1068 1 is_stmt 1 view -0
 2073              		.cfi_startproc
 2074              		@ args = 0, pretend = 0, frame = 16
 2075              		@ frame_needed = 0, uses_anonymous_args = 0
 2076              		.loc 1 1068 1 is_stmt 0 view .LVU504
 2077 0000 30B5     		push	{r4, r5, lr}
 2078              	.LCFI44:
 2079              		.cfi_def_cfa_offset 12
 2080              		.cfi_offset 4, -12
 2081              		.cfi_offset 5, -8
 2082              		.cfi_offset 14, -4
 2083 0002 85B0     		sub	sp, sp, #20
 2084              	.LCFI45:
 2085              		.cfi_def_cfa_offset 32
 2086 0004 0446     		mov	r4, r0
 2087 0006 0191     		str	r1, [sp, #4]
1069:Middlewares/Third_Party/FreeRTOS/Source/CMSIS_RTOS/cmsis_os.c ****   portBASE_TYPE taskWoken = pdFALSE;
 2088              		.loc 1 1069 3 is_stmt 1 view .LVU505
 2089              		.loc 1 1069 17 is_stmt 0 view .LVU506
 2090 0008 0023     		movs	r3, #0
 2091 000a 0393     		str	r3, [sp, #12]
1070:Middlewares/Third_Party/FreeRTOS/Source/CMSIS_RTOS/cmsis_os.c ****   TickType_t ticks;
 2092              		.loc 1 1070 3 is_stmt 1 view .LVU507
1071:Middlewares/Third_Party/FreeRTOS/Source/CMSIS_RTOS/cmsis_os.c ****   
1072:Middlewares/Third_Party/FreeRTOS/Source/CMSIS_RTOS/cmsis_os.c ****   ticks = millisec / portTICK_PERIOD_MS;
 2093              		.loc 1 1072 3 view .LVU508
 2094              	.LVL160:
1073:Middlewares/Third_Party/FreeRTOS/Source/CMSIS_RTOS/cmsis_os.c ****   if (ticks == 0) {
 2095              		.loc 1 1073 3 view .LVU509
 2096              		.loc 1 1073 6 is_stmt 0 view .LVU510
 2097 000c 1546     		mov	r5, r2
 2098 000e 02B9     		cbnz	r2, .L158
1074:Middlewares/Third_Party/FreeRTOS/Source/CMSIS_RTOS/cmsis_os.c ****     ticks = 1;
 2099              		.loc 1 1074 11 view .LVU511
 2100 0010 0125     		movs	r5, #1
 2101              	.L158:
 2102              	.LVL161:
1075:Middlewares/Third_Party/FreeRTOS/Source/CMSIS_RTOS/cmsis_os.c ****   }
1076:Middlewares/Third_Party/FreeRTOS/Source/CMSIS_RTOS/cmsis_os.c ****   
1077:Middlewares/Third_Party/FreeRTOS/Source/CMSIS_RTOS/cmsis_os.c ****   if (inHandlerMode()) {
 2103              		.loc 1 1077 3 is_stmt 1 view .LVU512
 2104              		.loc 1 1077 7 is_stmt 0 view .LVU513
 2105 0012 FFF7FEFF 		bl	inHandlerMode
 2106              	.LVL162:
 2107              		.loc 1 1077 6 view .LVU514
 2108 0016 98B1     		cbz	r0, .L159
1078:Middlewares/Third_Party/FreeRTOS/Source/CMSIS_RTOS/cmsis_os.c ****     if (xQueueSendFromISR(queue_id, &info, &taskWoken) != pdTRUE) {
ARM GAS  C:\Users\User\AppData\Local\Temp\ccTFByJK.s 			page 65


 2109              		.loc 1 1078 5 is_stmt 1 view .LVU515
 2110              		.loc 1 1078 9 is_stmt 0 view .LVU516
 2111 0018 0023     		movs	r3, #0
 2112 001a 03AA     		add	r2, sp, #12
 2113 001c 01A9     		add	r1, sp, #4
 2114 001e 2046     		mov	r0, r4
 2115 0020 FFF7FEFF 		bl	xQueueGenericSendFromISR
 2116              	.LVL163:
 2117              		.loc 1 1078 8 view .LVU517
 2118 0024 0128     		cmp	r0, #1
 2119 0026 16D1     		bne	.L162
1079:Middlewares/Third_Party/FreeRTOS/Source/CMSIS_RTOS/cmsis_os.c ****       return osErrorOS;
1080:Middlewares/Third_Party/FreeRTOS/Source/CMSIS_RTOS/cmsis_os.c ****     }
1081:Middlewares/Third_Party/FreeRTOS/Source/CMSIS_RTOS/cmsis_os.c ****     portEND_SWITCHING_ISR(taskWoken);
 2120              		.loc 1 1081 5 is_stmt 1 view .LVU518
 2121 0028 039B     		ldr	r3, [sp, #12]
 2122 002a B3B1     		cbz	r3, .L163
 2123              		.loc 1 1081 5 discriminator 1 view .LVU519
 2124 002c 0D4B     		ldr	r3, .L166
 2125 002e 4FF08052 		mov	r2, #268435456
 2126 0032 1A60     		str	r2, [r3]
 2127              		.loc 1 1081 5 discriminator 1 view .LVU520
 2128              		.syntax unified
 2129              	@ 1081 "Middlewares/Third_Party/FreeRTOS/Source/CMSIS_RTOS/cmsis_os.c" 1
 2130 0034 BFF34F8F 		dsb
 2131              	@ 0 "" 2
 2132              		.loc 1 1081 5 discriminator 1 view .LVU521
 2133              	@ 1081 "Middlewares/Third_Party/FreeRTOS/Source/CMSIS_RTOS/cmsis_os.c" 1
 2134 0038 BFF36F8F 		isb
 2135              	@ 0 "" 2
1082:Middlewares/Third_Party/FreeRTOS/Source/CMSIS_RTOS/cmsis_os.c ****   }
1083:Middlewares/Third_Party/FreeRTOS/Source/CMSIS_RTOS/cmsis_os.c ****   else {
1084:Middlewares/Third_Party/FreeRTOS/Source/CMSIS_RTOS/cmsis_os.c ****     if (xQueueSend(queue_id, &info, ticks) != pdTRUE) {
1085:Middlewares/Third_Party/FreeRTOS/Source/CMSIS_RTOS/cmsis_os.c ****       return osErrorOS;
1086:Middlewares/Third_Party/FreeRTOS/Source/CMSIS_RTOS/cmsis_os.c ****     }
1087:Middlewares/Third_Party/FreeRTOS/Source/CMSIS_RTOS/cmsis_os.c ****   }
1088:Middlewares/Third_Party/FreeRTOS/Source/CMSIS_RTOS/cmsis_os.c ****   
1089:Middlewares/Third_Party/FreeRTOS/Source/CMSIS_RTOS/cmsis_os.c ****   return osOK;
 2136              		.loc 1 1089 10 is_stmt 0 discriminator 1 view .LVU522
 2137              		.thumb
 2138              		.syntax unified
 2139 003c 0020     		movs	r0, #0
 2140 003e 08E0     		b	.L157
 2141              	.L159:
1084:Middlewares/Third_Party/FreeRTOS/Source/CMSIS_RTOS/cmsis_os.c ****       return osErrorOS;
 2142              		.loc 1 1084 5 is_stmt 1 view .LVU523
1084:Middlewares/Third_Party/FreeRTOS/Source/CMSIS_RTOS/cmsis_os.c ****       return osErrorOS;
 2143              		.loc 1 1084 9 is_stmt 0 view .LVU524
 2144 0040 0023     		movs	r3, #0
 2145 0042 2A46     		mov	r2, r5
 2146 0044 01A9     		add	r1, sp, #4
 2147 0046 2046     		mov	r0, r4
 2148 0048 FFF7FEFF 		bl	xQueueGenericSend
 2149              	.LVL164:
1084:Middlewares/Third_Party/FreeRTOS/Source/CMSIS_RTOS/cmsis_os.c ****       return osErrorOS;
 2150              		.loc 1 1084 8 view .LVU525
 2151 004c 0128     		cmp	r0, #1
ARM GAS  C:\Users\User\AppData\Local\Temp\ccTFByJK.s 			page 66


 2152 004e 06D1     		bne	.L164
 2153              		.loc 1 1089 10 view .LVU526
 2154 0050 0020     		movs	r0, #0
 2155              	.L157:
1090:Middlewares/Third_Party/FreeRTOS/Source/CMSIS_RTOS/cmsis_os.c **** }
 2156              		.loc 1 1090 1 view .LVU527
 2157 0052 05B0     		add	sp, sp, #20
 2158              	.LCFI46:
 2159              		.cfi_remember_state
 2160              		.cfi_def_cfa_offset 12
 2161              		@ sp needed
 2162 0054 30BD     		pop	{r4, r5, pc}
 2163              	.LVL165:
 2164              	.L162:
 2165              	.LCFI47:
 2166              		.cfi_restore_state
1079:Middlewares/Third_Party/FreeRTOS/Source/CMSIS_RTOS/cmsis_os.c ****     }
 2167              		.loc 1 1079 14 view .LVU528
 2168 0056 FF20     		movs	r0, #255
 2169 0058 FBE7     		b	.L157
 2170              	.L163:
1089:Middlewares/Third_Party/FreeRTOS/Source/CMSIS_RTOS/cmsis_os.c **** }
 2171              		.loc 1 1089 10 view .LVU529
 2172 005a 0020     		movs	r0, #0
 2173 005c F9E7     		b	.L157
 2174              	.L164:
1085:Middlewares/Third_Party/FreeRTOS/Source/CMSIS_RTOS/cmsis_os.c ****     }
 2175              		.loc 1 1085 14 view .LVU530
 2176 005e FF20     		movs	r0, #255
 2177 0060 F7E7     		b	.L157
 2178              	.L167:
 2179 0062 00BF     		.align	2
 2180              	.L166:
 2181 0064 04ED00E0 		.word	-536810236
 2182              		.cfi_endproc
 2183              	.LFE81:
 2185              		.section	.text.osMessageGet,"ax",%progbits
 2186              		.align	1
 2187              		.global	osMessageGet
 2188              		.syntax unified
 2189              		.thumb
 2190              		.thumb_func
 2191              		.fpu softvfp
 2193              	osMessageGet:
 2194              	.LVL166:
 2195              	.LFB82:
1091:Middlewares/Third_Party/FreeRTOS/Source/CMSIS_RTOS/cmsis_os.c **** 
1092:Middlewares/Third_Party/FreeRTOS/Source/CMSIS_RTOS/cmsis_os.c **** /**
1093:Middlewares/Third_Party/FreeRTOS/Source/CMSIS_RTOS/cmsis_os.c **** * @brief Get a Message or Wait for a Message from a Queue.
1094:Middlewares/Third_Party/FreeRTOS/Source/CMSIS_RTOS/cmsis_os.c **** * @param  queue_id  message queue ID obtained with \ref osMessageCreate.
1095:Middlewares/Third_Party/FreeRTOS/Source/CMSIS_RTOS/cmsis_os.c **** * @param  millisec  timeout value or 0 in case of no time-out.
1096:Middlewares/Third_Party/FreeRTOS/Source/CMSIS_RTOS/cmsis_os.c **** * @retval event information that includes status code.
1097:Middlewares/Third_Party/FreeRTOS/Source/CMSIS_RTOS/cmsis_os.c **** * @note   MUST REMAIN UNCHANGED: \b osMessageGet shall be consistent in every CMSIS-RTOS.
1098:Middlewares/Third_Party/FreeRTOS/Source/CMSIS_RTOS/cmsis_os.c **** */
1099:Middlewares/Third_Party/FreeRTOS/Source/CMSIS_RTOS/cmsis_os.c **** osEvent osMessageGet (osMessageQId queue_id, uint32_t millisec)
1100:Middlewares/Third_Party/FreeRTOS/Source/CMSIS_RTOS/cmsis_os.c **** {
 2196              		.loc 1 1100 1 is_stmt 1 view -0
ARM GAS  C:\Users\User\AppData\Local\Temp\ccTFByJK.s 			page 67


 2197              		.cfi_startproc
 2198              		@ args = 0, pretend = 0, frame = 16
 2199              		@ frame_needed = 0, uses_anonymous_args = 0
 2200              		.loc 1 1100 1 is_stmt 0 view .LVU532
 2201 0000 70B5     		push	{r4, r5, r6, lr}
 2202              	.LCFI48:
 2203              		.cfi_def_cfa_offset 16
 2204              		.cfi_offset 4, -16
 2205              		.cfi_offset 5, -12
 2206              		.cfi_offset 6, -8
 2207              		.cfi_offset 14, -4
 2208 0002 84B0     		sub	sp, sp, #16
 2209              	.LCFI49:
 2210              		.cfi_def_cfa_offset 32
 2211 0004 0446     		mov	r4, r0
1101:Middlewares/Third_Party/FreeRTOS/Source/CMSIS_RTOS/cmsis_os.c ****   portBASE_TYPE taskWoken;
 2212              		.loc 1 1101 3 is_stmt 1 view .LVU533
1102:Middlewares/Third_Party/FreeRTOS/Source/CMSIS_RTOS/cmsis_os.c ****   TickType_t ticks;
 2213              		.loc 1 1102 3 view .LVU534
1103:Middlewares/Third_Party/FreeRTOS/Source/CMSIS_RTOS/cmsis_os.c ****   osEvent event;
 2214              		.loc 1 1103 3 view .LVU535
1104:Middlewares/Third_Party/FreeRTOS/Source/CMSIS_RTOS/cmsis_os.c ****   
1105:Middlewares/Third_Party/FreeRTOS/Source/CMSIS_RTOS/cmsis_os.c ****   event.def.message_id = queue_id;
 2215              		.loc 1 1105 3 view .LVU536
 2216              		.loc 1 1105 24 is_stmt 0 view .LVU537
 2217 0006 0291     		str	r1, [sp, #8]
1106:Middlewares/Third_Party/FreeRTOS/Source/CMSIS_RTOS/cmsis_os.c ****   event.value.v = 0;
 2218              		.loc 1 1106 3 is_stmt 1 view .LVU538
 2219              		.loc 1 1106 17 is_stmt 0 view .LVU539
 2220 0008 0023     		movs	r3, #0
 2221 000a 0193     		str	r3, [sp, #4]
1107:Middlewares/Third_Party/FreeRTOS/Source/CMSIS_RTOS/cmsis_os.c ****   
1108:Middlewares/Third_Party/FreeRTOS/Source/CMSIS_RTOS/cmsis_os.c ****   if (queue_id == NULL) {
 2222              		.loc 1 1108 3 is_stmt 1 view .LVU540
 2223              		.loc 1 1108 6 is_stmt 0 view .LVU541
 2224 000c 49B1     		cbz	r1, .L181
 2225 000e 0D46     		mov	r5, r1
 2226 0010 1646     		mov	r6, r2
1109:Middlewares/Third_Party/FreeRTOS/Source/CMSIS_RTOS/cmsis_os.c ****     event.status = osErrorParameter;
1110:Middlewares/Third_Party/FreeRTOS/Source/CMSIS_RTOS/cmsis_os.c ****     return event;
1111:Middlewares/Third_Party/FreeRTOS/Source/CMSIS_RTOS/cmsis_os.c ****   }
1112:Middlewares/Third_Party/FreeRTOS/Source/CMSIS_RTOS/cmsis_os.c ****   
1113:Middlewares/Third_Party/FreeRTOS/Source/CMSIS_RTOS/cmsis_os.c ****   taskWoken = pdFALSE;
 2227              		.loc 1 1113 3 is_stmt 1 view .LVU542
 2228              		.loc 1 1113 13 is_stmt 0 view .LVU543
 2229 0012 0023     		movs	r3, #0
 2230 0014 0393     		str	r3, [sp, #12]
1114:Middlewares/Third_Party/FreeRTOS/Source/CMSIS_RTOS/cmsis_os.c ****   
1115:Middlewares/Third_Party/FreeRTOS/Source/CMSIS_RTOS/cmsis_os.c ****   ticks = 0;
 2231              		.loc 1 1115 3 is_stmt 1 view .LVU544
 2232              	.LVL167:
1116:Middlewares/Third_Party/FreeRTOS/Source/CMSIS_RTOS/cmsis_os.c ****   if (millisec == osWaitForever) {
 2233              		.loc 1 1116 3 view .LVU545
 2234              		.loc 1 1116 6 is_stmt 0 view .LVU546
 2235 0016 B2F1FF3F 		cmp	r2, #-1
 2236 001a 0AD0     		beq	.L178
1117:Middlewares/Third_Party/FreeRTOS/Source/CMSIS_RTOS/cmsis_os.c ****     ticks = portMAX_DELAY;
ARM GAS  C:\Users\User\AppData\Local\Temp\ccTFByJK.s 			page 68


1118:Middlewares/Third_Party/FreeRTOS/Source/CMSIS_RTOS/cmsis_os.c ****   }
1119:Middlewares/Third_Party/FreeRTOS/Source/CMSIS_RTOS/cmsis_os.c ****   else if (millisec != 0) {
 2237              		.loc 1 1119 8 is_stmt 1 view .LVU547
 2238              		.loc 1 1119 11 is_stmt 0 view .LVU548
 2239 001c 5AB9     		cbnz	r2, .L171
1115:Middlewares/Third_Party/FreeRTOS/Source/CMSIS_RTOS/cmsis_os.c ****   if (millisec == osWaitForever) {
 2240              		.loc 1 1115 9 view .LVU549
 2241 001e 1E46     		mov	r6, r3
 2242 0020 09E0     		b	.L171
 2243              	.LVL168:
 2244              	.L181:
1109:Middlewares/Third_Party/FreeRTOS/Source/CMSIS_RTOS/cmsis_os.c ****     return event;
 2245              		.loc 1 1109 5 is_stmt 1 view .LVU550
1109:Middlewares/Third_Party/FreeRTOS/Source/CMSIS_RTOS/cmsis_os.c ****     return event;
 2246              		.loc 1 1109 18 is_stmt 0 view .LVU551
 2247 0022 8023     		movs	r3, #128
 2248 0024 0093     		str	r3, [sp]
1110:Middlewares/Third_Party/FreeRTOS/Source/CMSIS_RTOS/cmsis_os.c ****   }
 2249              		.loc 1 1110 5 is_stmt 1 view .LVU552
1110:Middlewares/Third_Party/FreeRTOS/Source/CMSIS_RTOS/cmsis_os.c ****   }
 2250              		.loc 1 1110 12 is_stmt 0 view .LVU553
 2251 0026 6B46     		mov	r3, sp
 2252 0028 93E80700 		ldm	r3, {r0, r1, r2}
 2253              	.LVL169:
1110:Middlewares/Third_Party/FreeRTOS/Source/CMSIS_RTOS/cmsis_os.c ****   }
 2254              		.loc 1 1110 12 view .LVU554
 2255 002c 84E80700 		stm	r4, {r0, r1, r2}
 2256 0030 2AE0     		b	.L168
 2257              	.LVL170:
 2258              	.L178:
1117:Middlewares/Third_Party/FreeRTOS/Source/CMSIS_RTOS/cmsis_os.c ****   }
 2259              		.loc 1 1117 11 view .LVU555
 2260 0032 4FF0FF36 		mov	r6, #-1
 2261              	.L171:
 2262              	.LVL171:
1120:Middlewares/Third_Party/FreeRTOS/Source/CMSIS_RTOS/cmsis_os.c ****     ticks = millisec / portTICK_PERIOD_MS;
1121:Middlewares/Third_Party/FreeRTOS/Source/CMSIS_RTOS/cmsis_os.c ****     if (ticks == 0) {
1122:Middlewares/Third_Party/FreeRTOS/Source/CMSIS_RTOS/cmsis_os.c ****       ticks = 1;
1123:Middlewares/Third_Party/FreeRTOS/Source/CMSIS_RTOS/cmsis_os.c ****     }
1124:Middlewares/Third_Party/FreeRTOS/Source/CMSIS_RTOS/cmsis_os.c ****   }
1125:Middlewares/Third_Party/FreeRTOS/Source/CMSIS_RTOS/cmsis_os.c ****   
1126:Middlewares/Third_Party/FreeRTOS/Source/CMSIS_RTOS/cmsis_os.c ****   if (inHandlerMode()) {
 2263              		.loc 1 1126 3 is_stmt 1 view .LVU556
 2264              		.loc 1 1126 7 is_stmt 0 view .LVU557
 2265 0036 FFF7FEFF 		bl	inHandlerMode
 2266              	.LVL172:
 2267              		.loc 1 1126 6 view .LVU558
 2268 003a B0B1     		cbz	r0, .L172
1127:Middlewares/Third_Party/FreeRTOS/Source/CMSIS_RTOS/cmsis_os.c ****     if (xQueueReceiveFromISR(queue_id, &event.value.v, &taskWoken) == pdTRUE) {
 2269              		.loc 1 1127 5 is_stmt 1 view .LVU559
 2270              		.loc 1 1127 9 is_stmt 0 view .LVU560
 2271 003c 03AA     		add	r2, sp, #12
 2272 003e 01A9     		add	r1, sp, #4
 2273 0040 2846     		mov	r0, r5
 2274 0042 FFF7FEFF 		bl	xQueueReceiveFromISR
 2275              	.LVL173:
 2276              		.loc 1 1127 8 view .LVU561
ARM GAS  C:\Users\User\AppData\Local\Temp\ccTFByJK.s 			page 69


 2277 0046 0128     		cmp	r0, #1
 2278 0048 0CD0     		beq	.L182
1128:Middlewares/Third_Party/FreeRTOS/Source/CMSIS_RTOS/cmsis_os.c ****       /* We have mail */
1129:Middlewares/Third_Party/FreeRTOS/Source/CMSIS_RTOS/cmsis_os.c ****       event.status = osEventMessage;
1130:Middlewares/Third_Party/FreeRTOS/Source/CMSIS_RTOS/cmsis_os.c ****     }
1131:Middlewares/Third_Party/FreeRTOS/Source/CMSIS_RTOS/cmsis_os.c ****     else {
1132:Middlewares/Third_Party/FreeRTOS/Source/CMSIS_RTOS/cmsis_os.c ****       event.status = osOK;
 2279              		.loc 1 1132 7 is_stmt 1 view .LVU562
 2280              		.loc 1 1132 20 is_stmt 0 view .LVU563
 2281 004a 0023     		movs	r3, #0
 2282 004c 0093     		str	r3, [sp]
 2283              	.L174:
1133:Middlewares/Third_Party/FreeRTOS/Source/CMSIS_RTOS/cmsis_os.c ****     }
1134:Middlewares/Third_Party/FreeRTOS/Source/CMSIS_RTOS/cmsis_os.c ****     portEND_SWITCHING_ISR(taskWoken);
 2284              		.loc 1 1134 5 is_stmt 1 view .LVU564
 2285 004e 039B     		ldr	r3, [sp, #12]
 2286 0050 ABB1     		cbz	r3, .L175
 2287              		.loc 1 1134 5 discriminator 1 view .LVU565
 2288 0052 114B     		ldr	r3, .L184
 2289 0054 4FF08052 		mov	r2, #268435456
 2290 0058 1A60     		str	r2, [r3]
 2291              		.loc 1 1134 5 discriminator 1 view .LVU566
 2292              		.syntax unified
 2293              	@ 1134 "Middlewares/Third_Party/FreeRTOS/Source/CMSIS_RTOS/cmsis_os.c" 1
 2294 005a BFF34F8F 		dsb
 2295              	@ 0 "" 2
 2296              		.loc 1 1134 5 discriminator 1 view .LVU567
 2297              	@ 1134 "Middlewares/Third_Party/FreeRTOS/Source/CMSIS_RTOS/cmsis_os.c" 1
 2298 005e BFF36F8F 		isb
 2299              	@ 0 "" 2
 2300              		.thumb
 2301              		.syntax unified
 2302 0062 0CE0     		b	.L175
 2303              	.L182:
1129:Middlewares/Third_Party/FreeRTOS/Source/CMSIS_RTOS/cmsis_os.c ****     }
 2304              		.loc 1 1129 7 view .LVU568
1129:Middlewares/Third_Party/FreeRTOS/Source/CMSIS_RTOS/cmsis_os.c ****     }
 2305              		.loc 1 1129 20 is_stmt 0 view .LVU569
 2306 0064 1023     		movs	r3, #16
 2307 0066 0093     		str	r3, [sp]
 2308 0068 F1E7     		b	.L174
 2309              	.L172:
1135:Middlewares/Third_Party/FreeRTOS/Source/CMSIS_RTOS/cmsis_os.c ****   }
1136:Middlewares/Third_Party/FreeRTOS/Source/CMSIS_RTOS/cmsis_os.c ****   else {
1137:Middlewares/Third_Party/FreeRTOS/Source/CMSIS_RTOS/cmsis_os.c ****     if (xQueueReceive(queue_id, &event.value.v, ticks) == pdTRUE) {
 2310              		.loc 1 1137 5 is_stmt 1 view .LVU570
 2311              		.loc 1 1137 9 is_stmt 0 view .LVU571
 2312 006a 3246     		mov	r2, r6
 2313 006c 01A9     		add	r1, sp, #4
 2314 006e 2846     		mov	r0, r5
 2315 0070 FFF7FEFF 		bl	xQueueReceive
 2316              	.LVL174:
 2317              		.loc 1 1137 8 view .LVU572
 2318 0074 0128     		cmp	r0, #1
 2319 0076 0AD0     		beq	.L183
1138:Middlewares/Third_Party/FreeRTOS/Source/CMSIS_RTOS/cmsis_os.c ****       /* We have mail */
1139:Middlewares/Third_Party/FreeRTOS/Source/CMSIS_RTOS/cmsis_os.c ****       event.status = osEventMessage;
ARM GAS  C:\Users\User\AppData\Local\Temp\ccTFByJK.s 			page 70


1140:Middlewares/Third_Party/FreeRTOS/Source/CMSIS_RTOS/cmsis_os.c ****     }
1141:Middlewares/Third_Party/FreeRTOS/Source/CMSIS_RTOS/cmsis_os.c ****     else {
1142:Middlewares/Third_Party/FreeRTOS/Source/CMSIS_RTOS/cmsis_os.c ****       event.status = (ticks == 0) ? osOK : osEventTimeout;
 2320              		.loc 1 1142 7 is_stmt 1 view .LVU573
 2321              		.loc 1 1142 42 is_stmt 0 view .LVU574
 2322 0078 66B9     		cbnz	r6, .L179
 2323 007a 0023     		movs	r3, #0
 2324              	.L177:
 2325              		.loc 1 1142 20 discriminator 4 view .LVU575
 2326 007c 0093     		str	r3, [sp]
 2327              	.L175:
1143:Middlewares/Third_Party/FreeRTOS/Source/CMSIS_RTOS/cmsis_os.c ****     }
1144:Middlewares/Third_Party/FreeRTOS/Source/CMSIS_RTOS/cmsis_os.c ****   }
1145:Middlewares/Third_Party/FreeRTOS/Source/CMSIS_RTOS/cmsis_os.c ****   
1146:Middlewares/Third_Party/FreeRTOS/Source/CMSIS_RTOS/cmsis_os.c ****   return event;
 2328              		.loc 1 1146 3 is_stmt 1 view .LVU576
 2329              		.loc 1 1146 10 is_stmt 0 view .LVU577
 2330 007e 6B46     		mov	r3, sp
 2331 0080 93E80700 		ldm	r3, {r0, r1, r2}
 2332 0084 84E80700 		stm	r4, {r0, r1, r2}
 2333              	.LVL175:
 2334              	.L168:
1147:Middlewares/Third_Party/FreeRTOS/Source/CMSIS_RTOS/cmsis_os.c **** }
 2335              		.loc 1 1147 1 view .LVU578
 2336 0088 2046     		mov	r0, r4
 2337 008a 04B0     		add	sp, sp, #16
 2338              	.LCFI50:
 2339              		.cfi_remember_state
 2340              		.cfi_def_cfa_offset 16
 2341              		@ sp needed
 2342 008c 70BD     		pop	{r4, r5, r6, pc}
 2343              	.LVL176:
 2344              	.L183:
 2345              	.LCFI51:
 2346              		.cfi_restore_state
1139:Middlewares/Third_Party/FreeRTOS/Source/CMSIS_RTOS/cmsis_os.c ****     }
 2347              		.loc 1 1139 7 is_stmt 1 view .LVU579
1139:Middlewares/Third_Party/FreeRTOS/Source/CMSIS_RTOS/cmsis_os.c ****     }
 2348              		.loc 1 1139 20 is_stmt 0 view .LVU580
 2349 008e 1023     		movs	r3, #16
 2350 0090 0093     		str	r3, [sp]
 2351 0092 F4E7     		b	.L175
 2352              	.L179:
1142:Middlewares/Third_Party/FreeRTOS/Source/CMSIS_RTOS/cmsis_os.c ****     }
 2353              		.loc 1 1142 42 view .LVU581
 2354 0094 4023     		movs	r3, #64
 2355 0096 F1E7     		b	.L177
 2356              	.L185:
 2357              		.align	2
 2358              	.L184:
 2359 0098 04ED00E0 		.word	-536810236
 2360              		.cfi_endproc
 2361              	.LFE82:
 2363              		.section	.text.osMailCreate,"ax",%progbits
 2364              		.align	1
 2365              		.global	osMailCreate
 2366              		.syntax unified
ARM GAS  C:\Users\User\AppData\Local\Temp\ccTFByJK.s 			page 71


 2367              		.thumb
 2368              		.thumb_func
 2369              		.fpu softvfp
 2371              	osMailCreate:
 2372              	.LVL177:
 2373              	.LFB83:
1148:Middlewares/Third_Party/FreeRTOS/Source/CMSIS_RTOS/cmsis_os.c **** 
1149:Middlewares/Third_Party/FreeRTOS/Source/CMSIS_RTOS/cmsis_os.c **** #endif     /* Use Message Queues */
1150:Middlewares/Third_Party/FreeRTOS/Source/CMSIS_RTOS/cmsis_os.c **** 
1151:Middlewares/Third_Party/FreeRTOS/Source/CMSIS_RTOS/cmsis_os.c **** /********************   Mail Queue Management Functions  ***********************/
1152:Middlewares/Third_Party/FreeRTOS/Source/CMSIS_RTOS/cmsis_os.c **** #if (defined (osFeature_MailQ)  &&  (osFeature_MailQ != 0))  /* Use Mail Queues */
1153:Middlewares/Third_Party/FreeRTOS/Source/CMSIS_RTOS/cmsis_os.c **** 
1154:Middlewares/Third_Party/FreeRTOS/Source/CMSIS_RTOS/cmsis_os.c **** 
1155:Middlewares/Third_Party/FreeRTOS/Source/CMSIS_RTOS/cmsis_os.c **** typedef struct os_mailQ_cb {
1156:Middlewares/Third_Party/FreeRTOS/Source/CMSIS_RTOS/cmsis_os.c ****   const osMailQDef_t *queue_def;
1157:Middlewares/Third_Party/FreeRTOS/Source/CMSIS_RTOS/cmsis_os.c ****   QueueHandle_t handle;
1158:Middlewares/Third_Party/FreeRTOS/Source/CMSIS_RTOS/cmsis_os.c ****   osPoolId pool;
1159:Middlewares/Third_Party/FreeRTOS/Source/CMSIS_RTOS/cmsis_os.c **** } os_mailQ_cb_t;
1160:Middlewares/Third_Party/FreeRTOS/Source/CMSIS_RTOS/cmsis_os.c **** 
1161:Middlewares/Third_Party/FreeRTOS/Source/CMSIS_RTOS/cmsis_os.c **** /**
1162:Middlewares/Third_Party/FreeRTOS/Source/CMSIS_RTOS/cmsis_os.c **** * @brief Create and Initialize mail queue
1163:Middlewares/Third_Party/FreeRTOS/Source/CMSIS_RTOS/cmsis_os.c **** * @param  queue_def     reference to the mail queue definition obtain with \ref osMailQ
1164:Middlewares/Third_Party/FreeRTOS/Source/CMSIS_RTOS/cmsis_os.c **** * @param   thread_id     thread ID (obtained by \ref osThreadCreate or \ref osThreadGetId) or NULL.
1165:Middlewares/Third_Party/FreeRTOS/Source/CMSIS_RTOS/cmsis_os.c **** * @retval mail queue ID for reference by other functions or NULL in case of error.
1166:Middlewares/Third_Party/FreeRTOS/Source/CMSIS_RTOS/cmsis_os.c **** * @note   MUST REMAIN UNCHANGED: \b osMailCreate shall be consistent in every CMSIS-RTOS.
1167:Middlewares/Third_Party/FreeRTOS/Source/CMSIS_RTOS/cmsis_os.c **** */
1168:Middlewares/Third_Party/FreeRTOS/Source/CMSIS_RTOS/cmsis_os.c **** osMailQId osMailCreate (const osMailQDef_t *queue_def, osThreadId thread_id)
1169:Middlewares/Third_Party/FreeRTOS/Source/CMSIS_RTOS/cmsis_os.c **** {
 2374              		.loc 1 1169 1 is_stmt 1 view -0
 2375              		.cfi_startproc
 2376              		@ args = 0, pretend = 0, frame = 16
 2377              		@ frame_needed = 0, uses_anonymous_args = 0
 2378              		.loc 1 1169 1 is_stmt 0 view .LVU583
 2379 0000 30B5     		push	{r4, r5, lr}
 2380              	.LCFI52:
 2381              		.cfi_def_cfa_offset 12
 2382              		.cfi_offset 4, -12
 2383              		.cfi_offset 5, -8
 2384              		.cfi_offset 14, -4
 2385 0002 85B0     		sub	sp, sp, #20
 2386              	.LCFI53:
 2387              		.cfi_def_cfa_offset 32
 2388 0004 0446     		mov	r4, r0
1170:Middlewares/Third_Party/FreeRTOS/Source/CMSIS_RTOS/cmsis_os.c **** #if (configSUPPORT_DYNAMIC_ALLOCATION == 1)
1171:Middlewares/Third_Party/FreeRTOS/Source/CMSIS_RTOS/cmsis_os.c ****   (void) thread_id;
 2389              		.loc 1 1171 3 is_stmt 1 view .LVU584
1172:Middlewares/Third_Party/FreeRTOS/Source/CMSIS_RTOS/cmsis_os.c ****   
1173:Middlewares/Third_Party/FreeRTOS/Source/CMSIS_RTOS/cmsis_os.c ****   osPoolDef_t pool_def = {queue_def->queue_sz, queue_def->item_sz, NULL};
 2390              		.loc 1 1173 3 view .LVU585
 2391              		.loc 1 1173 36 is_stmt 0 view .LVU586
 2392 0006 0368     		ldr	r3, [r0]
 2393              		.loc 1 1173 15 view .LVU587
 2394 0008 0193     		str	r3, [sp, #4]
 2395              		.loc 1 1173 57 view .LVU588
 2396 000a 4368     		ldr	r3, [r0, #4]
 2397              		.loc 1 1173 15 view .LVU589
 2398 000c 0293     		str	r3, [sp, #8]
ARM GAS  C:\Users\User\AppData\Local\Temp\ccTFByJK.s 			page 72


 2399 000e 0023     		movs	r3, #0
 2400 0010 0393     		str	r3, [sp, #12]
1174:Middlewares/Third_Party/FreeRTOS/Source/CMSIS_RTOS/cmsis_os.c ****   
1175:Middlewares/Third_Party/FreeRTOS/Source/CMSIS_RTOS/cmsis_os.c ****   /* Create a mail queue control block */
1176:Middlewares/Third_Party/FreeRTOS/Source/CMSIS_RTOS/cmsis_os.c **** 
1177:Middlewares/Third_Party/FreeRTOS/Source/CMSIS_RTOS/cmsis_os.c ****   *(queue_def->cb) = pvPortMalloc(sizeof(struct os_mailQ_cb));
 2401              		.loc 1 1177 3 is_stmt 1 view .LVU590
 2402              		.loc 1 1177 14 is_stmt 0 view .LVU591
 2403 0012 8568     		ldr	r5, [r0, #8]
 2404              		.loc 1 1177 22 view .LVU592
 2405 0014 0C20     		movs	r0, #12
 2406              	.LVL178:
 2407              		.loc 1 1177 22 view .LVU593
 2408 0016 FFF7FEFF 		bl	pvPortMalloc
 2409              	.LVL179:
 2410              		.loc 1 1177 20 view .LVU594
 2411 001a 2860     		str	r0, [r5]
1178:Middlewares/Third_Party/FreeRTOS/Source/CMSIS_RTOS/cmsis_os.c **** 
1179:Middlewares/Third_Party/FreeRTOS/Source/CMSIS_RTOS/cmsis_os.c ****   if (*(queue_def->cb) == NULL) {
 2412              		.loc 1 1179 3 is_stmt 1 view .LVU595
 2413              		.loc 1 1179 18 is_stmt 0 view .LVU596
 2414 001c A368     		ldr	r3, [r4, #8]
 2415              		.loc 1 1179 7 view .LVU597
 2416 001e 1B68     		ldr	r3, [r3]
 2417              		.loc 1 1179 6 view .LVU598
 2418 0020 FBB1     		cbz	r3, .L189
1180:Middlewares/Third_Party/FreeRTOS/Source/CMSIS_RTOS/cmsis_os.c ****     return NULL;
1181:Middlewares/Third_Party/FreeRTOS/Source/CMSIS_RTOS/cmsis_os.c ****   }
1182:Middlewares/Third_Party/FreeRTOS/Source/CMSIS_RTOS/cmsis_os.c ****   (*(queue_def->cb))->queue_def = queue_def;
 2419              		.loc 1 1182 3 is_stmt 1 view .LVU599
 2420              		.loc 1 1182 33 is_stmt 0 view .LVU600
 2421 0022 1C60     		str	r4, [r3]
1183:Middlewares/Third_Party/FreeRTOS/Source/CMSIS_RTOS/cmsis_os.c ****   
1184:Middlewares/Third_Party/FreeRTOS/Source/CMSIS_RTOS/cmsis_os.c ****   /* Create a queue in FreeRTOS */
1185:Middlewares/Third_Party/FreeRTOS/Source/CMSIS_RTOS/cmsis_os.c ****   (*(queue_def->cb))->handle = xQueueCreate(queue_def->queue_sz, sizeof(void *));
 2422              		.loc 1 1185 3 is_stmt 1 view .LVU601
 2423              		.loc 1 1185 15 is_stmt 0 view .LVU602
 2424 0024 A368     		ldr	r3, [r4, #8]
 2425              		.loc 1 1185 4 view .LVU603
 2426 0026 1D68     		ldr	r5, [r3]
 2427              		.loc 1 1185 32 view .LVU604
 2428 0028 0022     		movs	r2, #0
 2429 002a 0421     		movs	r1, #4
 2430 002c 2068     		ldr	r0, [r4]
 2431 002e FFF7FEFF 		bl	xQueueGenericCreate
 2432              	.LVL180:
 2433              		.loc 1 1185 30 view .LVU605
 2434 0032 6860     		str	r0, [r5, #4]
1186:Middlewares/Third_Party/FreeRTOS/Source/CMSIS_RTOS/cmsis_os.c **** 
1187:Middlewares/Third_Party/FreeRTOS/Source/CMSIS_RTOS/cmsis_os.c **** 
1188:Middlewares/Third_Party/FreeRTOS/Source/CMSIS_RTOS/cmsis_os.c ****   if ((*(queue_def->cb))->handle == NULL) {
 2435              		.loc 1 1188 3 is_stmt 1 view .LVU606
 2436              		.loc 1 1188 19 is_stmt 0 view .LVU607
 2437 0034 A368     		ldr	r3, [r4, #8]
 2438              		.loc 1 1188 8 view .LVU608
 2439 0036 1D68     		ldr	r5, [r3]
 2440              		.loc 1 1188 25 view .LVU609
ARM GAS  C:\Users\User\AppData\Local\Temp\ccTFByJK.s 			page 73


 2441 0038 6B68     		ldr	r3, [r5, #4]
 2442              		.loc 1 1188 6 view .LVU610
 2443 003a 4BB1     		cbz	r3, .L191
1189:Middlewares/Third_Party/FreeRTOS/Source/CMSIS_RTOS/cmsis_os.c ****     vPortFree(*(queue_def->cb));
1190:Middlewares/Third_Party/FreeRTOS/Source/CMSIS_RTOS/cmsis_os.c ****     return NULL;
1191:Middlewares/Third_Party/FreeRTOS/Source/CMSIS_RTOS/cmsis_os.c ****   }
1192:Middlewares/Third_Party/FreeRTOS/Source/CMSIS_RTOS/cmsis_os.c ****   
1193:Middlewares/Third_Party/FreeRTOS/Source/CMSIS_RTOS/cmsis_os.c ****   /* Create a mail pool */
1194:Middlewares/Third_Party/FreeRTOS/Source/CMSIS_RTOS/cmsis_os.c ****   (*(queue_def->cb))->pool = osPoolCreate(&pool_def);
 2444              		.loc 1 1194 3 is_stmt 1 view .LVU611
 2445              		.loc 1 1194 30 is_stmt 0 view .LVU612
 2446 003c 01A8     		add	r0, sp, #4
 2447 003e FFF7FEFF 		bl	osPoolCreate
 2448              	.LVL181:
 2449              		.loc 1 1194 28 view .LVU613
 2450 0042 A860     		str	r0, [r5, #8]
1195:Middlewares/Third_Party/FreeRTOS/Source/CMSIS_RTOS/cmsis_os.c ****   if ((*(queue_def->cb))->pool == NULL) {
 2451              		.loc 1 1195 3 is_stmt 1 view .LVU614
 2452              		.loc 1 1195 19 is_stmt 0 view .LVU615
 2453 0044 A368     		ldr	r3, [r4, #8]
 2454              		.loc 1 1195 8 view .LVU616
 2455 0046 1868     		ldr	r0, [r3]
 2456              		.loc 1 1195 25 view .LVU617
 2457 0048 8368     		ldr	r3, [r0, #8]
 2458              		.loc 1 1195 6 view .LVU618
 2459 004a 33B1     		cbz	r3, .L192
 2460              	.L186:
1196:Middlewares/Third_Party/FreeRTOS/Source/CMSIS_RTOS/cmsis_os.c ****     //TODO: Delete queue. How to do it in FreeRTOS?
1197:Middlewares/Third_Party/FreeRTOS/Source/CMSIS_RTOS/cmsis_os.c ****     vPortFree(*(queue_def->cb));
1198:Middlewares/Third_Party/FreeRTOS/Source/CMSIS_RTOS/cmsis_os.c ****     return NULL;
1199:Middlewares/Third_Party/FreeRTOS/Source/CMSIS_RTOS/cmsis_os.c ****   }
1200:Middlewares/Third_Party/FreeRTOS/Source/CMSIS_RTOS/cmsis_os.c ****   
1201:Middlewares/Third_Party/FreeRTOS/Source/CMSIS_RTOS/cmsis_os.c ****   return *(queue_def->cb);
1202:Middlewares/Third_Party/FreeRTOS/Source/CMSIS_RTOS/cmsis_os.c **** #else
1203:Middlewares/Third_Party/FreeRTOS/Source/CMSIS_RTOS/cmsis_os.c ****   return NULL;
1204:Middlewares/Third_Party/FreeRTOS/Source/CMSIS_RTOS/cmsis_os.c **** #endif
1205:Middlewares/Third_Party/FreeRTOS/Source/CMSIS_RTOS/cmsis_os.c **** }
 2461              		.loc 1 1205 1 view .LVU619
 2462 004c 05B0     		add	sp, sp, #20
 2463              	.LCFI54:
 2464              		.cfi_remember_state
 2465              		.cfi_def_cfa_offset 12
 2466              		@ sp needed
 2467 004e 30BD     		pop	{r4, r5, pc}
 2468              	.LVL182:
 2469              	.L191:
 2470              	.LCFI55:
 2471              		.cfi_restore_state
1189:Middlewares/Third_Party/FreeRTOS/Source/CMSIS_RTOS/cmsis_os.c ****     return NULL;
 2472              		.loc 1 1189 5 is_stmt 1 view .LVU620
 2473 0050 2846     		mov	r0, r5
 2474 0052 FFF7FEFF 		bl	vPortFree
 2475              	.LVL183:
1190:Middlewares/Third_Party/FreeRTOS/Source/CMSIS_RTOS/cmsis_os.c ****   }
 2476              		.loc 1 1190 5 view .LVU621
1190:Middlewares/Third_Party/FreeRTOS/Source/CMSIS_RTOS/cmsis_os.c ****   }
 2477              		.loc 1 1190 12 is_stmt 0 view .LVU622
ARM GAS  C:\Users\User\AppData\Local\Temp\ccTFByJK.s 			page 74


 2478 0056 0020     		movs	r0, #0
 2479 0058 F8E7     		b	.L186
 2480              	.L192:
1197:Middlewares/Third_Party/FreeRTOS/Source/CMSIS_RTOS/cmsis_os.c ****     return NULL;
 2481              		.loc 1 1197 5 is_stmt 1 view .LVU623
 2482 005a FFF7FEFF 		bl	vPortFree
 2483              	.LVL184:
1198:Middlewares/Third_Party/FreeRTOS/Source/CMSIS_RTOS/cmsis_os.c ****   }
 2484              		.loc 1 1198 5 view .LVU624
1198:Middlewares/Third_Party/FreeRTOS/Source/CMSIS_RTOS/cmsis_os.c ****   }
 2485              		.loc 1 1198 12 is_stmt 0 view .LVU625
 2486 005e 0020     		movs	r0, #0
 2487 0060 F4E7     		b	.L186
 2488              	.L189:
1180:Middlewares/Third_Party/FreeRTOS/Source/CMSIS_RTOS/cmsis_os.c ****   }
 2489              		.loc 1 1180 12 view .LVU626
 2490 0062 0020     		movs	r0, #0
 2491 0064 F2E7     		b	.L186
 2492              		.cfi_endproc
 2493              	.LFE83:
 2495              		.section	.text.osMailAlloc,"ax",%progbits
 2496              		.align	1
 2497              		.global	osMailAlloc
 2498              		.syntax unified
 2499              		.thumb
 2500              		.thumb_func
 2501              		.fpu softvfp
 2503              	osMailAlloc:
 2504              	.LVL185:
 2505              	.LFB84:
1206:Middlewares/Third_Party/FreeRTOS/Source/CMSIS_RTOS/cmsis_os.c **** 
1207:Middlewares/Third_Party/FreeRTOS/Source/CMSIS_RTOS/cmsis_os.c **** /**
1208:Middlewares/Third_Party/FreeRTOS/Source/CMSIS_RTOS/cmsis_os.c **** * @brief Allocate a memory block from a mail
1209:Middlewares/Third_Party/FreeRTOS/Source/CMSIS_RTOS/cmsis_os.c **** * @param  queue_id      mail queue ID obtained with \ref osMailCreate.
1210:Middlewares/Third_Party/FreeRTOS/Source/CMSIS_RTOS/cmsis_os.c **** * @param  millisec      timeout value or 0 in case of no time-out.
1211:Middlewares/Third_Party/FreeRTOS/Source/CMSIS_RTOS/cmsis_os.c **** * @retval pointer to memory block that can be filled with mail or NULL in case error.
1212:Middlewares/Third_Party/FreeRTOS/Source/CMSIS_RTOS/cmsis_os.c **** * @note   MUST REMAIN UNCHANGED: \b osMailAlloc shall be consistent in every CMSIS-RTOS.
1213:Middlewares/Third_Party/FreeRTOS/Source/CMSIS_RTOS/cmsis_os.c **** */
1214:Middlewares/Third_Party/FreeRTOS/Source/CMSIS_RTOS/cmsis_os.c **** void *osMailAlloc (osMailQId queue_id, uint32_t millisec)
1215:Middlewares/Third_Party/FreeRTOS/Source/CMSIS_RTOS/cmsis_os.c **** {
 2506              		.loc 1 1215 1 is_stmt 1 view -0
 2507              		.cfi_startproc
 2508              		@ args = 0, pretend = 0, frame = 0
 2509              		@ frame_needed = 0, uses_anonymous_args = 0
1216:Middlewares/Third_Party/FreeRTOS/Source/CMSIS_RTOS/cmsis_os.c ****   (void) millisec;
 2510              		.loc 1 1216 3 view .LVU628
1217:Middlewares/Third_Party/FreeRTOS/Source/CMSIS_RTOS/cmsis_os.c ****   void *p;
 2511              		.loc 1 1217 3 view .LVU629
1218:Middlewares/Third_Party/FreeRTOS/Source/CMSIS_RTOS/cmsis_os.c ****   
1219:Middlewares/Third_Party/FreeRTOS/Source/CMSIS_RTOS/cmsis_os.c ****   
1220:Middlewares/Third_Party/FreeRTOS/Source/CMSIS_RTOS/cmsis_os.c ****   if (queue_id == NULL) {
 2512              		.loc 1 1220 3 view .LVU630
 2513              		.loc 1 1220 6 is_stmt 0 view .LVU631
 2514 0000 20B1     		cbz	r0, .L195
1215:Middlewares/Third_Party/FreeRTOS/Source/CMSIS_RTOS/cmsis_os.c ****   (void) millisec;
 2515              		.loc 1 1215 1 view .LVU632
 2516 0002 08B5     		push	{r3, lr}
ARM GAS  C:\Users\User\AppData\Local\Temp\ccTFByJK.s 			page 75


 2517              	.LCFI56:
 2518              		.cfi_def_cfa_offset 8
 2519              		.cfi_offset 3, -8
 2520              		.cfi_offset 14, -4
1221:Middlewares/Third_Party/FreeRTOS/Source/CMSIS_RTOS/cmsis_os.c ****     return NULL;
1222:Middlewares/Third_Party/FreeRTOS/Source/CMSIS_RTOS/cmsis_os.c ****   }
1223:Middlewares/Third_Party/FreeRTOS/Source/CMSIS_RTOS/cmsis_os.c ****   
1224:Middlewares/Third_Party/FreeRTOS/Source/CMSIS_RTOS/cmsis_os.c ****   p = osPoolAlloc(queue_id->pool);
 2521              		.loc 1 1224 3 is_stmt 1 view .LVU633
 2522              		.loc 1 1224 7 is_stmt 0 view .LVU634
 2523 0004 8068     		ldr	r0, [r0, #8]
 2524              	.LVL186:
 2525              		.loc 1 1224 7 view .LVU635
 2526 0006 FFF7FEFF 		bl	osPoolAlloc
 2527              	.LVL187:
1225:Middlewares/Third_Party/FreeRTOS/Source/CMSIS_RTOS/cmsis_os.c ****   
1226:Middlewares/Third_Party/FreeRTOS/Source/CMSIS_RTOS/cmsis_os.c ****   return p;
 2528              		.loc 1 1226 3 is_stmt 1 view .LVU636
1227:Middlewares/Third_Party/FreeRTOS/Source/CMSIS_RTOS/cmsis_os.c **** }
 2529              		.loc 1 1227 1 is_stmt 0 view .LVU637
 2530 000a 08BD     		pop	{r3, pc}
 2531              	.LVL188:
 2532              	.L195:
 2533              	.LCFI57:
 2534              		.cfi_def_cfa_offset 0
 2535              		.cfi_restore 3
 2536              		.cfi_restore 14
1221:Middlewares/Third_Party/FreeRTOS/Source/CMSIS_RTOS/cmsis_os.c ****     return NULL;
 2537              		.loc 1 1221 12 view .LVU638
 2538 000c 0020     		movs	r0, #0
 2539              	.LVL189:
 2540              		.loc 1 1227 1 view .LVU639
 2541 000e 7047     		bx	lr
 2542              		.cfi_endproc
 2543              	.LFE84:
 2545              		.section	.text.osMailCAlloc,"ax",%progbits
 2546              		.align	1
 2547              		.global	osMailCAlloc
 2548              		.syntax unified
 2549              		.thumb
 2550              		.thumb_func
 2551              		.fpu softvfp
 2553              	osMailCAlloc:
 2554              	.LVL190:
 2555              	.LFB85:
1228:Middlewares/Third_Party/FreeRTOS/Source/CMSIS_RTOS/cmsis_os.c **** 
1229:Middlewares/Third_Party/FreeRTOS/Source/CMSIS_RTOS/cmsis_os.c **** /**
1230:Middlewares/Third_Party/FreeRTOS/Source/CMSIS_RTOS/cmsis_os.c **** * @brief Allocate a memory block from a mail and set memory block to zero
1231:Middlewares/Third_Party/FreeRTOS/Source/CMSIS_RTOS/cmsis_os.c **** * @param  queue_id      mail queue ID obtained with \ref osMailCreate.
1232:Middlewares/Third_Party/FreeRTOS/Source/CMSIS_RTOS/cmsis_os.c **** * @param  millisec      timeout value or 0 in case of no time-out.
1233:Middlewares/Third_Party/FreeRTOS/Source/CMSIS_RTOS/cmsis_os.c **** * @retval pointer to memory block that can be filled with mail or NULL in case error.
1234:Middlewares/Third_Party/FreeRTOS/Source/CMSIS_RTOS/cmsis_os.c **** * @note   MUST REMAIN UNCHANGED: \b osMailCAlloc shall be consistent in every CMSIS-RTOS.
1235:Middlewares/Third_Party/FreeRTOS/Source/CMSIS_RTOS/cmsis_os.c **** */
1236:Middlewares/Third_Party/FreeRTOS/Source/CMSIS_RTOS/cmsis_os.c **** void *osMailCAlloc (osMailQId queue_id, uint32_t millisec)
1237:Middlewares/Third_Party/FreeRTOS/Source/CMSIS_RTOS/cmsis_os.c **** {
 2556              		.loc 1 1237 1 is_stmt 1 view -0
 2557              		.cfi_startproc
ARM GAS  C:\Users\User\AppData\Local\Temp\ccTFByJK.s 			page 76


 2558              		@ args = 0, pretend = 0, frame = 0
 2559              		@ frame_needed = 0, uses_anonymous_args = 0
 2560              		.loc 1 1237 1 is_stmt 0 view .LVU641
 2561 0000 10B5     		push	{r4, lr}
 2562              	.LCFI58:
 2563              		.cfi_def_cfa_offset 8
 2564              		.cfi_offset 4, -8
 2565              		.cfi_offset 14, -4
 2566 0002 0446     		mov	r4, r0
1238:Middlewares/Third_Party/FreeRTOS/Source/CMSIS_RTOS/cmsis_os.c ****   uint32_t i;
 2567              		.loc 1 1238 3 is_stmt 1 view .LVU642
1239:Middlewares/Third_Party/FreeRTOS/Source/CMSIS_RTOS/cmsis_os.c ****   void *p = osMailAlloc(queue_id, millisec);
 2568              		.loc 1 1239 3 view .LVU643
 2569              		.loc 1 1239 13 is_stmt 0 view .LVU644
 2570 0004 FFF7FEFF 		bl	osMailAlloc
 2571              	.LVL191:
1240:Middlewares/Third_Party/FreeRTOS/Source/CMSIS_RTOS/cmsis_os.c ****   
1241:Middlewares/Third_Party/FreeRTOS/Source/CMSIS_RTOS/cmsis_os.c ****   if (p) {
 2572              		.loc 1 1241 3 is_stmt 1 view .LVU645
 2573              		.loc 1 1241 6 is_stmt 0 view .LVU646
 2574 0008 0146     		mov	r1, r0
 2575 000a 40B1     		cbz	r0, .L200
1242:Middlewares/Third_Party/FreeRTOS/Source/CMSIS_RTOS/cmsis_os.c ****     for (i = 0; i < queue_id->queue_def->item_sz; i++) {
 2576              		.loc 1 1242 12 view .LVU647
 2577 000c 0023     		movs	r3, #0
 2578              	.L201:
 2579              	.LVL192:
 2580              		.loc 1 1242 29 discriminator 1 view .LVU648
 2581 000e 2268     		ldr	r2, [r4]
 2582              		.loc 1 1242 40 discriminator 1 view .LVU649
 2583 0010 5268     		ldr	r2, [r2, #4]
 2584              		.loc 1 1242 5 discriminator 1 view .LVU650
 2585 0012 9A42     		cmp	r2, r3
 2586 0014 03D9     		bls	.L200
1243:Middlewares/Third_Party/FreeRTOS/Source/CMSIS_RTOS/cmsis_os.c ****       ((uint8_t *)p)[i] = 0;
 2587              		.loc 1 1243 7 is_stmt 1 discriminator 3 view .LVU651
 2588              		.loc 1 1243 25 is_stmt 0 discriminator 3 view .LVU652
 2589 0016 0022     		movs	r2, #0
 2590 0018 CA54     		strb	r2, [r1, r3]
1242:Middlewares/Third_Party/FreeRTOS/Source/CMSIS_RTOS/cmsis_os.c ****     for (i = 0; i < queue_id->queue_def->item_sz; i++) {
 2591              		.loc 1 1242 52 discriminator 3 view .LVU653
 2592 001a 0133     		adds	r3, r3, #1
 2593              	.LVL193:
1242:Middlewares/Third_Party/FreeRTOS/Source/CMSIS_RTOS/cmsis_os.c ****     for (i = 0; i < queue_id->queue_def->item_sz; i++) {
 2594              		.loc 1 1242 52 discriminator 3 view .LVU654
 2595 001c F7E7     		b	.L201
 2596              	.LVL194:
 2597              	.L200:
1244:Middlewares/Third_Party/FreeRTOS/Source/CMSIS_RTOS/cmsis_os.c ****     }
1245:Middlewares/Third_Party/FreeRTOS/Source/CMSIS_RTOS/cmsis_os.c ****   }
1246:Middlewares/Third_Party/FreeRTOS/Source/CMSIS_RTOS/cmsis_os.c ****   
1247:Middlewares/Third_Party/FreeRTOS/Source/CMSIS_RTOS/cmsis_os.c ****   return p;
1248:Middlewares/Third_Party/FreeRTOS/Source/CMSIS_RTOS/cmsis_os.c **** }
 2598              		.loc 1 1248 1 view .LVU655
 2599 001e 0846     		mov	r0, r1
 2600              	.LVL195:
 2601              		.loc 1 1248 1 view .LVU656
ARM GAS  C:\Users\User\AppData\Local\Temp\ccTFByJK.s 			page 77


 2602 0020 10BD     		pop	{r4, pc}
 2603              		.loc 1 1248 1 view .LVU657
 2604              		.cfi_endproc
 2605              	.LFE85:
 2607              		.section	.text.osMailPut,"ax",%progbits
 2608              		.align	1
 2609              		.global	osMailPut
 2610              		.syntax unified
 2611              		.thumb
 2612              		.thumb_func
 2613              		.fpu softvfp
 2615              	osMailPut:
 2616              	.LVL196:
 2617              	.LFB86:
1249:Middlewares/Third_Party/FreeRTOS/Source/CMSIS_RTOS/cmsis_os.c **** 
1250:Middlewares/Third_Party/FreeRTOS/Source/CMSIS_RTOS/cmsis_os.c **** /**
1251:Middlewares/Third_Party/FreeRTOS/Source/CMSIS_RTOS/cmsis_os.c **** * @brief Put a mail to a queue
1252:Middlewares/Third_Party/FreeRTOS/Source/CMSIS_RTOS/cmsis_os.c **** * @param  queue_id      mail queue ID obtained with \ref osMailCreate.
1253:Middlewares/Third_Party/FreeRTOS/Source/CMSIS_RTOS/cmsis_os.c **** * @param  mail          memory block previously allocated with \ref osMailAlloc or \ref osMailCAllo
1254:Middlewares/Third_Party/FreeRTOS/Source/CMSIS_RTOS/cmsis_os.c **** * @retval status code that indicates the execution status of the function.
1255:Middlewares/Third_Party/FreeRTOS/Source/CMSIS_RTOS/cmsis_os.c **** * @note   MUST REMAIN UNCHANGED: \b osMailPut shall be consistent in every CMSIS-RTOS.
1256:Middlewares/Third_Party/FreeRTOS/Source/CMSIS_RTOS/cmsis_os.c **** */
1257:Middlewares/Third_Party/FreeRTOS/Source/CMSIS_RTOS/cmsis_os.c **** osStatus osMailPut (osMailQId queue_id, void *mail)
1258:Middlewares/Third_Party/FreeRTOS/Source/CMSIS_RTOS/cmsis_os.c **** {
 2618              		.loc 1 1258 1 is_stmt 1 view -0
 2619              		.cfi_startproc
 2620              		@ args = 0, pretend = 0, frame = 16
 2621              		@ frame_needed = 0, uses_anonymous_args = 0
 2622              		.loc 1 1258 1 is_stmt 0 view .LVU659
 2623 0000 10B5     		push	{r4, lr}
 2624              	.LCFI59:
 2625              		.cfi_def_cfa_offset 8
 2626              		.cfi_offset 4, -8
 2627              		.cfi_offset 14, -4
 2628 0002 84B0     		sub	sp, sp, #16
 2629              	.LCFI60:
 2630              		.cfi_def_cfa_offset 24
 2631 0004 0191     		str	r1, [sp, #4]
1259:Middlewares/Third_Party/FreeRTOS/Source/CMSIS_RTOS/cmsis_os.c ****   portBASE_TYPE taskWoken;
 2632              		.loc 1 1259 3 is_stmt 1 view .LVU660
1260:Middlewares/Third_Party/FreeRTOS/Source/CMSIS_RTOS/cmsis_os.c ****   
1261:Middlewares/Third_Party/FreeRTOS/Source/CMSIS_RTOS/cmsis_os.c ****   
1262:Middlewares/Third_Party/FreeRTOS/Source/CMSIS_RTOS/cmsis_os.c ****   if (queue_id == NULL) {
 2633              		.loc 1 1262 3 view .LVU661
 2634              		.loc 1 1262 6 is_stmt 0 view .LVU662
 2635 0006 20B3     		cbz	r0, .L209
 2636 0008 0446     		mov	r4, r0
1263:Middlewares/Third_Party/FreeRTOS/Source/CMSIS_RTOS/cmsis_os.c ****     return osErrorParameter;
1264:Middlewares/Third_Party/FreeRTOS/Source/CMSIS_RTOS/cmsis_os.c ****   }
1265:Middlewares/Third_Party/FreeRTOS/Source/CMSIS_RTOS/cmsis_os.c ****   
1266:Middlewares/Third_Party/FreeRTOS/Source/CMSIS_RTOS/cmsis_os.c ****   taskWoken = pdFALSE;
 2637              		.loc 1 1266 3 is_stmt 1 view .LVU663
 2638              		.loc 1 1266 13 is_stmt 0 view .LVU664
 2639 000a 0023     		movs	r3, #0
 2640 000c 0393     		str	r3, [sp, #12]
1267:Middlewares/Third_Party/FreeRTOS/Source/CMSIS_RTOS/cmsis_os.c ****   
1268:Middlewares/Third_Party/FreeRTOS/Source/CMSIS_RTOS/cmsis_os.c ****   if (inHandlerMode()) {
ARM GAS  C:\Users\User\AppData\Local\Temp\ccTFByJK.s 			page 78


 2641              		.loc 1 1268 3 is_stmt 1 view .LVU665
 2642              		.loc 1 1268 7 is_stmt 0 view .LVU666
 2643 000e FFF7FEFF 		bl	inHandlerMode
 2644              	.LVL197:
 2645              		.loc 1 1268 6 view .LVU667
 2646 0012 98B1     		cbz	r0, .L208
1269:Middlewares/Third_Party/FreeRTOS/Source/CMSIS_RTOS/cmsis_os.c ****     if (xQueueSendFromISR(queue_id->handle, &mail, &taskWoken) != pdTRUE) {
 2647              		.loc 1 1269 5 is_stmt 1 view .LVU668
 2648              		.loc 1 1269 9 is_stmt 0 view .LVU669
 2649 0014 0023     		movs	r3, #0
 2650 0016 03AA     		add	r2, sp, #12
 2651 0018 01A9     		add	r1, sp, #4
 2652 001a 6068     		ldr	r0, [r4, #4]
 2653 001c FFF7FEFF 		bl	xQueueGenericSendFromISR
 2654              	.LVL198:
 2655              		.loc 1 1269 8 view .LVU670
 2656 0020 0128     		cmp	r0, #1
 2657 0022 18D1     		bne	.L210
1270:Middlewares/Third_Party/FreeRTOS/Source/CMSIS_RTOS/cmsis_os.c ****       return osErrorOS;
1271:Middlewares/Third_Party/FreeRTOS/Source/CMSIS_RTOS/cmsis_os.c ****     }
1272:Middlewares/Third_Party/FreeRTOS/Source/CMSIS_RTOS/cmsis_os.c ****     portEND_SWITCHING_ISR(taskWoken);
 2658              		.loc 1 1272 5 is_stmt 1 view .LVU671
 2659 0024 039B     		ldr	r3, [sp, #12]
 2660 0026 C3B1     		cbz	r3, .L211
 2661              		.loc 1 1272 5 discriminator 1 view .LVU672
 2662 0028 0E4B     		ldr	r3, .L214
 2663 002a 4FF08052 		mov	r2, #268435456
 2664 002e 1A60     		str	r2, [r3]
 2665              		.loc 1 1272 5 discriminator 1 view .LVU673
 2666              		.syntax unified
 2667              	@ 1272 "Middlewares/Third_Party/FreeRTOS/Source/CMSIS_RTOS/cmsis_os.c" 1
 2668 0030 BFF34F8F 		dsb
 2669              	@ 0 "" 2
 2670              		.loc 1 1272 5 discriminator 1 view .LVU674
 2671              	@ 1272 "Middlewares/Third_Party/FreeRTOS/Source/CMSIS_RTOS/cmsis_os.c" 1
 2672 0034 BFF36F8F 		isb
 2673              	@ 0 "" 2
1273:Middlewares/Third_Party/FreeRTOS/Source/CMSIS_RTOS/cmsis_os.c ****   }
1274:Middlewares/Third_Party/FreeRTOS/Source/CMSIS_RTOS/cmsis_os.c ****   else {
1275:Middlewares/Third_Party/FreeRTOS/Source/CMSIS_RTOS/cmsis_os.c ****     if (xQueueSend(queue_id->handle, &mail, 0) != pdTRUE) { 
1276:Middlewares/Third_Party/FreeRTOS/Source/CMSIS_RTOS/cmsis_os.c ****       return osErrorOS;
1277:Middlewares/Third_Party/FreeRTOS/Source/CMSIS_RTOS/cmsis_os.c ****     }
1278:Middlewares/Third_Party/FreeRTOS/Source/CMSIS_RTOS/cmsis_os.c ****   }
1279:Middlewares/Third_Party/FreeRTOS/Source/CMSIS_RTOS/cmsis_os.c ****   
1280:Middlewares/Third_Party/FreeRTOS/Source/CMSIS_RTOS/cmsis_os.c ****   return osOK;
 2674              		.loc 1 1280 10 is_stmt 0 discriminator 1 view .LVU675
 2675              		.thumb
 2676              		.syntax unified
 2677 0038 0020     		movs	r0, #0
 2678 003a 08E0     		b	.L206
 2679              	.L208:
1275:Middlewares/Third_Party/FreeRTOS/Source/CMSIS_RTOS/cmsis_os.c ****       return osErrorOS;
 2680              		.loc 1 1275 5 is_stmt 1 view .LVU676
1275:Middlewares/Third_Party/FreeRTOS/Source/CMSIS_RTOS/cmsis_os.c ****       return osErrorOS;
 2681              		.loc 1 1275 9 is_stmt 0 view .LVU677
 2682 003c 0023     		movs	r3, #0
 2683 003e 1A46     		mov	r2, r3
ARM GAS  C:\Users\User\AppData\Local\Temp\ccTFByJK.s 			page 79


 2684 0040 01A9     		add	r1, sp, #4
 2685 0042 6068     		ldr	r0, [r4, #4]
 2686 0044 FFF7FEFF 		bl	xQueueGenericSend
 2687              	.LVL199:
1275:Middlewares/Third_Party/FreeRTOS/Source/CMSIS_RTOS/cmsis_os.c ****       return osErrorOS;
 2688              		.loc 1 1275 8 view .LVU678
 2689 0048 0128     		cmp	r0, #1
 2690 004a 08D1     		bne	.L212
 2691              		.loc 1 1280 10 view .LVU679
 2692 004c 0020     		movs	r0, #0
 2693              	.LVL200:
 2694              	.L206:
1281:Middlewares/Third_Party/FreeRTOS/Source/CMSIS_RTOS/cmsis_os.c **** }
 2695              		.loc 1 1281 1 view .LVU680
 2696 004e 04B0     		add	sp, sp, #16
 2697              	.LCFI61:
 2698              		.cfi_remember_state
 2699              		.cfi_def_cfa_offset 8
 2700              		@ sp needed
 2701 0050 10BD     		pop	{r4, pc}
 2702              	.LVL201:
 2703              	.L209:
 2704              	.LCFI62:
 2705              		.cfi_restore_state
1263:Middlewares/Third_Party/FreeRTOS/Source/CMSIS_RTOS/cmsis_os.c ****   }
 2706              		.loc 1 1263 12 view .LVU681
 2707 0052 8020     		movs	r0, #128
 2708              	.LVL202:
1263:Middlewares/Third_Party/FreeRTOS/Source/CMSIS_RTOS/cmsis_os.c ****   }
 2709              		.loc 1 1263 12 view .LVU682
 2710 0054 FBE7     		b	.L206
 2711              	.LVL203:
 2712              	.L210:
1270:Middlewares/Third_Party/FreeRTOS/Source/CMSIS_RTOS/cmsis_os.c ****     }
 2713              		.loc 1 1270 14 view .LVU683
 2714 0056 FF20     		movs	r0, #255
 2715 0058 F9E7     		b	.L206
 2716              	.L211:
1280:Middlewares/Third_Party/FreeRTOS/Source/CMSIS_RTOS/cmsis_os.c **** }
 2717              		.loc 1 1280 10 view .LVU684
 2718 005a 0020     		movs	r0, #0
 2719 005c F7E7     		b	.L206
 2720              	.L212:
1276:Middlewares/Third_Party/FreeRTOS/Source/CMSIS_RTOS/cmsis_os.c ****     }
 2721              		.loc 1 1276 14 view .LVU685
 2722 005e FF20     		movs	r0, #255
 2723 0060 F5E7     		b	.L206
 2724              	.L215:
 2725 0062 00BF     		.align	2
 2726              	.L214:
 2727 0064 04ED00E0 		.word	-536810236
 2728              		.cfi_endproc
 2729              	.LFE86:
 2731              		.section	.text.osMailGet,"ax",%progbits
 2732              		.align	1
 2733              		.global	osMailGet
 2734              		.syntax unified
ARM GAS  C:\Users\User\AppData\Local\Temp\ccTFByJK.s 			page 80


 2735              		.thumb
 2736              		.thumb_func
 2737              		.fpu softvfp
 2739              	osMailGet:
 2740              	.LVL204:
 2741              	.LFB87:
1282:Middlewares/Third_Party/FreeRTOS/Source/CMSIS_RTOS/cmsis_os.c **** 
1283:Middlewares/Third_Party/FreeRTOS/Source/CMSIS_RTOS/cmsis_os.c **** /**
1284:Middlewares/Third_Party/FreeRTOS/Source/CMSIS_RTOS/cmsis_os.c **** * @brief Get a mail from a queue
1285:Middlewares/Third_Party/FreeRTOS/Source/CMSIS_RTOS/cmsis_os.c **** * @param  queue_id   mail queue ID obtained with \ref osMailCreate.
1286:Middlewares/Third_Party/FreeRTOS/Source/CMSIS_RTOS/cmsis_os.c **** * @param millisec    timeout value or 0 in case of no time-out
1287:Middlewares/Third_Party/FreeRTOS/Source/CMSIS_RTOS/cmsis_os.c **** * @retval event that contains mail information or error code.
1288:Middlewares/Third_Party/FreeRTOS/Source/CMSIS_RTOS/cmsis_os.c **** * @note   MUST REMAIN UNCHANGED: \b osMailGet shall be consistent in every CMSIS-RTOS.
1289:Middlewares/Third_Party/FreeRTOS/Source/CMSIS_RTOS/cmsis_os.c **** */
1290:Middlewares/Third_Party/FreeRTOS/Source/CMSIS_RTOS/cmsis_os.c **** osEvent osMailGet (osMailQId queue_id, uint32_t millisec)
1291:Middlewares/Third_Party/FreeRTOS/Source/CMSIS_RTOS/cmsis_os.c **** {
 2742              		.loc 1 1291 1 is_stmt 1 view -0
 2743              		.cfi_startproc
 2744              		@ args = 0, pretend = 0, frame = 16
 2745              		@ frame_needed = 0, uses_anonymous_args = 0
 2746              		.loc 1 1291 1 is_stmt 0 view .LVU687
 2747 0000 70B5     		push	{r4, r5, r6, lr}
 2748              	.LCFI63:
 2749              		.cfi_def_cfa_offset 16
 2750              		.cfi_offset 4, -16
 2751              		.cfi_offset 5, -12
 2752              		.cfi_offset 6, -8
 2753              		.cfi_offset 14, -4
 2754 0002 84B0     		sub	sp, sp, #16
 2755              	.LCFI64:
 2756              		.cfi_def_cfa_offset 32
 2757 0004 0446     		mov	r4, r0
1292:Middlewares/Third_Party/FreeRTOS/Source/CMSIS_RTOS/cmsis_os.c ****   portBASE_TYPE taskWoken;
 2758              		.loc 1 1292 3 is_stmt 1 view .LVU688
1293:Middlewares/Third_Party/FreeRTOS/Source/CMSIS_RTOS/cmsis_os.c ****   TickType_t ticks;
 2759              		.loc 1 1293 3 view .LVU689
1294:Middlewares/Third_Party/FreeRTOS/Source/CMSIS_RTOS/cmsis_os.c ****   osEvent event;
 2760              		.loc 1 1294 3 view .LVU690
1295:Middlewares/Third_Party/FreeRTOS/Source/CMSIS_RTOS/cmsis_os.c ****   
1296:Middlewares/Third_Party/FreeRTOS/Source/CMSIS_RTOS/cmsis_os.c ****   event.def.mail_id = queue_id;
 2761              		.loc 1 1296 3 view .LVU691
 2762              		.loc 1 1296 21 is_stmt 0 view .LVU692
 2763 0006 0291     		str	r1, [sp, #8]
1297:Middlewares/Third_Party/FreeRTOS/Source/CMSIS_RTOS/cmsis_os.c ****   
1298:Middlewares/Third_Party/FreeRTOS/Source/CMSIS_RTOS/cmsis_os.c ****   if (queue_id == NULL) {
 2764              		.loc 1 1298 3 is_stmt 1 view .LVU693
 2765              		.loc 1 1298 6 is_stmt 0 view .LVU694
 2766 0008 49B1     		cbz	r1, .L229
 2767 000a 0D46     		mov	r5, r1
 2768 000c 1646     		mov	r6, r2
1299:Middlewares/Third_Party/FreeRTOS/Source/CMSIS_RTOS/cmsis_os.c ****     event.status = osErrorParameter;
1300:Middlewares/Third_Party/FreeRTOS/Source/CMSIS_RTOS/cmsis_os.c ****     return event;
1301:Middlewares/Third_Party/FreeRTOS/Source/CMSIS_RTOS/cmsis_os.c ****   }
1302:Middlewares/Third_Party/FreeRTOS/Source/CMSIS_RTOS/cmsis_os.c ****   
1303:Middlewares/Third_Party/FreeRTOS/Source/CMSIS_RTOS/cmsis_os.c ****   taskWoken = pdFALSE;
 2769              		.loc 1 1303 3 is_stmt 1 view .LVU695
 2770              		.loc 1 1303 13 is_stmt 0 view .LVU696
ARM GAS  C:\Users\User\AppData\Local\Temp\ccTFByJK.s 			page 81


 2771 000e 0023     		movs	r3, #0
 2772 0010 0393     		str	r3, [sp, #12]
1304:Middlewares/Third_Party/FreeRTOS/Source/CMSIS_RTOS/cmsis_os.c ****   
1305:Middlewares/Third_Party/FreeRTOS/Source/CMSIS_RTOS/cmsis_os.c ****   ticks = 0;
 2773              		.loc 1 1305 3 is_stmt 1 view .LVU697
 2774              	.LVL205:
1306:Middlewares/Third_Party/FreeRTOS/Source/CMSIS_RTOS/cmsis_os.c ****   if (millisec == osWaitForever) {
 2775              		.loc 1 1306 3 view .LVU698
 2776              		.loc 1 1306 6 is_stmt 0 view .LVU699
 2777 0012 B2F1FF3F 		cmp	r2, #-1
 2778 0016 0AD0     		beq	.L226
1307:Middlewares/Third_Party/FreeRTOS/Source/CMSIS_RTOS/cmsis_os.c ****     ticks = portMAX_DELAY;
1308:Middlewares/Third_Party/FreeRTOS/Source/CMSIS_RTOS/cmsis_os.c ****   }
1309:Middlewares/Third_Party/FreeRTOS/Source/CMSIS_RTOS/cmsis_os.c ****   else if (millisec != 0) {
 2779              		.loc 1 1309 8 is_stmt 1 view .LVU700
 2780              		.loc 1 1309 11 is_stmt 0 view .LVU701
 2781 0018 5AB9     		cbnz	r2, .L219
1305:Middlewares/Third_Party/FreeRTOS/Source/CMSIS_RTOS/cmsis_os.c ****   if (millisec == osWaitForever) {
 2782              		.loc 1 1305 9 view .LVU702
 2783 001a 1E46     		mov	r6, r3
 2784 001c 09E0     		b	.L219
 2785              	.LVL206:
 2786              	.L229:
1299:Middlewares/Third_Party/FreeRTOS/Source/CMSIS_RTOS/cmsis_os.c ****     return event;
 2787              		.loc 1 1299 5 is_stmt 1 view .LVU703
1299:Middlewares/Third_Party/FreeRTOS/Source/CMSIS_RTOS/cmsis_os.c ****     return event;
 2788              		.loc 1 1299 18 is_stmt 0 view .LVU704
 2789 001e 8023     		movs	r3, #128
 2790 0020 0093     		str	r3, [sp]
1300:Middlewares/Third_Party/FreeRTOS/Source/CMSIS_RTOS/cmsis_os.c ****   }
 2791              		.loc 1 1300 5 is_stmt 1 view .LVU705
1300:Middlewares/Third_Party/FreeRTOS/Source/CMSIS_RTOS/cmsis_os.c ****   }
 2792              		.loc 1 1300 12 is_stmt 0 view .LVU706
 2793 0022 6B46     		mov	r3, sp
 2794 0024 93E80700 		ldm	r3, {r0, r1, r2}
 2795              	.LVL207:
1300:Middlewares/Third_Party/FreeRTOS/Source/CMSIS_RTOS/cmsis_os.c ****   }
 2796              		.loc 1 1300 12 view .LVU707
 2797 0028 84E80700 		stm	r4, {r0, r1, r2}
 2798 002c 2AE0     		b	.L216
 2799              	.LVL208:
 2800              	.L226:
1307:Middlewares/Third_Party/FreeRTOS/Source/CMSIS_RTOS/cmsis_os.c ****   }
 2801              		.loc 1 1307 11 view .LVU708
 2802 002e 4FF0FF36 		mov	r6, #-1
 2803              	.L219:
 2804              	.LVL209:
1310:Middlewares/Third_Party/FreeRTOS/Source/CMSIS_RTOS/cmsis_os.c ****     ticks = millisec / portTICK_PERIOD_MS;
1311:Middlewares/Third_Party/FreeRTOS/Source/CMSIS_RTOS/cmsis_os.c ****     if (ticks == 0) {
1312:Middlewares/Third_Party/FreeRTOS/Source/CMSIS_RTOS/cmsis_os.c ****       ticks = 1;
1313:Middlewares/Third_Party/FreeRTOS/Source/CMSIS_RTOS/cmsis_os.c ****     }
1314:Middlewares/Third_Party/FreeRTOS/Source/CMSIS_RTOS/cmsis_os.c ****   }
1315:Middlewares/Third_Party/FreeRTOS/Source/CMSIS_RTOS/cmsis_os.c ****   
1316:Middlewares/Third_Party/FreeRTOS/Source/CMSIS_RTOS/cmsis_os.c ****   if (inHandlerMode()) {
 2805              		.loc 1 1316 3 is_stmt 1 view .LVU709
 2806              		.loc 1 1316 7 is_stmt 0 view .LVU710
 2807 0032 FFF7FEFF 		bl	inHandlerMode
ARM GAS  C:\Users\User\AppData\Local\Temp\ccTFByJK.s 			page 82


 2808              	.LVL210:
 2809              		.loc 1 1316 6 view .LVU711
 2810 0036 B0B1     		cbz	r0, .L220
1317:Middlewares/Third_Party/FreeRTOS/Source/CMSIS_RTOS/cmsis_os.c ****     if (xQueueReceiveFromISR(queue_id->handle, &event.value.p, &taskWoken) == pdTRUE) {
 2811              		.loc 1 1317 5 is_stmt 1 view .LVU712
 2812              		.loc 1 1317 9 is_stmt 0 view .LVU713
 2813 0038 03AA     		add	r2, sp, #12
 2814 003a 01A9     		add	r1, sp, #4
 2815 003c 6868     		ldr	r0, [r5, #4]
 2816 003e FFF7FEFF 		bl	xQueueReceiveFromISR
 2817              	.LVL211:
 2818              		.loc 1 1317 8 view .LVU714
 2819 0042 0128     		cmp	r0, #1
 2820 0044 0CD0     		beq	.L230
1318:Middlewares/Third_Party/FreeRTOS/Source/CMSIS_RTOS/cmsis_os.c ****       /* We have mail */
1319:Middlewares/Third_Party/FreeRTOS/Source/CMSIS_RTOS/cmsis_os.c ****       event.status = osEventMail;
1320:Middlewares/Third_Party/FreeRTOS/Source/CMSIS_RTOS/cmsis_os.c ****     }
1321:Middlewares/Third_Party/FreeRTOS/Source/CMSIS_RTOS/cmsis_os.c ****     else {
1322:Middlewares/Third_Party/FreeRTOS/Source/CMSIS_RTOS/cmsis_os.c ****       event.status = osOK;
 2821              		.loc 1 1322 7 is_stmt 1 view .LVU715
 2822              		.loc 1 1322 20 is_stmt 0 view .LVU716
 2823 0046 0023     		movs	r3, #0
 2824 0048 0093     		str	r3, [sp]
 2825              	.L222:
1323:Middlewares/Third_Party/FreeRTOS/Source/CMSIS_RTOS/cmsis_os.c ****     }
1324:Middlewares/Third_Party/FreeRTOS/Source/CMSIS_RTOS/cmsis_os.c ****     portEND_SWITCHING_ISR(taskWoken);
 2826              		.loc 1 1324 5 is_stmt 1 view .LVU717
 2827 004a 039B     		ldr	r3, [sp, #12]
 2828 004c ABB1     		cbz	r3, .L223
 2829              		.loc 1 1324 5 discriminator 1 view .LVU718
 2830 004e 114B     		ldr	r3, .L232
 2831 0050 4FF08052 		mov	r2, #268435456
 2832 0054 1A60     		str	r2, [r3]
 2833              		.loc 1 1324 5 discriminator 1 view .LVU719
 2834              		.syntax unified
 2835              	@ 1324 "Middlewares/Third_Party/FreeRTOS/Source/CMSIS_RTOS/cmsis_os.c" 1
 2836 0056 BFF34F8F 		dsb
 2837              	@ 0 "" 2
 2838              		.loc 1 1324 5 discriminator 1 view .LVU720
 2839              	@ 1324 "Middlewares/Third_Party/FreeRTOS/Source/CMSIS_RTOS/cmsis_os.c" 1
 2840 005a BFF36F8F 		isb
 2841              	@ 0 "" 2
 2842              		.thumb
 2843              		.syntax unified
 2844 005e 0CE0     		b	.L223
 2845              	.L230:
1319:Middlewares/Third_Party/FreeRTOS/Source/CMSIS_RTOS/cmsis_os.c ****     }
 2846              		.loc 1 1319 7 view .LVU721
1319:Middlewares/Third_Party/FreeRTOS/Source/CMSIS_RTOS/cmsis_os.c ****     }
 2847              		.loc 1 1319 20 is_stmt 0 view .LVU722
 2848 0060 2023     		movs	r3, #32
 2849 0062 0093     		str	r3, [sp]
 2850 0064 F1E7     		b	.L222
 2851              	.L220:
1325:Middlewares/Third_Party/FreeRTOS/Source/CMSIS_RTOS/cmsis_os.c ****   }
1326:Middlewares/Third_Party/FreeRTOS/Source/CMSIS_RTOS/cmsis_os.c ****   else {
1327:Middlewares/Third_Party/FreeRTOS/Source/CMSIS_RTOS/cmsis_os.c ****     if (xQueueReceive(queue_id->handle, &event.value.p, ticks) == pdTRUE) {
ARM GAS  C:\Users\User\AppData\Local\Temp\ccTFByJK.s 			page 83


 2852              		.loc 1 1327 5 is_stmt 1 view .LVU723
 2853              		.loc 1 1327 9 is_stmt 0 view .LVU724
 2854 0066 3246     		mov	r2, r6
 2855 0068 01A9     		add	r1, sp, #4
 2856 006a 6868     		ldr	r0, [r5, #4]
 2857 006c FFF7FEFF 		bl	xQueueReceive
 2858              	.LVL212:
 2859              		.loc 1 1327 8 view .LVU725
 2860 0070 0128     		cmp	r0, #1
 2861 0072 0AD0     		beq	.L231
1328:Middlewares/Third_Party/FreeRTOS/Source/CMSIS_RTOS/cmsis_os.c ****       /* We have mail */
1329:Middlewares/Third_Party/FreeRTOS/Source/CMSIS_RTOS/cmsis_os.c ****       event.status = osEventMail;
1330:Middlewares/Third_Party/FreeRTOS/Source/CMSIS_RTOS/cmsis_os.c ****     }
1331:Middlewares/Third_Party/FreeRTOS/Source/CMSIS_RTOS/cmsis_os.c ****     else {
1332:Middlewares/Third_Party/FreeRTOS/Source/CMSIS_RTOS/cmsis_os.c ****       event.status = (ticks == 0) ? osOK : osEventTimeout;
 2862              		.loc 1 1332 7 is_stmt 1 view .LVU726
 2863              		.loc 1 1332 42 is_stmt 0 view .LVU727
 2864 0074 66B9     		cbnz	r6, .L227
 2865 0076 0023     		movs	r3, #0
 2866              	.L225:
 2867              		.loc 1 1332 20 discriminator 4 view .LVU728
 2868 0078 0093     		str	r3, [sp]
 2869              	.L223:
1333:Middlewares/Third_Party/FreeRTOS/Source/CMSIS_RTOS/cmsis_os.c ****     }
1334:Middlewares/Third_Party/FreeRTOS/Source/CMSIS_RTOS/cmsis_os.c ****   }
1335:Middlewares/Third_Party/FreeRTOS/Source/CMSIS_RTOS/cmsis_os.c ****   
1336:Middlewares/Third_Party/FreeRTOS/Source/CMSIS_RTOS/cmsis_os.c ****   return event;
 2870              		.loc 1 1336 3 is_stmt 1 view .LVU729
 2871              		.loc 1 1336 10 is_stmt 0 view .LVU730
 2872 007a 6B46     		mov	r3, sp
 2873 007c 93E80700 		ldm	r3, {r0, r1, r2}
 2874 0080 84E80700 		stm	r4, {r0, r1, r2}
 2875              	.LVL213:
 2876              	.L216:
1337:Middlewares/Third_Party/FreeRTOS/Source/CMSIS_RTOS/cmsis_os.c **** }
 2877              		.loc 1 1337 1 view .LVU731
 2878 0084 2046     		mov	r0, r4
 2879 0086 04B0     		add	sp, sp, #16
 2880              	.LCFI65:
 2881              		.cfi_remember_state
 2882              		.cfi_def_cfa_offset 16
 2883              		@ sp needed
 2884 0088 70BD     		pop	{r4, r5, r6, pc}
 2885              	.LVL214:
 2886              	.L231:
 2887              	.LCFI66:
 2888              		.cfi_restore_state
1329:Middlewares/Third_Party/FreeRTOS/Source/CMSIS_RTOS/cmsis_os.c ****     }
 2889              		.loc 1 1329 7 is_stmt 1 view .LVU732
1329:Middlewares/Third_Party/FreeRTOS/Source/CMSIS_RTOS/cmsis_os.c ****     }
 2890              		.loc 1 1329 20 is_stmt 0 view .LVU733
 2891 008a 2023     		movs	r3, #32
 2892 008c 0093     		str	r3, [sp]
 2893 008e F4E7     		b	.L223
 2894              	.L227:
1332:Middlewares/Third_Party/FreeRTOS/Source/CMSIS_RTOS/cmsis_os.c ****     }
 2895              		.loc 1 1332 42 view .LVU734
ARM GAS  C:\Users\User\AppData\Local\Temp\ccTFByJK.s 			page 84


 2896 0090 4023     		movs	r3, #64
 2897 0092 F1E7     		b	.L225
 2898              	.L233:
 2899              		.align	2
 2900              	.L232:
 2901 0094 04ED00E0 		.word	-536810236
 2902              		.cfi_endproc
 2903              	.LFE87:
 2905              		.section	.text.osMailFree,"ax",%progbits
 2906              		.align	1
 2907              		.global	osMailFree
 2908              		.syntax unified
 2909              		.thumb
 2910              		.thumb_func
 2911              		.fpu softvfp
 2913              	osMailFree:
 2914              	.LVL215:
 2915              	.LFB88:
1338:Middlewares/Third_Party/FreeRTOS/Source/CMSIS_RTOS/cmsis_os.c **** 
1339:Middlewares/Third_Party/FreeRTOS/Source/CMSIS_RTOS/cmsis_os.c **** /**
1340:Middlewares/Third_Party/FreeRTOS/Source/CMSIS_RTOS/cmsis_os.c **** * @brief Free a memory block from a mail
1341:Middlewares/Third_Party/FreeRTOS/Source/CMSIS_RTOS/cmsis_os.c **** * @param  queue_id mail queue ID obtained with \ref osMailCreate.
1342:Middlewares/Third_Party/FreeRTOS/Source/CMSIS_RTOS/cmsis_os.c **** * @param  mail     pointer to the memory block that was obtained with \ref osMailGet.
1343:Middlewares/Third_Party/FreeRTOS/Source/CMSIS_RTOS/cmsis_os.c **** * @retval status code that indicates the execution status of the function.
1344:Middlewares/Third_Party/FreeRTOS/Source/CMSIS_RTOS/cmsis_os.c **** * @note   MUST REMAIN UNCHANGED: \b osMailFree shall be consistent in every CMSIS-RTOS.
1345:Middlewares/Third_Party/FreeRTOS/Source/CMSIS_RTOS/cmsis_os.c **** */
1346:Middlewares/Third_Party/FreeRTOS/Source/CMSIS_RTOS/cmsis_os.c **** osStatus osMailFree (osMailQId queue_id, void *mail)
1347:Middlewares/Third_Party/FreeRTOS/Source/CMSIS_RTOS/cmsis_os.c **** {
 2916              		.loc 1 1347 1 is_stmt 1 view -0
 2917              		.cfi_startproc
 2918              		@ args = 0, pretend = 0, frame = 0
 2919              		@ frame_needed = 0, uses_anonymous_args = 0
1348:Middlewares/Third_Party/FreeRTOS/Source/CMSIS_RTOS/cmsis_os.c ****   if (queue_id == NULL) {
 2920              		.loc 1 1348 3 view .LVU736
 2921              		.loc 1 1348 6 is_stmt 0 view .LVU737
 2922 0000 20B1     		cbz	r0, .L236
1347:Middlewares/Third_Party/FreeRTOS/Source/CMSIS_RTOS/cmsis_os.c ****   if (queue_id == NULL) {
 2923              		.loc 1 1347 1 view .LVU738
 2924 0002 08B5     		push	{r3, lr}
 2925              	.LCFI67:
 2926              		.cfi_def_cfa_offset 8
 2927              		.cfi_offset 3, -8
 2928              		.cfi_offset 14, -4
1349:Middlewares/Third_Party/FreeRTOS/Source/CMSIS_RTOS/cmsis_os.c ****     return osErrorParameter;
1350:Middlewares/Third_Party/FreeRTOS/Source/CMSIS_RTOS/cmsis_os.c ****   }
1351:Middlewares/Third_Party/FreeRTOS/Source/CMSIS_RTOS/cmsis_os.c ****   
1352:Middlewares/Third_Party/FreeRTOS/Source/CMSIS_RTOS/cmsis_os.c ****   return osPoolFree(queue_id->pool, mail);
 2929              		.loc 1 1352 3 is_stmt 1 view .LVU739
 2930              		.loc 1 1352 10 is_stmt 0 view .LVU740
 2931 0004 8068     		ldr	r0, [r0, #8]
 2932              	.LVL216:
 2933              		.loc 1 1352 10 view .LVU741
 2934 0006 FFF7FEFF 		bl	osPoolFree
 2935              	.LVL217:
1353:Middlewares/Third_Party/FreeRTOS/Source/CMSIS_RTOS/cmsis_os.c **** }
 2936              		.loc 1 1353 1 view .LVU742
 2937 000a 08BD     		pop	{r3, pc}
ARM GAS  C:\Users\User\AppData\Local\Temp\ccTFByJK.s 			page 85


 2938              	.LVL218:
 2939              	.L236:
 2940              	.LCFI68:
 2941              		.cfi_def_cfa_offset 0
 2942              		.cfi_restore 3
 2943              		.cfi_restore 14
1349:Middlewares/Third_Party/FreeRTOS/Source/CMSIS_RTOS/cmsis_os.c ****     return osErrorParameter;
 2944              		.loc 1 1349 12 view .LVU743
 2945 000c 8020     		movs	r0, #128
 2946              	.LVL219:
 2947              		.loc 1 1353 1 view .LVU744
 2948 000e 7047     		bx	lr
 2949              		.cfi_endproc
 2950              	.LFE88:
 2952              		.section	.text.osSystickHandler,"ax",%progbits
 2953              		.align	1
 2954              		.global	osSystickHandler
 2955              		.syntax unified
 2956              		.thumb
 2957              		.thumb_func
 2958              		.fpu softvfp
 2960              	osSystickHandler:
 2961              	.LFB89:
1354:Middlewares/Third_Party/FreeRTOS/Source/CMSIS_RTOS/cmsis_os.c **** #endif  /* Use Mail Queues */
1355:Middlewares/Third_Party/FreeRTOS/Source/CMSIS_RTOS/cmsis_os.c **** 
1356:Middlewares/Third_Party/FreeRTOS/Source/CMSIS_RTOS/cmsis_os.c **** /*************************** Additional specific APIs to Free RTOS ************/
1357:Middlewares/Third_Party/FreeRTOS/Source/CMSIS_RTOS/cmsis_os.c **** /**
1358:Middlewares/Third_Party/FreeRTOS/Source/CMSIS_RTOS/cmsis_os.c **** * @brief  Handles the tick increment
1359:Middlewares/Third_Party/FreeRTOS/Source/CMSIS_RTOS/cmsis_os.c **** * @param  none.
1360:Middlewares/Third_Party/FreeRTOS/Source/CMSIS_RTOS/cmsis_os.c **** * @retval none.
1361:Middlewares/Third_Party/FreeRTOS/Source/CMSIS_RTOS/cmsis_os.c **** */
1362:Middlewares/Third_Party/FreeRTOS/Source/CMSIS_RTOS/cmsis_os.c **** void osSystickHandler(void)
1363:Middlewares/Third_Party/FreeRTOS/Source/CMSIS_RTOS/cmsis_os.c **** {
 2962              		.loc 1 1363 1 is_stmt 1 view -0
 2963              		.cfi_startproc
 2964              		@ args = 0, pretend = 0, frame = 0
 2965              		@ frame_needed = 0, uses_anonymous_args = 0
 2966 0000 08B5     		push	{r3, lr}
 2967              	.LCFI69:
 2968              		.cfi_def_cfa_offset 8
 2969              		.cfi_offset 3, -8
 2970              		.cfi_offset 14, -4
1364:Middlewares/Third_Party/FreeRTOS/Source/CMSIS_RTOS/cmsis_os.c **** 
1365:Middlewares/Third_Party/FreeRTOS/Source/CMSIS_RTOS/cmsis_os.c **** #if (INCLUDE_xTaskGetSchedulerState  == 1 )
1366:Middlewares/Third_Party/FreeRTOS/Source/CMSIS_RTOS/cmsis_os.c ****   if (xTaskGetSchedulerState() != taskSCHEDULER_NOT_STARTED)
 2971              		.loc 1 1366 3 view .LVU746
 2972              		.loc 1 1366 7 is_stmt 0 view .LVU747
 2973 0002 FFF7FEFF 		bl	xTaskGetSchedulerState
 2974              	.LVL220:
 2975              		.loc 1 1366 6 view .LVU748
 2976 0006 0128     		cmp	r0, #1
 2977 0008 00D1     		bne	.L244
 2978              	.L241:
1367:Middlewares/Third_Party/FreeRTOS/Source/CMSIS_RTOS/cmsis_os.c ****   {
1368:Middlewares/Third_Party/FreeRTOS/Source/CMSIS_RTOS/cmsis_os.c **** #endif  /* INCLUDE_xTaskGetSchedulerState */  
1369:Middlewares/Third_Party/FreeRTOS/Source/CMSIS_RTOS/cmsis_os.c ****     xPortSysTickHandler();
1370:Middlewares/Third_Party/FreeRTOS/Source/CMSIS_RTOS/cmsis_os.c **** #if (INCLUDE_xTaskGetSchedulerState  == 1 )
ARM GAS  C:\Users\User\AppData\Local\Temp\ccTFByJK.s 			page 86


1371:Middlewares/Third_Party/FreeRTOS/Source/CMSIS_RTOS/cmsis_os.c ****   }
1372:Middlewares/Third_Party/FreeRTOS/Source/CMSIS_RTOS/cmsis_os.c **** #endif  /* INCLUDE_xTaskGetSchedulerState */  
1373:Middlewares/Third_Party/FreeRTOS/Source/CMSIS_RTOS/cmsis_os.c **** }
 2979              		.loc 1 1373 1 view .LVU749
 2980 000a 08BD     		pop	{r3, pc}
 2981              	.L244:
1369:Middlewares/Third_Party/FreeRTOS/Source/CMSIS_RTOS/cmsis_os.c **** #if (INCLUDE_xTaskGetSchedulerState  == 1 )
 2982              		.loc 1 1369 5 is_stmt 1 view .LVU750
 2983 000c FFF7FEFF 		bl	SysTick_Handler
 2984              	.LVL221:
 2985              		.loc 1 1373 1 is_stmt 0 view .LVU751
 2986 0010 FBE7     		b	.L241
 2987              		.cfi_endproc
 2988              	.LFE89:
 2990              		.section	.text.osThreadSuspend,"ax",%progbits
 2991              		.align	1
 2992              		.global	osThreadSuspend
 2993              		.syntax unified
 2994              		.thumb
 2995              		.thumb_func
 2996              		.fpu softvfp
 2998              	osThreadSuspend:
 2999              	.LVL222:
 3000              	.LFB90:
1374:Middlewares/Third_Party/FreeRTOS/Source/CMSIS_RTOS/cmsis_os.c **** 
1375:Middlewares/Third_Party/FreeRTOS/Source/CMSIS_RTOS/cmsis_os.c **** #if ( INCLUDE_eTaskGetState == 1 )
1376:Middlewares/Third_Party/FreeRTOS/Source/CMSIS_RTOS/cmsis_os.c **** /**
1377:Middlewares/Third_Party/FreeRTOS/Source/CMSIS_RTOS/cmsis_os.c **** * @brief  Obtain the state of any thread.
1378:Middlewares/Third_Party/FreeRTOS/Source/CMSIS_RTOS/cmsis_os.c **** * @param   thread_id   thread ID obtained by \ref osThreadCreate or \ref osThreadGetId.
1379:Middlewares/Third_Party/FreeRTOS/Source/CMSIS_RTOS/cmsis_os.c **** * @retval  the stae of the thread, states are encoded by the osThreadState enumerated type.
1380:Middlewares/Third_Party/FreeRTOS/Source/CMSIS_RTOS/cmsis_os.c **** */
1381:Middlewares/Third_Party/FreeRTOS/Source/CMSIS_RTOS/cmsis_os.c **** osThreadState osThreadGetState(osThreadId thread_id)
1382:Middlewares/Third_Party/FreeRTOS/Source/CMSIS_RTOS/cmsis_os.c **** {
1383:Middlewares/Third_Party/FreeRTOS/Source/CMSIS_RTOS/cmsis_os.c ****   eTaskState ThreadState;
1384:Middlewares/Third_Party/FreeRTOS/Source/CMSIS_RTOS/cmsis_os.c ****   osThreadState result;
1385:Middlewares/Third_Party/FreeRTOS/Source/CMSIS_RTOS/cmsis_os.c ****   
1386:Middlewares/Third_Party/FreeRTOS/Source/CMSIS_RTOS/cmsis_os.c ****   ThreadState = eTaskGetState(thread_id);
1387:Middlewares/Third_Party/FreeRTOS/Source/CMSIS_RTOS/cmsis_os.c ****   
1388:Middlewares/Third_Party/FreeRTOS/Source/CMSIS_RTOS/cmsis_os.c ****   switch (ThreadState)
1389:Middlewares/Third_Party/FreeRTOS/Source/CMSIS_RTOS/cmsis_os.c ****   {
1390:Middlewares/Third_Party/FreeRTOS/Source/CMSIS_RTOS/cmsis_os.c ****   case eRunning :
1391:Middlewares/Third_Party/FreeRTOS/Source/CMSIS_RTOS/cmsis_os.c ****     result = osThreadRunning;
1392:Middlewares/Third_Party/FreeRTOS/Source/CMSIS_RTOS/cmsis_os.c ****     break;
1393:Middlewares/Third_Party/FreeRTOS/Source/CMSIS_RTOS/cmsis_os.c ****   case eReady :
1394:Middlewares/Third_Party/FreeRTOS/Source/CMSIS_RTOS/cmsis_os.c ****     result = osThreadReady;
1395:Middlewares/Third_Party/FreeRTOS/Source/CMSIS_RTOS/cmsis_os.c ****     break;
1396:Middlewares/Third_Party/FreeRTOS/Source/CMSIS_RTOS/cmsis_os.c ****   case eBlocked :
1397:Middlewares/Third_Party/FreeRTOS/Source/CMSIS_RTOS/cmsis_os.c ****     result = osThreadBlocked;
1398:Middlewares/Third_Party/FreeRTOS/Source/CMSIS_RTOS/cmsis_os.c ****     break;
1399:Middlewares/Third_Party/FreeRTOS/Source/CMSIS_RTOS/cmsis_os.c ****   case eSuspended :
1400:Middlewares/Third_Party/FreeRTOS/Source/CMSIS_RTOS/cmsis_os.c ****     result = osThreadSuspended;
1401:Middlewares/Third_Party/FreeRTOS/Source/CMSIS_RTOS/cmsis_os.c ****     break;
1402:Middlewares/Third_Party/FreeRTOS/Source/CMSIS_RTOS/cmsis_os.c ****   case eDeleted :
1403:Middlewares/Third_Party/FreeRTOS/Source/CMSIS_RTOS/cmsis_os.c ****     result = osThreadDeleted;
1404:Middlewares/Third_Party/FreeRTOS/Source/CMSIS_RTOS/cmsis_os.c ****     break;
1405:Middlewares/Third_Party/FreeRTOS/Source/CMSIS_RTOS/cmsis_os.c ****   default:
1406:Middlewares/Third_Party/FreeRTOS/Source/CMSIS_RTOS/cmsis_os.c ****     result = osThreadError;
ARM GAS  C:\Users\User\AppData\Local\Temp\ccTFByJK.s 			page 87


1407:Middlewares/Third_Party/FreeRTOS/Source/CMSIS_RTOS/cmsis_os.c ****   } 
1408:Middlewares/Third_Party/FreeRTOS/Source/CMSIS_RTOS/cmsis_os.c ****   
1409:Middlewares/Third_Party/FreeRTOS/Source/CMSIS_RTOS/cmsis_os.c ****   return result;
1410:Middlewares/Third_Party/FreeRTOS/Source/CMSIS_RTOS/cmsis_os.c **** }
1411:Middlewares/Third_Party/FreeRTOS/Source/CMSIS_RTOS/cmsis_os.c **** #endif /* INCLUDE_eTaskGetState */
1412:Middlewares/Third_Party/FreeRTOS/Source/CMSIS_RTOS/cmsis_os.c **** 
1413:Middlewares/Third_Party/FreeRTOS/Source/CMSIS_RTOS/cmsis_os.c **** #if (INCLUDE_eTaskGetState == 1)
1414:Middlewares/Third_Party/FreeRTOS/Source/CMSIS_RTOS/cmsis_os.c **** /**
1415:Middlewares/Third_Party/FreeRTOS/Source/CMSIS_RTOS/cmsis_os.c **** * @brief Check if a thread is already suspended or not.
1416:Middlewares/Third_Party/FreeRTOS/Source/CMSIS_RTOS/cmsis_os.c **** * @param thread_id thread ID obtained by \ref osThreadCreate or \ref osThreadGetId.
1417:Middlewares/Third_Party/FreeRTOS/Source/CMSIS_RTOS/cmsis_os.c **** * @retval status code that indicates the execution status of the function.
1418:Middlewares/Third_Party/FreeRTOS/Source/CMSIS_RTOS/cmsis_os.c **** */
1419:Middlewares/Third_Party/FreeRTOS/Source/CMSIS_RTOS/cmsis_os.c **** osStatus osThreadIsSuspended(osThreadId thread_id)
1420:Middlewares/Third_Party/FreeRTOS/Source/CMSIS_RTOS/cmsis_os.c **** {
1421:Middlewares/Third_Party/FreeRTOS/Source/CMSIS_RTOS/cmsis_os.c ****   if (eTaskGetState(thread_id) == eSuspended)
1422:Middlewares/Third_Party/FreeRTOS/Source/CMSIS_RTOS/cmsis_os.c ****     return osOK;
1423:Middlewares/Third_Party/FreeRTOS/Source/CMSIS_RTOS/cmsis_os.c ****   else
1424:Middlewares/Third_Party/FreeRTOS/Source/CMSIS_RTOS/cmsis_os.c ****     return osErrorOS;
1425:Middlewares/Third_Party/FreeRTOS/Source/CMSIS_RTOS/cmsis_os.c **** }
1426:Middlewares/Third_Party/FreeRTOS/Source/CMSIS_RTOS/cmsis_os.c **** #endif /* INCLUDE_eTaskGetState */
1427:Middlewares/Third_Party/FreeRTOS/Source/CMSIS_RTOS/cmsis_os.c **** /**
1428:Middlewares/Third_Party/FreeRTOS/Source/CMSIS_RTOS/cmsis_os.c **** * @brief  Suspend execution of a thread.
1429:Middlewares/Third_Party/FreeRTOS/Source/CMSIS_RTOS/cmsis_os.c **** * @param   thread_id   thread ID obtained by \ref osThreadCreate or \ref osThreadGetId.
1430:Middlewares/Third_Party/FreeRTOS/Source/CMSIS_RTOS/cmsis_os.c **** * @retval  status code that indicates the execution status of the function.
1431:Middlewares/Third_Party/FreeRTOS/Source/CMSIS_RTOS/cmsis_os.c **** */
1432:Middlewares/Third_Party/FreeRTOS/Source/CMSIS_RTOS/cmsis_os.c **** osStatus osThreadSuspend (osThreadId thread_id)
1433:Middlewares/Third_Party/FreeRTOS/Source/CMSIS_RTOS/cmsis_os.c **** {
 3001              		.loc 1 1433 1 is_stmt 1 view -0
 3002              		.cfi_startproc
 3003              		@ args = 0, pretend = 0, frame = 0
 3004              		@ frame_needed = 0, uses_anonymous_args = 0
 3005              		.loc 1 1433 1 is_stmt 0 view .LVU753
 3006 0000 08B5     		push	{r3, lr}
 3007              	.LCFI70:
 3008              		.cfi_def_cfa_offset 8
 3009              		.cfi_offset 3, -8
 3010              		.cfi_offset 14, -4
1434:Middlewares/Third_Party/FreeRTOS/Source/CMSIS_RTOS/cmsis_os.c **** #if (INCLUDE_vTaskSuspend == 1)
1435:Middlewares/Third_Party/FreeRTOS/Source/CMSIS_RTOS/cmsis_os.c ****     vTaskSuspend(thread_id);
 3011              		.loc 1 1435 5 is_stmt 1 view .LVU754
 3012 0002 FFF7FEFF 		bl	vTaskSuspend
 3013              	.LVL223:
1436:Middlewares/Third_Party/FreeRTOS/Source/CMSIS_RTOS/cmsis_os.c ****   
1437:Middlewares/Third_Party/FreeRTOS/Source/CMSIS_RTOS/cmsis_os.c ****   return osOK;
 3014              		.loc 1 1437 3 view .LVU755
1438:Middlewares/Third_Party/FreeRTOS/Source/CMSIS_RTOS/cmsis_os.c **** #else
1439:Middlewares/Third_Party/FreeRTOS/Source/CMSIS_RTOS/cmsis_os.c ****   return osErrorResource;
1440:Middlewares/Third_Party/FreeRTOS/Source/CMSIS_RTOS/cmsis_os.c **** #endif
1441:Middlewares/Third_Party/FreeRTOS/Source/CMSIS_RTOS/cmsis_os.c **** }
 3015              		.loc 1 1441 1 is_stmt 0 view .LVU756
 3016 0006 0020     		movs	r0, #0
 3017 0008 08BD     		pop	{r3, pc}
 3018              		.cfi_endproc
 3019              	.LFE90:
 3021              		.section	.text.osThreadResume,"ax",%progbits
 3022              		.align	1
 3023              		.global	osThreadResume
ARM GAS  C:\Users\User\AppData\Local\Temp\ccTFByJK.s 			page 88


 3024              		.syntax unified
 3025              		.thumb
 3026              		.thumb_func
 3027              		.fpu softvfp
 3029              	osThreadResume:
 3030              	.LVL224:
 3031              	.LFB91:
1442:Middlewares/Third_Party/FreeRTOS/Source/CMSIS_RTOS/cmsis_os.c **** 
1443:Middlewares/Third_Party/FreeRTOS/Source/CMSIS_RTOS/cmsis_os.c **** /**
1444:Middlewares/Third_Party/FreeRTOS/Source/CMSIS_RTOS/cmsis_os.c **** * @brief  Resume execution of a suspended thread.
1445:Middlewares/Third_Party/FreeRTOS/Source/CMSIS_RTOS/cmsis_os.c **** * @param   thread_id   thread ID obtained by \ref osThreadCreate or \ref osThreadGetId.
1446:Middlewares/Third_Party/FreeRTOS/Source/CMSIS_RTOS/cmsis_os.c **** * @retval  status code that indicates the execution status of the function.
1447:Middlewares/Third_Party/FreeRTOS/Source/CMSIS_RTOS/cmsis_os.c **** */
1448:Middlewares/Third_Party/FreeRTOS/Source/CMSIS_RTOS/cmsis_os.c **** osStatus osThreadResume (osThreadId thread_id)
1449:Middlewares/Third_Party/FreeRTOS/Source/CMSIS_RTOS/cmsis_os.c **** {
 3032              		.loc 1 1449 1 is_stmt 1 view -0
 3033              		.cfi_startproc
 3034              		@ args = 0, pretend = 0, frame = 0
 3035              		@ frame_needed = 0, uses_anonymous_args = 0
 3036              		.loc 1 1449 1 is_stmt 0 view .LVU758
 3037 0000 10B5     		push	{r4, lr}
 3038              	.LCFI71:
 3039              		.cfi_def_cfa_offset 8
 3040              		.cfi_offset 4, -8
 3041              		.cfi_offset 14, -4
 3042 0002 0446     		mov	r4, r0
1450:Middlewares/Third_Party/FreeRTOS/Source/CMSIS_RTOS/cmsis_os.c **** #if (INCLUDE_vTaskSuspend == 1)  
1451:Middlewares/Third_Party/FreeRTOS/Source/CMSIS_RTOS/cmsis_os.c ****   if(inHandlerMode())
 3043              		.loc 1 1451 3 is_stmt 1 view .LVU759
 3044              		.loc 1 1451 6 is_stmt 0 view .LVU760
 3045 0004 FFF7FEFF 		bl	inHandlerMode
 3046              	.LVL225:
 3047              		.loc 1 1451 5 view .LVU761
 3048 0008 68B1     		cbz	r0, .L248
1452:Middlewares/Third_Party/FreeRTOS/Source/CMSIS_RTOS/cmsis_os.c ****   {
1453:Middlewares/Third_Party/FreeRTOS/Source/CMSIS_RTOS/cmsis_os.c ****     if (xTaskResumeFromISR(thread_id) == pdTRUE)
 3049              		.loc 1 1453 5 is_stmt 1 view .LVU762
 3050              		.loc 1 1453 9 is_stmt 0 view .LVU763
 3051 000a 2046     		mov	r0, r4
 3052 000c FFF7FEFF 		bl	xTaskResumeFromISR
 3053              	.LVL226:
 3054              		.loc 1 1453 8 view .LVU764
 3055 0010 0128     		cmp	r0, #1
 3056 0012 0BD1     		bne	.L249
1454:Middlewares/Third_Party/FreeRTOS/Source/CMSIS_RTOS/cmsis_os.c ****     {
1455:Middlewares/Third_Party/FreeRTOS/Source/CMSIS_RTOS/cmsis_os.c ****       portYIELD_FROM_ISR(pdTRUE);
 3057              		.loc 1 1455 7 is_stmt 1 discriminator 1 view .LVU765
 3058              		.loc 1 1455 7 discriminator 1 view .LVU766
 3059 0014 064B     		ldr	r3, .L251
 3060 0016 4FF08052 		mov	r2, #268435456
 3061 001a 1A60     		str	r2, [r3]
 3062              		.loc 1 1455 7 discriminator 1 view .LVU767
 3063              		.syntax unified
 3064              	@ 1455 "Middlewares/Third_Party/FreeRTOS/Source/CMSIS_RTOS/cmsis_os.c" 1
 3065 001c BFF34F8F 		dsb
 3066              	@ 0 "" 2
 3067              		.loc 1 1455 7 discriminator 1 view .LVU768
ARM GAS  C:\Users\User\AppData\Local\Temp\ccTFByJK.s 			page 89


 3068              	@ 1455 "Middlewares/Third_Party/FreeRTOS/Source/CMSIS_RTOS/cmsis_os.c" 1
 3069 0020 BFF36F8F 		isb
 3070              	@ 0 "" 2
 3071              		.thumb
 3072              		.syntax unified
 3073 0024 02E0     		b	.L249
 3074              	.L248:
1456:Middlewares/Third_Party/FreeRTOS/Source/CMSIS_RTOS/cmsis_os.c ****     }
1457:Middlewares/Third_Party/FreeRTOS/Source/CMSIS_RTOS/cmsis_os.c ****   }
1458:Middlewares/Third_Party/FreeRTOS/Source/CMSIS_RTOS/cmsis_os.c ****   else
1459:Middlewares/Third_Party/FreeRTOS/Source/CMSIS_RTOS/cmsis_os.c ****   {
1460:Middlewares/Third_Party/FreeRTOS/Source/CMSIS_RTOS/cmsis_os.c ****     vTaskResume(thread_id);
 3075              		.loc 1 1460 5 view .LVU769
 3076 0026 2046     		mov	r0, r4
 3077 0028 FFF7FEFF 		bl	vTaskResume
 3078              	.LVL227:
 3079              	.L249:
1461:Middlewares/Third_Party/FreeRTOS/Source/CMSIS_RTOS/cmsis_os.c ****   }
1462:Middlewares/Third_Party/FreeRTOS/Source/CMSIS_RTOS/cmsis_os.c ****   return osOK;
 3080              		.loc 1 1462 3 view .LVU770
1463:Middlewares/Third_Party/FreeRTOS/Source/CMSIS_RTOS/cmsis_os.c **** #else
1464:Middlewares/Third_Party/FreeRTOS/Source/CMSIS_RTOS/cmsis_os.c ****   return osErrorResource;
1465:Middlewares/Third_Party/FreeRTOS/Source/CMSIS_RTOS/cmsis_os.c **** #endif
1466:Middlewares/Third_Party/FreeRTOS/Source/CMSIS_RTOS/cmsis_os.c **** }
 3081              		.loc 1 1466 1 is_stmt 0 view .LVU771
 3082 002c 0020     		movs	r0, #0
 3083 002e 10BD     		pop	{r4, pc}
 3084              	.LVL228:
 3085              	.L252:
 3086              		.loc 1 1466 1 view .LVU772
 3087              		.align	2
 3088              	.L251:
 3089 0030 04ED00E0 		.word	-536810236
 3090              		.cfi_endproc
 3091              	.LFE91:
 3093              		.section	.text.osThreadSuspendAll,"ax",%progbits
 3094              		.align	1
 3095              		.global	osThreadSuspendAll
 3096              		.syntax unified
 3097              		.thumb
 3098              		.thumb_func
 3099              		.fpu softvfp
 3101              	osThreadSuspendAll:
 3102              	.LFB92:
1467:Middlewares/Third_Party/FreeRTOS/Source/CMSIS_RTOS/cmsis_os.c **** 
1468:Middlewares/Third_Party/FreeRTOS/Source/CMSIS_RTOS/cmsis_os.c **** /**
1469:Middlewares/Third_Party/FreeRTOS/Source/CMSIS_RTOS/cmsis_os.c **** * @brief  Suspend execution of a all active threads.
1470:Middlewares/Third_Party/FreeRTOS/Source/CMSIS_RTOS/cmsis_os.c **** * @retval  status code that indicates the execution status of the function.
1471:Middlewares/Third_Party/FreeRTOS/Source/CMSIS_RTOS/cmsis_os.c **** */
1472:Middlewares/Third_Party/FreeRTOS/Source/CMSIS_RTOS/cmsis_os.c **** osStatus osThreadSuspendAll (void)
1473:Middlewares/Third_Party/FreeRTOS/Source/CMSIS_RTOS/cmsis_os.c **** {
 3103              		.loc 1 1473 1 is_stmt 1 view -0
 3104              		.cfi_startproc
 3105              		@ args = 0, pretend = 0, frame = 0
 3106              		@ frame_needed = 0, uses_anonymous_args = 0
 3107 0000 08B5     		push	{r3, lr}
 3108              	.LCFI72:
ARM GAS  C:\Users\User\AppData\Local\Temp\ccTFByJK.s 			page 90


 3109              		.cfi_def_cfa_offset 8
 3110              		.cfi_offset 3, -8
 3111              		.cfi_offset 14, -4
1474:Middlewares/Third_Party/FreeRTOS/Source/CMSIS_RTOS/cmsis_os.c ****   vTaskSuspendAll();
 3112              		.loc 1 1474 3 view .LVU774
 3113 0002 FFF7FEFF 		bl	vTaskSuspendAll
 3114              	.LVL229:
1475:Middlewares/Third_Party/FreeRTOS/Source/CMSIS_RTOS/cmsis_os.c ****   
1476:Middlewares/Third_Party/FreeRTOS/Source/CMSIS_RTOS/cmsis_os.c ****   return osOK;
 3115              		.loc 1 1476 3 view .LVU775
1477:Middlewares/Third_Party/FreeRTOS/Source/CMSIS_RTOS/cmsis_os.c **** }
 3116              		.loc 1 1477 1 is_stmt 0 view .LVU776
 3117 0006 0020     		movs	r0, #0
 3118 0008 08BD     		pop	{r3, pc}
 3119              		.cfi_endproc
 3120              	.LFE92:
 3122              		.section	.text.osThreadResumeAll,"ax",%progbits
 3123              		.align	1
 3124              		.global	osThreadResumeAll
 3125              		.syntax unified
 3126              		.thumb
 3127              		.thumb_func
 3128              		.fpu softvfp
 3130              	osThreadResumeAll:
 3131              	.LFB93:
1478:Middlewares/Third_Party/FreeRTOS/Source/CMSIS_RTOS/cmsis_os.c **** 
1479:Middlewares/Third_Party/FreeRTOS/Source/CMSIS_RTOS/cmsis_os.c **** /**
1480:Middlewares/Third_Party/FreeRTOS/Source/CMSIS_RTOS/cmsis_os.c **** * @brief  Resume execution of a all suspended threads.
1481:Middlewares/Third_Party/FreeRTOS/Source/CMSIS_RTOS/cmsis_os.c **** * @retval  status code that indicates the execution status of the function.
1482:Middlewares/Third_Party/FreeRTOS/Source/CMSIS_RTOS/cmsis_os.c **** */
1483:Middlewares/Third_Party/FreeRTOS/Source/CMSIS_RTOS/cmsis_os.c **** osStatus osThreadResumeAll (void)
1484:Middlewares/Third_Party/FreeRTOS/Source/CMSIS_RTOS/cmsis_os.c **** {
 3132              		.loc 1 1484 1 is_stmt 1 view -0
 3133              		.cfi_startproc
 3134              		@ args = 0, pretend = 0, frame = 0
 3135              		@ frame_needed = 0, uses_anonymous_args = 0
 3136 0000 08B5     		push	{r3, lr}
 3137              	.LCFI73:
 3138              		.cfi_def_cfa_offset 8
 3139              		.cfi_offset 3, -8
 3140              		.cfi_offset 14, -4
1485:Middlewares/Third_Party/FreeRTOS/Source/CMSIS_RTOS/cmsis_os.c ****   if (xTaskResumeAll() == pdTRUE)
 3141              		.loc 1 1485 3 view .LVU778
 3142              		.loc 1 1485 7 is_stmt 0 view .LVU779
 3143 0002 FFF7FEFF 		bl	xTaskResumeAll
 3144              	.LVL230:
 3145              		.loc 1 1485 6 view .LVU780
 3146 0006 0128     		cmp	r0, #1
 3147 0008 01D0     		beq	.L259
1486:Middlewares/Third_Party/FreeRTOS/Source/CMSIS_RTOS/cmsis_os.c ****     return osOK;
1487:Middlewares/Third_Party/FreeRTOS/Source/CMSIS_RTOS/cmsis_os.c ****   else
1488:Middlewares/Third_Party/FreeRTOS/Source/CMSIS_RTOS/cmsis_os.c ****     return osErrorOS;
 3148              		.loc 1 1488 12 view .LVU781
 3149 000a FF20     		movs	r0, #255
 3150              	.L255:
1489:Middlewares/Third_Party/FreeRTOS/Source/CMSIS_RTOS/cmsis_os.c ****   
1490:Middlewares/Third_Party/FreeRTOS/Source/CMSIS_RTOS/cmsis_os.c **** }
ARM GAS  C:\Users\User\AppData\Local\Temp\ccTFByJK.s 			page 91


 3151              		.loc 1 1490 1 view .LVU782
 3152 000c 08BD     		pop	{r3, pc}
 3153              	.L259:
1486:Middlewares/Third_Party/FreeRTOS/Source/CMSIS_RTOS/cmsis_os.c ****     return osOK;
 3154              		.loc 1 1486 12 view .LVU783
 3155 000e 0020     		movs	r0, #0
 3156 0010 FCE7     		b	.L255
 3157              		.cfi_endproc
 3158              	.LFE93:
 3160              		.section	.text.osDelayUntil,"ax",%progbits
 3161              		.align	1
 3162              		.global	osDelayUntil
 3163              		.syntax unified
 3164              		.thumb
 3165              		.thumb_func
 3166              		.fpu softvfp
 3168              	osDelayUntil:
 3169              	.LVL231:
 3170              	.LFB94:
1491:Middlewares/Third_Party/FreeRTOS/Source/CMSIS_RTOS/cmsis_os.c **** 
1492:Middlewares/Third_Party/FreeRTOS/Source/CMSIS_RTOS/cmsis_os.c **** /**
1493:Middlewares/Third_Party/FreeRTOS/Source/CMSIS_RTOS/cmsis_os.c **** * @brief  Delay a task until a specified time
1494:Middlewares/Third_Party/FreeRTOS/Source/CMSIS_RTOS/cmsis_os.c **** * @param   PreviousWakeTime   Pointer to a variable that holds the time at which the 
1495:Middlewares/Third_Party/FreeRTOS/Source/CMSIS_RTOS/cmsis_os.c **** *          task was last unblocked. PreviousWakeTime must be initialised with the current time
1496:Middlewares/Third_Party/FreeRTOS/Source/CMSIS_RTOS/cmsis_os.c **** *          prior to its first use (PreviousWakeTime = osKernelSysTick() )
1497:Middlewares/Third_Party/FreeRTOS/Source/CMSIS_RTOS/cmsis_os.c **** * @param   millisec    time delay value
1498:Middlewares/Third_Party/FreeRTOS/Source/CMSIS_RTOS/cmsis_os.c **** * @retval  status code that indicates the execution status of the function.
1499:Middlewares/Third_Party/FreeRTOS/Source/CMSIS_RTOS/cmsis_os.c **** */
1500:Middlewares/Third_Party/FreeRTOS/Source/CMSIS_RTOS/cmsis_os.c **** osStatus osDelayUntil (uint32_t *PreviousWakeTime, uint32_t millisec)
1501:Middlewares/Third_Party/FreeRTOS/Source/CMSIS_RTOS/cmsis_os.c **** {
 3171              		.loc 1 1501 1 is_stmt 1 view -0
 3172              		.cfi_startproc
 3173              		@ args = 0, pretend = 0, frame = 0
 3174              		@ frame_needed = 0, uses_anonymous_args = 0
 3175              		@ link register save eliminated.
1502:Middlewares/Third_Party/FreeRTOS/Source/CMSIS_RTOS/cmsis_os.c **** #if INCLUDE_vTaskDelayUntil
1503:Middlewares/Third_Party/FreeRTOS/Source/CMSIS_RTOS/cmsis_os.c ****   TickType_t ticks = (millisec / portTICK_PERIOD_MS);
1504:Middlewares/Third_Party/FreeRTOS/Source/CMSIS_RTOS/cmsis_os.c ****   vTaskDelayUntil((TickType_t *) PreviousWakeTime, ticks ? ticks : 1);
1505:Middlewares/Third_Party/FreeRTOS/Source/CMSIS_RTOS/cmsis_os.c ****   
1506:Middlewares/Third_Party/FreeRTOS/Source/CMSIS_RTOS/cmsis_os.c ****   return osOK;
1507:Middlewares/Third_Party/FreeRTOS/Source/CMSIS_RTOS/cmsis_os.c **** #else
1508:Middlewares/Third_Party/FreeRTOS/Source/CMSIS_RTOS/cmsis_os.c ****   (void) millisec;
 3176              		.loc 1 1508 3 view .LVU785
1509:Middlewares/Third_Party/FreeRTOS/Source/CMSIS_RTOS/cmsis_os.c ****   (void) PreviousWakeTime;
 3177              		.loc 1 1509 3 view .LVU786
1510:Middlewares/Third_Party/FreeRTOS/Source/CMSIS_RTOS/cmsis_os.c ****   
1511:Middlewares/Third_Party/FreeRTOS/Source/CMSIS_RTOS/cmsis_os.c ****   return osErrorResource;
 3178              		.loc 1 1511 3 view .LVU787
1512:Middlewares/Third_Party/FreeRTOS/Source/CMSIS_RTOS/cmsis_os.c **** #endif
1513:Middlewares/Third_Party/FreeRTOS/Source/CMSIS_RTOS/cmsis_os.c **** }
 3179              		.loc 1 1513 1 is_stmt 0 view .LVU788
 3180 0000 8120     		movs	r0, #129
 3181              	.LVL232:
 3182              		.loc 1 1513 1 view .LVU789
 3183 0002 7047     		bx	lr
 3184              		.cfi_endproc
 3185              	.LFE94:
ARM GAS  C:\Users\User\AppData\Local\Temp\ccTFByJK.s 			page 92


 3187              		.section	.text.osAbortDelay,"ax",%progbits
 3188              		.align	1
 3189              		.global	osAbortDelay
 3190              		.syntax unified
 3191              		.thumb
 3192              		.thumb_func
 3193              		.fpu softvfp
 3195              	osAbortDelay:
 3196              	.LVL233:
 3197              	.LFB95:
1514:Middlewares/Third_Party/FreeRTOS/Source/CMSIS_RTOS/cmsis_os.c **** 
1515:Middlewares/Third_Party/FreeRTOS/Source/CMSIS_RTOS/cmsis_os.c **** /**
1516:Middlewares/Third_Party/FreeRTOS/Source/CMSIS_RTOS/cmsis_os.c **** * @brief   Abort the delay for a specific thread
1517:Middlewares/Third_Party/FreeRTOS/Source/CMSIS_RTOS/cmsis_os.c **** * @param   thread_id   thread ID obtained by \ref osThreadCreate or \ref osThreadGetId   
1518:Middlewares/Third_Party/FreeRTOS/Source/CMSIS_RTOS/cmsis_os.c **** * @retval  status code that indicates the execution status of the function.
1519:Middlewares/Third_Party/FreeRTOS/Source/CMSIS_RTOS/cmsis_os.c **** */
1520:Middlewares/Third_Party/FreeRTOS/Source/CMSIS_RTOS/cmsis_os.c **** osStatus osAbortDelay(osThreadId thread_id)
1521:Middlewares/Third_Party/FreeRTOS/Source/CMSIS_RTOS/cmsis_os.c **** {
 3198              		.loc 1 1521 1 is_stmt 1 view -0
 3199              		.cfi_startproc
 3200              		@ args = 0, pretend = 0, frame = 0
 3201              		@ frame_needed = 0, uses_anonymous_args = 0
 3202              		@ link register save eliminated.
1522:Middlewares/Third_Party/FreeRTOS/Source/CMSIS_RTOS/cmsis_os.c **** #if INCLUDE_xTaskAbortDelay
1523:Middlewares/Third_Party/FreeRTOS/Source/CMSIS_RTOS/cmsis_os.c ****   
1524:Middlewares/Third_Party/FreeRTOS/Source/CMSIS_RTOS/cmsis_os.c ****   xTaskAbortDelay(thread_id);
1525:Middlewares/Third_Party/FreeRTOS/Source/CMSIS_RTOS/cmsis_os.c ****   
1526:Middlewares/Third_Party/FreeRTOS/Source/CMSIS_RTOS/cmsis_os.c ****   return osOK;
1527:Middlewares/Third_Party/FreeRTOS/Source/CMSIS_RTOS/cmsis_os.c **** #else
1528:Middlewares/Third_Party/FreeRTOS/Source/CMSIS_RTOS/cmsis_os.c ****   (void) thread_id;
 3203              		.loc 1 1528 3 view .LVU791
1529:Middlewares/Third_Party/FreeRTOS/Source/CMSIS_RTOS/cmsis_os.c ****   
1530:Middlewares/Third_Party/FreeRTOS/Source/CMSIS_RTOS/cmsis_os.c ****   return osErrorResource;
 3204              		.loc 1 1530 3 view .LVU792
1531:Middlewares/Third_Party/FreeRTOS/Source/CMSIS_RTOS/cmsis_os.c **** #endif
1532:Middlewares/Third_Party/FreeRTOS/Source/CMSIS_RTOS/cmsis_os.c **** }
 3205              		.loc 1 1532 1 is_stmt 0 view .LVU793
 3206 0000 8120     		movs	r0, #129
 3207              	.LVL234:
 3208              		.loc 1 1532 1 view .LVU794
 3209 0002 7047     		bx	lr
 3210              		.cfi_endproc
 3211              	.LFE95:
 3213              		.section	.text.osThreadList,"ax",%progbits
 3214              		.align	1
 3215              		.global	osThreadList
 3216              		.syntax unified
 3217              		.thumb
 3218              		.thumb_func
 3219              		.fpu softvfp
 3221              	osThreadList:
 3222              	.LVL235:
 3223              	.LFB96:
1533:Middlewares/Third_Party/FreeRTOS/Source/CMSIS_RTOS/cmsis_os.c **** 
1534:Middlewares/Third_Party/FreeRTOS/Source/CMSIS_RTOS/cmsis_os.c **** /**
1535:Middlewares/Third_Party/FreeRTOS/Source/CMSIS_RTOS/cmsis_os.c **** * @brief   Lists all the current threads, along with their current state 
1536:Middlewares/Third_Party/FreeRTOS/Source/CMSIS_RTOS/cmsis_os.c **** *          and stack usage high water mark.
ARM GAS  C:\Users\User\AppData\Local\Temp\ccTFByJK.s 			page 93


1537:Middlewares/Third_Party/FreeRTOS/Source/CMSIS_RTOS/cmsis_os.c **** * @param   buffer   A buffer into which the above mentioned details
1538:Middlewares/Third_Party/FreeRTOS/Source/CMSIS_RTOS/cmsis_os.c **** *          will be written
1539:Middlewares/Third_Party/FreeRTOS/Source/CMSIS_RTOS/cmsis_os.c **** * @retval  status code that indicates the execution status of the function.
1540:Middlewares/Third_Party/FreeRTOS/Source/CMSIS_RTOS/cmsis_os.c **** */
1541:Middlewares/Third_Party/FreeRTOS/Source/CMSIS_RTOS/cmsis_os.c **** osStatus osThreadList (uint8_t *buffer)
1542:Middlewares/Third_Party/FreeRTOS/Source/CMSIS_RTOS/cmsis_os.c **** {
 3224              		.loc 1 1542 1 is_stmt 1 view -0
 3225              		.cfi_startproc
 3226              		@ args = 0, pretend = 0, frame = 0
 3227              		@ frame_needed = 0, uses_anonymous_args = 0
 3228              		@ link register save eliminated.
1543:Middlewares/Third_Party/FreeRTOS/Source/CMSIS_RTOS/cmsis_os.c **** #if ( ( configUSE_TRACE_FACILITY == 1 ) && ( configUSE_STATS_FORMATTING_FUNCTIONS == 1 ) )
1544:Middlewares/Third_Party/FreeRTOS/Source/CMSIS_RTOS/cmsis_os.c ****   vTaskList((char *)buffer);
1545:Middlewares/Third_Party/FreeRTOS/Source/CMSIS_RTOS/cmsis_os.c **** #endif
1546:Middlewares/Third_Party/FreeRTOS/Source/CMSIS_RTOS/cmsis_os.c ****   return osOK;
 3229              		.loc 1 1546 3 view .LVU796
1547:Middlewares/Third_Party/FreeRTOS/Source/CMSIS_RTOS/cmsis_os.c **** }
 3230              		.loc 1 1547 1 is_stmt 0 view .LVU797
 3231 0000 0020     		movs	r0, #0
 3232              	.LVL236:
 3233              		.loc 1 1547 1 view .LVU798
 3234 0002 7047     		bx	lr
 3235              		.cfi_endproc
 3236              	.LFE96:
 3238              		.section	.text.osMessagePeek,"ax",%progbits
 3239              		.align	1
 3240              		.global	osMessagePeek
 3241              		.syntax unified
 3242              		.thumb
 3243              		.thumb_func
 3244              		.fpu softvfp
 3246              	osMessagePeek:
 3247              	.LVL237:
 3248              	.LFB97:
1548:Middlewares/Third_Party/FreeRTOS/Source/CMSIS_RTOS/cmsis_os.c **** 
1549:Middlewares/Third_Party/FreeRTOS/Source/CMSIS_RTOS/cmsis_os.c **** /**
1550:Middlewares/Third_Party/FreeRTOS/Source/CMSIS_RTOS/cmsis_os.c **** * @brief  Receive an item from a queue without removing the item from the queue.
1551:Middlewares/Third_Party/FreeRTOS/Source/CMSIS_RTOS/cmsis_os.c **** * @param  queue_id  message queue ID obtained with \ref osMessageCreate.
1552:Middlewares/Third_Party/FreeRTOS/Source/CMSIS_RTOS/cmsis_os.c **** * @param  millisec  timeout value or 0 in case of no time-out.
1553:Middlewares/Third_Party/FreeRTOS/Source/CMSIS_RTOS/cmsis_os.c **** * @retval event information that includes status code.
1554:Middlewares/Third_Party/FreeRTOS/Source/CMSIS_RTOS/cmsis_os.c **** */
1555:Middlewares/Third_Party/FreeRTOS/Source/CMSIS_RTOS/cmsis_os.c **** osEvent osMessagePeek (osMessageQId queue_id, uint32_t millisec)
1556:Middlewares/Third_Party/FreeRTOS/Source/CMSIS_RTOS/cmsis_os.c **** {
 3249              		.loc 1 1556 1 is_stmt 1 view -0
 3250              		.cfi_startproc
 3251              		@ args = 0, pretend = 0, frame = 16
 3252              		@ frame_needed = 0, uses_anonymous_args = 0
 3253              		.loc 1 1556 1 is_stmt 0 view .LVU800
 3254 0000 30B5     		push	{r4, r5, lr}
 3255              	.LCFI74:
 3256              		.cfi_def_cfa_offset 12
 3257              		.cfi_offset 4, -12
 3258              		.cfi_offset 5, -8
 3259              		.cfi_offset 14, -4
 3260 0002 85B0     		sub	sp, sp, #20
 3261              	.LCFI75:
 3262              		.cfi_def_cfa_offset 32
ARM GAS  C:\Users\User\AppData\Local\Temp\ccTFByJK.s 			page 94


 3263 0004 0446     		mov	r4, r0
1557:Middlewares/Third_Party/FreeRTOS/Source/CMSIS_RTOS/cmsis_os.c ****   TickType_t ticks;
 3264              		.loc 1 1557 3 is_stmt 1 view .LVU801
1558:Middlewares/Third_Party/FreeRTOS/Source/CMSIS_RTOS/cmsis_os.c ****   osEvent event;
 3265              		.loc 1 1558 3 view .LVU802
1559:Middlewares/Third_Party/FreeRTOS/Source/CMSIS_RTOS/cmsis_os.c ****   
1560:Middlewares/Third_Party/FreeRTOS/Source/CMSIS_RTOS/cmsis_os.c ****   event.def.message_id = queue_id;
 3266              		.loc 1 1560 3 view .LVU803
 3267              		.loc 1 1560 24 is_stmt 0 view .LVU804
 3268 0006 0391     		str	r1, [sp, #12]
1561:Middlewares/Third_Party/FreeRTOS/Source/CMSIS_RTOS/cmsis_os.c ****   
1562:Middlewares/Third_Party/FreeRTOS/Source/CMSIS_RTOS/cmsis_os.c ****   if (queue_id == NULL) {
 3269              		.loc 1 1562 3 is_stmt 1 view .LVU805
 3270              		.loc 1 1562 6 is_stmt 0 view .LVU806
 3271 0008 A9B1     		cbz	r1, .L273
 3272 000a 0846     		mov	r0, r1
 3273              	.LVL238:
 3274              		.loc 1 1562 6 view .LVU807
 3275 000c 1546     		mov	r5, r2
1563:Middlewares/Third_Party/FreeRTOS/Source/CMSIS_RTOS/cmsis_os.c ****     event.status = osErrorParameter;
1564:Middlewares/Third_Party/FreeRTOS/Source/CMSIS_RTOS/cmsis_os.c ****     return event;
1565:Middlewares/Third_Party/FreeRTOS/Source/CMSIS_RTOS/cmsis_os.c ****   }
1566:Middlewares/Third_Party/FreeRTOS/Source/CMSIS_RTOS/cmsis_os.c ****   
1567:Middlewares/Third_Party/FreeRTOS/Source/CMSIS_RTOS/cmsis_os.c ****   ticks = 0;
 3276              		.loc 1 1567 3 is_stmt 1 view .LVU808
 3277              	.LVL239:
1568:Middlewares/Third_Party/FreeRTOS/Source/CMSIS_RTOS/cmsis_os.c ****   if (millisec == osWaitForever) {
 3278              		.loc 1 1568 3 view .LVU809
 3279              		.loc 1 1568 6 is_stmt 0 view .LVU810
 3280 000e B2F1FF3F 		cmp	r2, #-1
 3281 0012 18D0     		beq	.L274
 3282              	.L266:
 3283              	.LVL240:
1569:Middlewares/Third_Party/FreeRTOS/Source/CMSIS_RTOS/cmsis_os.c ****     ticks = portMAX_DELAY;
1570:Middlewares/Third_Party/FreeRTOS/Source/CMSIS_RTOS/cmsis_os.c ****   }
1571:Middlewares/Third_Party/FreeRTOS/Source/CMSIS_RTOS/cmsis_os.c ****   else if (millisec != 0) {
1572:Middlewares/Third_Party/FreeRTOS/Source/CMSIS_RTOS/cmsis_os.c ****     ticks = millisec / portTICK_PERIOD_MS;
1573:Middlewares/Third_Party/FreeRTOS/Source/CMSIS_RTOS/cmsis_os.c ****     if (ticks == 0) {
1574:Middlewares/Third_Party/FreeRTOS/Source/CMSIS_RTOS/cmsis_os.c ****       ticks = 1;
1575:Middlewares/Third_Party/FreeRTOS/Source/CMSIS_RTOS/cmsis_os.c ****     }
1576:Middlewares/Third_Party/FreeRTOS/Source/CMSIS_RTOS/cmsis_os.c ****   }
1577:Middlewares/Third_Party/FreeRTOS/Source/CMSIS_RTOS/cmsis_os.c ****   
1578:Middlewares/Third_Party/FreeRTOS/Source/CMSIS_RTOS/cmsis_os.c ****   if (xQueuePeek(queue_id, &event.value.v, ticks) == pdTRUE) 
 3284              		.loc 1 1578 3 is_stmt 1 view .LVU811
 3285              		.loc 1 1578 7 is_stmt 0 view .LVU812
 3286 0014 2A46     		mov	r2, r5
 3287              	.LVL241:
 3288              		.loc 1 1578 7 view .LVU813
 3289 0016 02A9     		add	r1, sp, #8
 3290              	.LVL242:
 3291              		.loc 1 1578 7 view .LVU814
 3292 0018 FFF7FEFF 		bl	xQueuePeek
 3293              	.LVL243:
 3294              		.loc 1 1578 6 view .LVU815
 3295 001c 0128     		cmp	r0, #1
 3296 001e 15D0     		beq	.L275
1579:Middlewares/Third_Party/FreeRTOS/Source/CMSIS_RTOS/cmsis_os.c ****   {
ARM GAS  C:\Users\User\AppData\Local\Temp\ccTFByJK.s 			page 95


1580:Middlewares/Third_Party/FreeRTOS/Source/CMSIS_RTOS/cmsis_os.c ****     /* We have mail */
1581:Middlewares/Third_Party/FreeRTOS/Source/CMSIS_RTOS/cmsis_os.c ****     event.status = osEventMessage;
1582:Middlewares/Third_Party/FreeRTOS/Source/CMSIS_RTOS/cmsis_os.c ****   }
1583:Middlewares/Third_Party/FreeRTOS/Source/CMSIS_RTOS/cmsis_os.c ****   else 
1584:Middlewares/Third_Party/FreeRTOS/Source/CMSIS_RTOS/cmsis_os.c ****   {
1585:Middlewares/Third_Party/FreeRTOS/Source/CMSIS_RTOS/cmsis_os.c ****     event.status = (ticks == 0) ? osOK : osEventTimeout;
 3297              		.loc 1 1585 5 is_stmt 1 view .LVU816
 3298              		.loc 1 1585 40 is_stmt 0 view .LVU817
 3299 0020 BDB9     		cbnz	r5, .L271
 3300 0022 0023     		movs	r3, #0
 3301              	.L269:
 3302              		.loc 1 1585 18 discriminator 4 view .LVU818
 3303 0024 0193     		str	r3, [sp, #4]
 3304              	.L268:
1586:Middlewares/Third_Party/FreeRTOS/Source/CMSIS_RTOS/cmsis_os.c ****   }
1587:Middlewares/Third_Party/FreeRTOS/Source/CMSIS_RTOS/cmsis_os.c ****   
1588:Middlewares/Third_Party/FreeRTOS/Source/CMSIS_RTOS/cmsis_os.c ****   return event;
 3305              		.loc 1 1588 3 is_stmt 1 view .LVU819
 3306              		.loc 1 1588 10 is_stmt 0 view .LVU820
 3307 0026 04AB     		add	r3, sp, #16
 3308 0028 13E90700 		ldmdb	r3, {r0, r1, r2}
 3309 002c 84E80700 		stm	r4, {r0, r1, r2}
 3310              	.LVL244:
 3311              	.L263:
1589:Middlewares/Third_Party/FreeRTOS/Source/CMSIS_RTOS/cmsis_os.c **** }
 3312              		.loc 1 1589 1 view .LVU821
 3313 0030 2046     		mov	r0, r4
 3314 0032 05B0     		add	sp, sp, #20
 3315              	.LCFI76:
 3316              		.cfi_remember_state
 3317              		.cfi_def_cfa_offset 12
 3318              		@ sp needed
 3319 0034 30BD     		pop	{r4, r5, pc}
 3320              	.LVL245:
 3321              	.L273:
 3322              	.LCFI77:
 3323              		.cfi_restore_state
1563:Middlewares/Third_Party/FreeRTOS/Source/CMSIS_RTOS/cmsis_os.c ****     return event;
 3324              		.loc 1 1563 5 is_stmt 1 view .LVU822
1563:Middlewares/Third_Party/FreeRTOS/Source/CMSIS_RTOS/cmsis_os.c ****     return event;
 3325              		.loc 1 1563 18 is_stmt 0 view .LVU823
 3326 0036 8023     		movs	r3, #128
 3327 0038 0193     		str	r3, [sp, #4]
1564:Middlewares/Third_Party/FreeRTOS/Source/CMSIS_RTOS/cmsis_os.c ****   }
 3328              		.loc 1 1564 5 is_stmt 1 view .LVU824
1564:Middlewares/Third_Party/FreeRTOS/Source/CMSIS_RTOS/cmsis_os.c ****   }
 3329              		.loc 1 1564 12 is_stmt 0 view .LVU825
 3330 003a 04AB     		add	r3, sp, #16
 3331 003c 13E90700 		ldmdb	r3, {r0, r1, r2}
 3332              	.LVL246:
1564:Middlewares/Third_Party/FreeRTOS/Source/CMSIS_RTOS/cmsis_os.c ****   }
 3333              		.loc 1 1564 12 view .LVU826
 3334 0040 84E80700 		stm	r4, {r0, r1, r2}
 3335 0044 F4E7     		b	.L263
 3336              	.LVL247:
 3337              	.L274:
1569:Middlewares/Third_Party/FreeRTOS/Source/CMSIS_RTOS/cmsis_os.c ****   }
ARM GAS  C:\Users\User\AppData\Local\Temp\ccTFByJK.s 			page 96


 3338              		.loc 1 1569 11 view .LVU827
 3339 0046 4FF0FF35 		mov	r5, #-1
 3340 004a E3E7     		b	.L266
 3341              	.LVL248:
 3342              	.L275:
1581:Middlewares/Third_Party/FreeRTOS/Source/CMSIS_RTOS/cmsis_os.c ****   }
 3343              		.loc 1 1581 5 is_stmt 1 view .LVU828
1581:Middlewares/Third_Party/FreeRTOS/Source/CMSIS_RTOS/cmsis_os.c ****   }
 3344              		.loc 1 1581 18 is_stmt 0 view .LVU829
 3345 004c 1023     		movs	r3, #16
 3346 004e 0193     		str	r3, [sp, #4]
 3347 0050 E9E7     		b	.L268
 3348              	.L271:
1585:Middlewares/Third_Party/FreeRTOS/Source/CMSIS_RTOS/cmsis_os.c ****   }
 3349              		.loc 1 1585 40 view .LVU830
 3350 0052 4023     		movs	r3, #64
 3351 0054 E6E7     		b	.L269
 3352              		.cfi_endproc
 3353              	.LFE97:
 3355              		.section	.text.osMessageWaiting,"ax",%progbits
 3356              		.align	1
 3357              		.global	osMessageWaiting
 3358              		.syntax unified
 3359              		.thumb
 3360              		.thumb_func
 3361              		.fpu softvfp
 3363              	osMessageWaiting:
 3364              	.LVL249:
 3365              	.LFB98:
1590:Middlewares/Third_Party/FreeRTOS/Source/CMSIS_RTOS/cmsis_os.c **** 
1591:Middlewares/Third_Party/FreeRTOS/Source/CMSIS_RTOS/cmsis_os.c **** /**
1592:Middlewares/Third_Party/FreeRTOS/Source/CMSIS_RTOS/cmsis_os.c **** * @brief  Get the number of messaged stored in a queue.
1593:Middlewares/Third_Party/FreeRTOS/Source/CMSIS_RTOS/cmsis_os.c **** * @param  queue_id  message queue ID obtained with \ref osMessageCreate.
1594:Middlewares/Third_Party/FreeRTOS/Source/CMSIS_RTOS/cmsis_os.c **** * @retval number of messages stored in a queue.
1595:Middlewares/Third_Party/FreeRTOS/Source/CMSIS_RTOS/cmsis_os.c **** */
1596:Middlewares/Third_Party/FreeRTOS/Source/CMSIS_RTOS/cmsis_os.c **** uint32_t osMessageWaiting(osMessageQId queue_id)
1597:Middlewares/Third_Party/FreeRTOS/Source/CMSIS_RTOS/cmsis_os.c **** {
 3366              		.loc 1 1597 1 is_stmt 1 view -0
 3367              		.cfi_startproc
 3368              		@ args = 0, pretend = 0, frame = 0
 3369              		@ frame_needed = 0, uses_anonymous_args = 0
 3370              		.loc 1 1597 1 is_stmt 0 view .LVU832
 3371 0000 10B5     		push	{r4, lr}
 3372              	.LCFI78:
 3373              		.cfi_def_cfa_offset 8
 3374              		.cfi_offset 4, -8
 3375              		.cfi_offset 14, -4
 3376 0002 0446     		mov	r4, r0
1598:Middlewares/Third_Party/FreeRTOS/Source/CMSIS_RTOS/cmsis_os.c ****   if (inHandlerMode()) {
 3377              		.loc 1 1598 3 is_stmt 1 view .LVU833
 3378              		.loc 1 1598 7 is_stmt 0 view .LVU834
 3379 0004 FFF7FEFF 		bl	inHandlerMode
 3380              	.LVL250:
 3381              		.loc 1 1598 6 view .LVU835
 3382 0008 18B1     		cbz	r0, .L277
1599:Middlewares/Third_Party/FreeRTOS/Source/CMSIS_RTOS/cmsis_os.c ****     return uxQueueMessagesWaitingFromISR(queue_id);
 3383              		.loc 1 1599 5 is_stmt 1 view .LVU836
ARM GAS  C:\Users\User\AppData\Local\Temp\ccTFByJK.s 			page 97


 3384              		.loc 1 1599 12 is_stmt 0 view .LVU837
 3385 000a 2046     		mov	r0, r4
 3386 000c FFF7FEFF 		bl	uxQueueMessagesWaitingFromISR
 3387              	.LVL251:
 3388              	.L276:
1600:Middlewares/Third_Party/FreeRTOS/Source/CMSIS_RTOS/cmsis_os.c ****   }
1601:Middlewares/Third_Party/FreeRTOS/Source/CMSIS_RTOS/cmsis_os.c ****   else
1602:Middlewares/Third_Party/FreeRTOS/Source/CMSIS_RTOS/cmsis_os.c ****   {
1603:Middlewares/Third_Party/FreeRTOS/Source/CMSIS_RTOS/cmsis_os.c ****     return uxQueueMessagesWaiting(queue_id);
1604:Middlewares/Third_Party/FreeRTOS/Source/CMSIS_RTOS/cmsis_os.c ****   }
1605:Middlewares/Third_Party/FreeRTOS/Source/CMSIS_RTOS/cmsis_os.c **** }
 3389              		.loc 1 1605 1 view .LVU838
 3390 0010 10BD     		pop	{r4, pc}
 3391              	.LVL252:
 3392              	.L277:
1603:Middlewares/Third_Party/FreeRTOS/Source/CMSIS_RTOS/cmsis_os.c ****   }
 3393              		.loc 1 1603 5 is_stmt 1 view .LVU839
1603:Middlewares/Third_Party/FreeRTOS/Source/CMSIS_RTOS/cmsis_os.c ****   }
 3394              		.loc 1 1603 12 is_stmt 0 view .LVU840
 3395 0012 2046     		mov	r0, r4
 3396 0014 FFF7FEFF 		bl	uxQueueMessagesWaiting
 3397              	.LVL253:
 3398 0018 FAE7     		b	.L276
 3399              		.cfi_endproc
 3400              	.LFE98:
 3402              		.section	.text.osMessageAvailableSpace,"ax",%progbits
 3403              		.align	1
 3404              		.global	osMessageAvailableSpace
 3405              		.syntax unified
 3406              		.thumb
 3407              		.thumb_func
 3408              		.fpu softvfp
 3410              	osMessageAvailableSpace:
 3411              	.LVL254:
 3412              	.LFB99:
1606:Middlewares/Third_Party/FreeRTOS/Source/CMSIS_RTOS/cmsis_os.c **** 
1607:Middlewares/Third_Party/FreeRTOS/Source/CMSIS_RTOS/cmsis_os.c **** /**
1608:Middlewares/Third_Party/FreeRTOS/Source/CMSIS_RTOS/cmsis_os.c **** * @brief  Get the available space in a message queue.
1609:Middlewares/Third_Party/FreeRTOS/Source/CMSIS_RTOS/cmsis_os.c **** * @param  queue_id  message queue ID obtained with \ref osMessageCreate.
1610:Middlewares/Third_Party/FreeRTOS/Source/CMSIS_RTOS/cmsis_os.c **** * @retval available space in a message queue.
1611:Middlewares/Third_Party/FreeRTOS/Source/CMSIS_RTOS/cmsis_os.c **** */
1612:Middlewares/Third_Party/FreeRTOS/Source/CMSIS_RTOS/cmsis_os.c **** uint32_t osMessageAvailableSpace(osMessageQId queue_id)  
1613:Middlewares/Third_Party/FreeRTOS/Source/CMSIS_RTOS/cmsis_os.c **** {
 3413              		.loc 1 1613 1 is_stmt 1 view -0
 3414              		.cfi_startproc
 3415              		@ args = 0, pretend = 0, frame = 0
 3416              		@ frame_needed = 0, uses_anonymous_args = 0
 3417              		.loc 1 1613 1 is_stmt 0 view .LVU842
 3418 0000 08B5     		push	{r3, lr}
 3419              	.LCFI79:
 3420              		.cfi_def_cfa_offset 8
 3421              		.cfi_offset 3, -8
 3422              		.cfi_offset 14, -4
1614:Middlewares/Third_Party/FreeRTOS/Source/CMSIS_RTOS/cmsis_os.c ****   return uxQueueSpacesAvailable(queue_id);
 3423              		.loc 1 1614 3 is_stmt 1 view .LVU843
 3424              		.loc 1 1614 10 is_stmt 0 view .LVU844
 3425 0002 FFF7FEFF 		bl	uxQueueSpacesAvailable
ARM GAS  C:\Users\User\AppData\Local\Temp\ccTFByJK.s 			page 98


 3426              	.LVL255:
1615:Middlewares/Third_Party/FreeRTOS/Source/CMSIS_RTOS/cmsis_os.c **** }
 3427              		.loc 1 1615 1 view .LVU845
 3428 0006 08BD     		pop	{r3, pc}
 3429              		.cfi_endproc
 3430              	.LFE99:
 3432              		.section	.text.osMessageDelete,"ax",%progbits
 3433              		.align	1
 3434              		.global	osMessageDelete
 3435              		.syntax unified
 3436              		.thumb
 3437              		.thumb_func
 3438              		.fpu softvfp
 3440              	osMessageDelete:
 3441              	.LVL256:
 3442              	.LFB100:
1616:Middlewares/Third_Party/FreeRTOS/Source/CMSIS_RTOS/cmsis_os.c **** 
1617:Middlewares/Third_Party/FreeRTOS/Source/CMSIS_RTOS/cmsis_os.c **** /**
1618:Middlewares/Third_Party/FreeRTOS/Source/CMSIS_RTOS/cmsis_os.c **** * @brief Delete a Message Queue
1619:Middlewares/Third_Party/FreeRTOS/Source/CMSIS_RTOS/cmsis_os.c **** * @param  queue_id  message queue ID obtained with \ref osMessageCreate.
1620:Middlewares/Third_Party/FreeRTOS/Source/CMSIS_RTOS/cmsis_os.c **** * @retval  status code that indicates the execution status of the function.
1621:Middlewares/Third_Party/FreeRTOS/Source/CMSIS_RTOS/cmsis_os.c **** */
1622:Middlewares/Third_Party/FreeRTOS/Source/CMSIS_RTOS/cmsis_os.c **** osStatus osMessageDelete (osMessageQId queue_id)
1623:Middlewares/Third_Party/FreeRTOS/Source/CMSIS_RTOS/cmsis_os.c **** {
 3443              		.loc 1 1623 1 is_stmt 1 view -0
 3444              		.cfi_startproc
 3445              		@ args = 0, pretend = 0, frame = 0
 3446              		@ frame_needed = 0, uses_anonymous_args = 0
 3447              		.loc 1 1623 1 is_stmt 0 view .LVU847
 3448 0000 10B5     		push	{r4, lr}
 3449              	.LCFI80:
 3450              		.cfi_def_cfa_offset 8
 3451              		.cfi_offset 4, -8
 3452              		.cfi_offset 14, -4
 3453 0002 0446     		mov	r4, r0
1624:Middlewares/Third_Party/FreeRTOS/Source/CMSIS_RTOS/cmsis_os.c ****   if (inHandlerMode()) {
 3454              		.loc 1 1624 3 is_stmt 1 view .LVU848
 3455              		.loc 1 1624 7 is_stmt 0 view .LVU849
 3456 0004 FFF7FEFF 		bl	inHandlerMode
 3457              	.LVL257:
 3458              		.loc 1 1624 6 view .LVU850
 3459 0008 20B9     		cbnz	r0, .L284
1625:Middlewares/Third_Party/FreeRTOS/Source/CMSIS_RTOS/cmsis_os.c ****     return osErrorISR;
1626:Middlewares/Third_Party/FreeRTOS/Source/CMSIS_RTOS/cmsis_os.c ****   }
1627:Middlewares/Third_Party/FreeRTOS/Source/CMSIS_RTOS/cmsis_os.c **** 
1628:Middlewares/Third_Party/FreeRTOS/Source/CMSIS_RTOS/cmsis_os.c ****   vQueueDelete(queue_id);
 3460              		.loc 1 1628 3 is_stmt 1 view .LVU851
 3461 000a 2046     		mov	r0, r4
 3462 000c FFF7FEFF 		bl	vQueueDelete
 3463              	.LVL258:
1629:Middlewares/Third_Party/FreeRTOS/Source/CMSIS_RTOS/cmsis_os.c **** 
1630:Middlewares/Third_Party/FreeRTOS/Source/CMSIS_RTOS/cmsis_os.c ****   return osOK; 
 3464              		.loc 1 1630 3 view .LVU852
 3465              		.loc 1 1630 10 is_stmt 0 view .LVU853
 3466 0010 0020     		movs	r0, #0
 3467              	.L282:
1631:Middlewares/Third_Party/FreeRTOS/Source/CMSIS_RTOS/cmsis_os.c **** }
ARM GAS  C:\Users\User\AppData\Local\Temp\ccTFByJK.s 			page 99


 3468              		.loc 1 1631 1 view .LVU854
 3469 0012 10BD     		pop	{r4, pc}
 3470              	.LVL259:
 3471              	.L284:
1625:Middlewares/Third_Party/FreeRTOS/Source/CMSIS_RTOS/cmsis_os.c ****     return osErrorISR;
 3472              		.loc 1 1625 12 view .LVU855
 3473 0014 8220     		movs	r0, #130
 3474 0016 FCE7     		b	.L282
 3475              		.cfi_endproc
 3476              	.LFE100:
 3478              		.section	.text.osRecursiveMutexCreate,"ax",%progbits
 3479              		.align	1
 3480              		.global	osRecursiveMutexCreate
 3481              		.syntax unified
 3482              		.thumb
 3483              		.thumb_func
 3484              		.fpu softvfp
 3486              	osRecursiveMutexCreate:
 3487              	.LVL260:
 3488              	.LFB101:
1632:Middlewares/Third_Party/FreeRTOS/Source/CMSIS_RTOS/cmsis_os.c **** 
1633:Middlewares/Third_Party/FreeRTOS/Source/CMSIS_RTOS/cmsis_os.c **** /**
1634:Middlewares/Third_Party/FreeRTOS/Source/CMSIS_RTOS/cmsis_os.c **** * @brief  Create and Initialize a Recursive Mutex
1635:Middlewares/Third_Party/FreeRTOS/Source/CMSIS_RTOS/cmsis_os.c **** * @param  mutex_def     mutex definition referenced with \ref osMutex.
1636:Middlewares/Third_Party/FreeRTOS/Source/CMSIS_RTOS/cmsis_os.c **** * @retval  mutex ID for reference by other functions or NULL in case of error..
1637:Middlewares/Third_Party/FreeRTOS/Source/CMSIS_RTOS/cmsis_os.c **** */
1638:Middlewares/Third_Party/FreeRTOS/Source/CMSIS_RTOS/cmsis_os.c **** osMutexId osRecursiveMutexCreate (const osMutexDef_t *mutex_def)
1639:Middlewares/Third_Party/FreeRTOS/Source/CMSIS_RTOS/cmsis_os.c **** {
 3489              		.loc 1 1639 1 is_stmt 1 view -0
 3490              		.cfi_startproc
 3491              		@ args = 0, pretend = 0, frame = 0
 3492              		@ frame_needed = 0, uses_anonymous_args = 0
 3493              		@ link register save eliminated.
1640:Middlewares/Third_Party/FreeRTOS/Source/CMSIS_RTOS/cmsis_os.c **** #if (configUSE_RECURSIVE_MUTEXES == 1)
1641:Middlewares/Third_Party/FreeRTOS/Source/CMSIS_RTOS/cmsis_os.c **** #if( configSUPPORT_STATIC_ALLOCATION == 1 ) && ( configSUPPORT_DYNAMIC_ALLOCATION == 1 )
1642:Middlewares/Third_Party/FreeRTOS/Source/CMSIS_RTOS/cmsis_os.c **** 
1643:Middlewares/Third_Party/FreeRTOS/Source/CMSIS_RTOS/cmsis_os.c ****   if (mutex_def->controlblock != NULL){
1644:Middlewares/Third_Party/FreeRTOS/Source/CMSIS_RTOS/cmsis_os.c ****     return xSemaphoreCreateRecursiveMutexStatic( mutex_def->controlblock );
1645:Middlewares/Third_Party/FreeRTOS/Source/CMSIS_RTOS/cmsis_os.c ****   }
1646:Middlewares/Third_Party/FreeRTOS/Source/CMSIS_RTOS/cmsis_os.c ****   else {
1647:Middlewares/Third_Party/FreeRTOS/Source/CMSIS_RTOS/cmsis_os.c ****     return xSemaphoreCreateRecursiveMutex();
1648:Middlewares/Third_Party/FreeRTOS/Source/CMSIS_RTOS/cmsis_os.c ****   }
1649:Middlewares/Third_Party/FreeRTOS/Source/CMSIS_RTOS/cmsis_os.c **** #elif ( configSUPPORT_STATIC_ALLOCATION == 1 )
1650:Middlewares/Third_Party/FreeRTOS/Source/CMSIS_RTOS/cmsis_os.c ****   return xSemaphoreCreateRecursiveMutexStatic( mutex_def->controlblock );
1651:Middlewares/Third_Party/FreeRTOS/Source/CMSIS_RTOS/cmsis_os.c **** #else 
1652:Middlewares/Third_Party/FreeRTOS/Source/CMSIS_RTOS/cmsis_os.c ****   return xSemaphoreCreateRecursiveMutex();
1653:Middlewares/Third_Party/FreeRTOS/Source/CMSIS_RTOS/cmsis_os.c **** #endif
1654:Middlewares/Third_Party/FreeRTOS/Source/CMSIS_RTOS/cmsis_os.c **** #else
1655:Middlewares/Third_Party/FreeRTOS/Source/CMSIS_RTOS/cmsis_os.c ****   return NULL;
 3494              		.loc 1 1655 3 view .LVU857
1656:Middlewares/Third_Party/FreeRTOS/Source/CMSIS_RTOS/cmsis_os.c **** #endif	
1657:Middlewares/Third_Party/FreeRTOS/Source/CMSIS_RTOS/cmsis_os.c **** }
 3495              		.loc 1 1657 1 is_stmt 0 view .LVU858
 3496 0000 0020     		movs	r0, #0
 3497              	.LVL261:
 3498              		.loc 1 1657 1 view .LVU859
 3499 0002 7047     		bx	lr
ARM GAS  C:\Users\User\AppData\Local\Temp\ccTFByJK.s 			page 100


 3500              		.cfi_endproc
 3501              	.LFE101:
 3503              		.section	.text.osRecursiveMutexRelease,"ax",%progbits
 3504              		.align	1
 3505              		.global	osRecursiveMutexRelease
 3506              		.syntax unified
 3507              		.thumb
 3508              		.thumb_func
 3509              		.fpu softvfp
 3511              	osRecursiveMutexRelease:
 3512              	.LVL262:
 3513              	.LFB102:
1658:Middlewares/Third_Party/FreeRTOS/Source/CMSIS_RTOS/cmsis_os.c **** 
1659:Middlewares/Third_Party/FreeRTOS/Source/CMSIS_RTOS/cmsis_os.c **** /**
1660:Middlewares/Third_Party/FreeRTOS/Source/CMSIS_RTOS/cmsis_os.c **** * @brief  Release a Recursive Mutex
1661:Middlewares/Third_Party/FreeRTOS/Source/CMSIS_RTOS/cmsis_os.c **** * @param   mutex_id      mutex ID obtained by \ref osRecursiveMutexCreate.
1662:Middlewares/Third_Party/FreeRTOS/Source/CMSIS_RTOS/cmsis_os.c **** * @retval  status code that indicates the execution status of the function.
1663:Middlewares/Third_Party/FreeRTOS/Source/CMSIS_RTOS/cmsis_os.c **** */
1664:Middlewares/Third_Party/FreeRTOS/Source/CMSIS_RTOS/cmsis_os.c **** osStatus osRecursiveMutexRelease (osMutexId mutex_id)
1665:Middlewares/Third_Party/FreeRTOS/Source/CMSIS_RTOS/cmsis_os.c **** {
 3514              		.loc 1 1665 1 is_stmt 1 view -0
 3515              		.cfi_startproc
 3516              		@ args = 0, pretend = 0, frame = 0
 3517              		@ frame_needed = 0, uses_anonymous_args = 0
 3518              		@ link register save eliminated.
1666:Middlewares/Third_Party/FreeRTOS/Source/CMSIS_RTOS/cmsis_os.c **** #if (configUSE_RECURSIVE_MUTEXES == 1)
1667:Middlewares/Third_Party/FreeRTOS/Source/CMSIS_RTOS/cmsis_os.c ****   osStatus result = osOK;
1668:Middlewares/Third_Party/FreeRTOS/Source/CMSIS_RTOS/cmsis_os.c ****  
1669:Middlewares/Third_Party/FreeRTOS/Source/CMSIS_RTOS/cmsis_os.c ****   if (xSemaphoreGiveRecursive(mutex_id) != pdTRUE) 
1670:Middlewares/Third_Party/FreeRTOS/Source/CMSIS_RTOS/cmsis_os.c ****   {
1671:Middlewares/Third_Party/FreeRTOS/Source/CMSIS_RTOS/cmsis_os.c ****     result = osErrorOS;
1672:Middlewares/Third_Party/FreeRTOS/Source/CMSIS_RTOS/cmsis_os.c ****   }
1673:Middlewares/Third_Party/FreeRTOS/Source/CMSIS_RTOS/cmsis_os.c ****   return result;
1674:Middlewares/Third_Party/FreeRTOS/Source/CMSIS_RTOS/cmsis_os.c **** #else
1675:Middlewares/Third_Party/FreeRTOS/Source/CMSIS_RTOS/cmsis_os.c **** 	return osErrorResource;
 3519              		.loc 1 1675 2 view .LVU861
1676:Middlewares/Third_Party/FreeRTOS/Source/CMSIS_RTOS/cmsis_os.c **** #endif
1677:Middlewares/Third_Party/FreeRTOS/Source/CMSIS_RTOS/cmsis_os.c **** }
 3520              		.loc 1 1677 1 is_stmt 0 view .LVU862
 3521 0000 8120     		movs	r0, #129
 3522              	.LVL263:
 3523              		.loc 1 1677 1 view .LVU863
 3524 0002 7047     		bx	lr
 3525              		.cfi_endproc
 3526              	.LFE102:
 3528              		.section	.text.osRecursiveMutexWait,"ax",%progbits
 3529              		.align	1
 3530              		.global	osRecursiveMutexWait
 3531              		.syntax unified
 3532              		.thumb
 3533              		.thumb_func
 3534              		.fpu softvfp
 3536              	osRecursiveMutexWait:
 3537              	.LVL264:
 3538              	.LFB103:
1678:Middlewares/Third_Party/FreeRTOS/Source/CMSIS_RTOS/cmsis_os.c **** 
1679:Middlewares/Third_Party/FreeRTOS/Source/CMSIS_RTOS/cmsis_os.c **** /**
ARM GAS  C:\Users\User\AppData\Local\Temp\ccTFByJK.s 			page 101


1680:Middlewares/Third_Party/FreeRTOS/Source/CMSIS_RTOS/cmsis_os.c **** * @brief  Release a Recursive Mutex
1681:Middlewares/Third_Party/FreeRTOS/Source/CMSIS_RTOS/cmsis_os.c **** * @param   mutex_id    mutex ID obtained by \ref osRecursiveMutexCreate.
1682:Middlewares/Third_Party/FreeRTOS/Source/CMSIS_RTOS/cmsis_os.c **** * @param millisec      timeout value or 0 in case of no time-out.
1683:Middlewares/Third_Party/FreeRTOS/Source/CMSIS_RTOS/cmsis_os.c **** * @retval  status code that indicates the execution status of the function.
1684:Middlewares/Third_Party/FreeRTOS/Source/CMSIS_RTOS/cmsis_os.c **** */
1685:Middlewares/Third_Party/FreeRTOS/Source/CMSIS_RTOS/cmsis_os.c **** osStatus osRecursiveMutexWait (osMutexId mutex_id, uint32_t millisec)
1686:Middlewares/Third_Party/FreeRTOS/Source/CMSIS_RTOS/cmsis_os.c **** {
 3539              		.loc 1 1686 1 is_stmt 1 view -0
 3540              		.cfi_startproc
 3541              		@ args = 0, pretend = 0, frame = 0
 3542              		@ frame_needed = 0, uses_anonymous_args = 0
 3543              		@ link register save eliminated.
1687:Middlewares/Third_Party/FreeRTOS/Source/CMSIS_RTOS/cmsis_os.c **** #if (configUSE_RECURSIVE_MUTEXES == 1)
1688:Middlewares/Third_Party/FreeRTOS/Source/CMSIS_RTOS/cmsis_os.c ****   TickType_t ticks;
1689:Middlewares/Third_Party/FreeRTOS/Source/CMSIS_RTOS/cmsis_os.c ****   
1690:Middlewares/Third_Party/FreeRTOS/Source/CMSIS_RTOS/cmsis_os.c ****   if (mutex_id == NULL)
1691:Middlewares/Third_Party/FreeRTOS/Source/CMSIS_RTOS/cmsis_os.c ****   {
1692:Middlewares/Third_Party/FreeRTOS/Source/CMSIS_RTOS/cmsis_os.c ****     return osErrorParameter;
1693:Middlewares/Third_Party/FreeRTOS/Source/CMSIS_RTOS/cmsis_os.c ****   }
1694:Middlewares/Third_Party/FreeRTOS/Source/CMSIS_RTOS/cmsis_os.c ****   
1695:Middlewares/Third_Party/FreeRTOS/Source/CMSIS_RTOS/cmsis_os.c ****   ticks = 0;
1696:Middlewares/Third_Party/FreeRTOS/Source/CMSIS_RTOS/cmsis_os.c ****   if (millisec == osWaitForever) 
1697:Middlewares/Third_Party/FreeRTOS/Source/CMSIS_RTOS/cmsis_os.c ****   {
1698:Middlewares/Third_Party/FreeRTOS/Source/CMSIS_RTOS/cmsis_os.c ****     ticks = portMAX_DELAY;
1699:Middlewares/Third_Party/FreeRTOS/Source/CMSIS_RTOS/cmsis_os.c ****   }
1700:Middlewares/Third_Party/FreeRTOS/Source/CMSIS_RTOS/cmsis_os.c ****   else if (millisec != 0) 
1701:Middlewares/Third_Party/FreeRTOS/Source/CMSIS_RTOS/cmsis_os.c ****   {
1702:Middlewares/Third_Party/FreeRTOS/Source/CMSIS_RTOS/cmsis_os.c ****     ticks = millisec / portTICK_PERIOD_MS;
1703:Middlewares/Third_Party/FreeRTOS/Source/CMSIS_RTOS/cmsis_os.c ****     if (ticks == 0) 
1704:Middlewares/Third_Party/FreeRTOS/Source/CMSIS_RTOS/cmsis_os.c ****     {
1705:Middlewares/Third_Party/FreeRTOS/Source/CMSIS_RTOS/cmsis_os.c ****       ticks = 1;
1706:Middlewares/Third_Party/FreeRTOS/Source/CMSIS_RTOS/cmsis_os.c ****     }
1707:Middlewares/Third_Party/FreeRTOS/Source/CMSIS_RTOS/cmsis_os.c ****   }
1708:Middlewares/Third_Party/FreeRTOS/Source/CMSIS_RTOS/cmsis_os.c ****   
1709:Middlewares/Third_Party/FreeRTOS/Source/CMSIS_RTOS/cmsis_os.c ****   if (xSemaphoreTakeRecursive(mutex_id, ticks) != pdTRUE) 
1710:Middlewares/Third_Party/FreeRTOS/Source/CMSIS_RTOS/cmsis_os.c ****   {
1711:Middlewares/Third_Party/FreeRTOS/Source/CMSIS_RTOS/cmsis_os.c ****     return osErrorOS;
1712:Middlewares/Third_Party/FreeRTOS/Source/CMSIS_RTOS/cmsis_os.c ****   }
1713:Middlewares/Third_Party/FreeRTOS/Source/CMSIS_RTOS/cmsis_os.c ****   return osOK;
1714:Middlewares/Third_Party/FreeRTOS/Source/CMSIS_RTOS/cmsis_os.c **** #else
1715:Middlewares/Third_Party/FreeRTOS/Source/CMSIS_RTOS/cmsis_os.c **** 	return osErrorResource;
 3544              		.loc 1 1715 2 view .LVU865
1716:Middlewares/Third_Party/FreeRTOS/Source/CMSIS_RTOS/cmsis_os.c **** #endif
1717:Middlewares/Third_Party/FreeRTOS/Source/CMSIS_RTOS/cmsis_os.c **** }
 3545              		.loc 1 1717 1 is_stmt 0 view .LVU866
 3546 0000 8120     		movs	r0, #129
 3547              	.LVL265:
 3548              		.loc 1 1717 1 view .LVU867
 3549 0002 7047     		bx	lr
 3550              		.cfi_endproc
 3551              	.LFE103:
 3553              		.section	.text.osSemaphoreGetCount,"ax",%progbits
 3554              		.align	1
 3555              		.global	osSemaphoreGetCount
 3556              		.syntax unified
 3557              		.thumb
 3558              		.thumb_func
ARM GAS  C:\Users\User\AppData\Local\Temp\ccTFByJK.s 			page 102


 3559              		.fpu softvfp
 3561              	osSemaphoreGetCount:
 3562              	.LVL266:
 3563              	.LFB104:
1718:Middlewares/Third_Party/FreeRTOS/Source/CMSIS_RTOS/cmsis_os.c **** 
1719:Middlewares/Third_Party/FreeRTOS/Source/CMSIS_RTOS/cmsis_os.c **** /**
1720:Middlewares/Third_Party/FreeRTOS/Source/CMSIS_RTOS/cmsis_os.c **** * @brief  Returns the current count value of a counting semaphore
1721:Middlewares/Third_Party/FreeRTOS/Source/CMSIS_RTOS/cmsis_os.c **** * @param  semaphore_id  semaphore_id ID obtained by \ref osSemaphoreCreate.
1722:Middlewares/Third_Party/FreeRTOS/Source/CMSIS_RTOS/cmsis_os.c **** * @retval  count value
1723:Middlewares/Third_Party/FreeRTOS/Source/CMSIS_RTOS/cmsis_os.c **** */
1724:Middlewares/Third_Party/FreeRTOS/Source/CMSIS_RTOS/cmsis_os.c **** uint32_t osSemaphoreGetCount(osSemaphoreId semaphore_id)
1725:Middlewares/Third_Party/FreeRTOS/Source/CMSIS_RTOS/cmsis_os.c **** {
 3564              		.loc 1 1725 1 is_stmt 1 view -0
 3565              		.cfi_startproc
 3566              		@ args = 0, pretend = 0, frame = 0
 3567              		@ frame_needed = 0, uses_anonymous_args = 0
 3568              		.loc 1 1725 1 is_stmt 0 view .LVU869
 3569 0000 08B5     		push	{r3, lr}
 3570              	.LCFI81:
 3571              		.cfi_def_cfa_offset 8
 3572              		.cfi_offset 3, -8
 3573              		.cfi_offset 14, -4
1726:Middlewares/Third_Party/FreeRTOS/Source/CMSIS_RTOS/cmsis_os.c ****   return uxSemaphoreGetCount(semaphore_id);
 3574              		.loc 1 1726 3 is_stmt 1 view .LVU870
 3575              		.loc 1 1726 10 is_stmt 0 view .LVU871
 3576 0002 FFF7FEFF 		bl	uxQueueMessagesWaiting
 3577              	.LVL267:
1727:Middlewares/Third_Party/FreeRTOS/Source/CMSIS_RTOS/cmsis_os.c **** }
 3578              		.loc 1 1727 1 view .LVU872
 3579 0006 08BD     		pop	{r3, pc}
 3580              		.cfi_endproc
 3581              	.LFE104:
 3583              		.text
 3584              	.Letext0:
 3585              		.file 4 "c:\\users\\user\\appdata\\roaming\\gnumcueclipse\\armembeddedgcc\\arm-none-eabi\\include\
 3586              		.file 5 "c:\\users\\user\\appdata\\roaming\\gnumcueclipse\\armembeddedgcc\\arm-none-eabi\\include\
 3587              		.file 6 "c:\\users\\user\\appdata\\roaming\\gnumcueclipse\\armembeddedgcc\\arm-none-eabi\\include\
 3588              		.file 7 "c:\\users\\user\\appdata\\roaming\\gnumcueclipse\\armembeddedgcc\\lib\\gcc\\arm-none-eabi
 3589              		.file 8 "c:\\users\\user\\appdata\\roaming\\gnumcueclipse\\armembeddedgcc\\arm-none-eabi\\include\
 3590              		.file 9 "c:\\users\\user\\appdata\\roaming\\gnumcueclipse\\armembeddedgcc\\arm-none-eabi\\include\
 3591              		.file 10 "Inc/FreeRTOSConfig.h"
 3592              		.file 11 "Middlewares/Third_Party/FreeRTOS/Source/include/projdefs.h"
 3593              		.file 12 "Middlewares/Third_Party/FreeRTOS/Source/include/task.h"
 3594              		.file 13 "Middlewares/Third_Party/FreeRTOS/Source/include/timers.h"
 3595              		.file 14 "Middlewares/Third_Party/FreeRTOS/Source/include/queue.h"
 3596              		.file 15 "Middlewares/Third_Party/FreeRTOS/Source/include/semphr.h"
 3597              		.file 16 "Middlewares/Third_Party/FreeRTOS/Source/CMSIS_RTOS/cmsis_os.h"
 3598              		.file 17 "Middlewares/Third_Party/FreeRTOS/Source/include/portable.h"
ARM GAS  C:\Users\User\AppData\Local\Temp\ccTFByJK.s 			page 103


DEFINED SYMBOLS
                            *ABS*:0000000000000000 cmsis_os.c
C:\Users\User\AppData\Local\Temp\ccTFByJK.s:16     .text.makeFreeRtosPriority:0000000000000000 $t
C:\Users\User\AppData\Local\Temp\ccTFByJK.s:23     .text.makeFreeRtosPriority:0000000000000000 makeFreeRtosPriority
C:\Users\User\AppData\Local\Temp\ccTFByJK.s:55     .text.makeCmsisPriority:0000000000000000 $t
C:\Users\User\AppData\Local\Temp\ccTFByJK.s:61     .text.makeCmsisPriority:0000000000000000 makeCmsisPriority
C:\Users\User\AppData\Local\Temp\ccTFByJK.s:95     .text.inHandlerMode:0000000000000000 $t
C:\Users\User\AppData\Local\Temp\ccTFByJK.s:101    .text.inHandlerMode:0000000000000000 inHandlerMode
C:\Users\User\AppData\Local\Temp\ccTFByJK.s:136    .text.osKernelStart:0000000000000000 $t
C:\Users\User\AppData\Local\Temp\ccTFByJK.s:143    .text.osKernelStart:0000000000000000 osKernelStart
C:\Users\User\AppData\Local\Temp\ccTFByJK.s:165    .text.osKernelRunning:0000000000000000 $t
C:\Users\User\AppData\Local\Temp\ccTFByJK.s:172    .text.osKernelRunning:0000000000000000 osKernelRunning
C:\Users\User\AppData\Local\Temp\ccTFByJK.s:203    .text.osKernelSysTick:0000000000000000 $t
C:\Users\User\AppData\Local\Temp\ccTFByJK.s:210    .text.osKernelSysTick:0000000000000000 osKernelSysTick
C:\Users\User\AppData\Local\Temp\ccTFByJK.s:244    .text.osThreadCreate:0000000000000000 $t
C:\Users\User\AppData\Local\Temp\ccTFByJK.s:251    .text.osThreadCreate:0000000000000000 osThreadCreate
C:\Users\User\AppData\Local\Temp\ccTFByJK.s:320    .text.osThreadGetId:0000000000000000 $t
C:\Users\User\AppData\Local\Temp\ccTFByJK.s:327    .text.osThreadGetId:0000000000000000 osThreadGetId
C:\Users\User\AppData\Local\Temp\ccTFByJK.s:348    .text.osThreadTerminate:0000000000000000 $t
C:\Users\User\AppData\Local\Temp\ccTFByJK.s:355    .text.osThreadTerminate:0000000000000000 osThreadTerminate
C:\Users\User\AppData\Local\Temp\ccTFByJK.s:379    .text.osThreadYield:0000000000000000 $t
C:\Users\User\AppData\Local\Temp\ccTFByJK.s:386    .text.osThreadYield:0000000000000000 osThreadYield
C:\Users\User\AppData\Local\Temp\ccTFByJK.s:416    .text.osThreadYield:0000000000000014 $d
C:\Users\User\AppData\Local\Temp\ccTFByJK.s:421    .text.osThreadSetPriority:0000000000000000 $t
C:\Users\User\AppData\Local\Temp\ccTFByJK.s:428    .text.osThreadSetPriority:0000000000000000 osThreadSetPriority
C:\Users\User\AppData\Local\Temp\ccTFByJK.s:462    .text.osThreadGetPriority:0000000000000000 $t
C:\Users\User\AppData\Local\Temp\ccTFByJK.s:469    .text.osThreadGetPriority:0000000000000000 osThreadGetPriority
C:\Users\User\AppData\Local\Temp\ccTFByJK.s:513    .text.osDelay:0000000000000000 $t
C:\Users\User\AppData\Local\Temp\ccTFByJK.s:520    .text.osDelay:0000000000000000 osDelay
C:\Users\User\AppData\Local\Temp\ccTFByJK.s:554    .text.osTimerCreate:0000000000000000 $t
C:\Users\User\AppData\Local\Temp\ccTFByJK.s:561    .text.osTimerCreate:0000000000000000 osTimerCreate
C:\Users\User\AppData\Local\Temp\ccTFByJK.s:579    .text.osTimerStart:0000000000000000 $t
C:\Users\User\AppData\Local\Temp\ccTFByJK.s:586    .text.osTimerStart:0000000000000000 osTimerStart
C:\Users\User\AppData\Local\Temp\ccTFByJK.s:606    .text.osTimerStop:0000000000000000 $t
C:\Users\User\AppData\Local\Temp\ccTFByJK.s:613    .text.osTimerStop:0000000000000000 osTimerStop
C:\Users\User\AppData\Local\Temp\ccTFByJK.s:633    .text.osTimerDelete:0000000000000000 $t
C:\Users\User\AppData\Local\Temp\ccTFByJK.s:640    .text.osTimerDelete:0000000000000000 osTimerDelete
C:\Users\User\AppData\Local\Temp\ccTFByJK.s:660    .text.osSignalSet:0000000000000000 $t
C:\Users\User\AppData\Local\Temp\ccTFByJK.s:667    .text.osSignalSet:0000000000000000 osSignalSet
C:\Users\User\AppData\Local\Temp\ccTFByJK.s:769    .text.osSignalSet:0000000000000060 $d
C:\Users\User\AppData\Local\Temp\ccTFByJK.s:774    .text.osSignalWait:0000000000000000 $t
C:\Users\User\AppData\Local\Temp\ccTFByJK.s:781    .text.osSignalWait:0000000000000000 osSignalWait
C:\Users\User\AppData\Local\Temp\ccTFByJK.s:900    .text.osMutexCreate:0000000000000000 $t
C:\Users\User\AppData\Local\Temp\ccTFByJK.s:907    .text.osMutexCreate:0000000000000000 osMutexCreate
C:\Users\User\AppData\Local\Temp\ccTFByJK.s:933    .text.osMutexWait:0000000000000000 $t
C:\Users\User\AppData\Local\Temp\ccTFByJK.s:940    .text.osMutexWait:0000000000000000 osMutexWait
C:\Users\User\AppData\Local\Temp\ccTFByJK.s:1067   .text.osMutexWait:000000000000006c $d
C:\Users\User\AppData\Local\Temp\ccTFByJK.s:1072   .text.osMutexRelease:0000000000000000 $t
C:\Users\User\AppData\Local\Temp\ccTFByJK.s:1079   .text.osMutexRelease:0000000000000000 osMutexRelease
C:\Users\User\AppData\Local\Temp\ccTFByJK.s:1178   .text.osMutexRelease:0000000000000058 $d
C:\Users\User\AppData\Local\Temp\ccTFByJK.s:1183   .text.osMutexDelete:0000000000000000 $t
C:\Users\User\AppData\Local\Temp\ccTFByJK.s:1190   .text.osMutexDelete:0000000000000000 osMutexDelete
C:\Users\User\AppData\Local\Temp\ccTFByJK.s:1229   .text.osSemaphoreCreate:0000000000000000 $t
C:\Users\User\AppData\Local\Temp\ccTFByJK.s:1236   .text.osSemaphoreCreate:0000000000000000 osSemaphoreCreate
C:\Users\User\AppData\Local\Temp\ccTFByJK.s:1291   .text.osSemaphoreWait:0000000000000000 $t
C:\Users\User\AppData\Local\Temp\ccTFByJK.s:1298   .text.osSemaphoreWait:0000000000000000 osSemaphoreWait
C:\Users\User\AppData\Local\Temp\ccTFByJK.s:1425   .text.osSemaphoreWait:000000000000006c $d
ARM GAS  C:\Users\User\AppData\Local\Temp\ccTFByJK.s 			page 104


C:\Users\User\AppData\Local\Temp\ccTFByJK.s:1430   .text.osSemaphoreRelease:0000000000000000 $t
C:\Users\User\AppData\Local\Temp\ccTFByJK.s:1437   .text.osSemaphoreRelease:0000000000000000 osSemaphoreRelease
C:\Users\User\AppData\Local\Temp\ccTFByJK.s:1536   .text.osSemaphoreRelease:0000000000000058 $d
C:\Users\User\AppData\Local\Temp\ccTFByJK.s:1541   .text.osSemaphoreDelete:0000000000000000 $t
C:\Users\User\AppData\Local\Temp\ccTFByJK.s:1548   .text.osSemaphoreDelete:0000000000000000 osSemaphoreDelete
C:\Users\User\AppData\Local\Temp\ccTFByJK.s:1587   .text.osPoolCreate:0000000000000000 $t
C:\Users\User\AppData\Local\Temp\ccTFByJK.s:1594   .text.osPoolCreate:0000000000000000 osPoolCreate
C:\Users\User\AppData\Local\Temp\ccTFByJK.s:1721   .text.osPoolAlloc:0000000000000000 $t
C:\Users\User\AppData\Local\Temp\ccTFByJK.s:1728   .text.osPoolAlloc:0000000000000000 osPoolAlloc
C:\Users\User\AppData\Local\Temp\ccTFByJK.s:1884   .text.osPoolCAlloc:0000000000000000 $t
C:\Users\User\AppData\Local\Temp\ccTFByJK.s:1891   .text.osPoolCAlloc:0000000000000000 osPoolCAlloc
C:\Users\User\AppData\Local\Temp\ccTFByJK.s:1927   .text.osPoolFree:0000000000000000 $t
C:\Users\User\AppData\Local\Temp\ccTFByJK.s:1934   .text.osPoolFree:0000000000000000 osPoolFree
C:\Users\User\AppData\Local\Temp\ccTFByJK.s:2024   .text.osMessageCreate:0000000000000000 $t
C:\Users\User\AppData\Local\Temp\ccTFByJK.s:2031   .text.osMessageCreate:0000000000000000 osMessageCreate
C:\Users\User\AppData\Local\Temp\ccTFByJK.s:2062   .text.osMessagePut:0000000000000000 $t
C:\Users\User\AppData\Local\Temp\ccTFByJK.s:2069   .text.osMessagePut:0000000000000000 osMessagePut
C:\Users\User\AppData\Local\Temp\ccTFByJK.s:2181   .text.osMessagePut:0000000000000064 $d
C:\Users\User\AppData\Local\Temp\ccTFByJK.s:2186   .text.osMessageGet:0000000000000000 $t
C:\Users\User\AppData\Local\Temp\ccTFByJK.s:2193   .text.osMessageGet:0000000000000000 osMessageGet
C:\Users\User\AppData\Local\Temp\ccTFByJK.s:2359   .text.osMessageGet:0000000000000098 $d
C:\Users\User\AppData\Local\Temp\ccTFByJK.s:2364   .text.osMailCreate:0000000000000000 $t
C:\Users\User\AppData\Local\Temp\ccTFByJK.s:2371   .text.osMailCreate:0000000000000000 osMailCreate
C:\Users\User\AppData\Local\Temp\ccTFByJK.s:2496   .text.osMailAlloc:0000000000000000 $t
C:\Users\User\AppData\Local\Temp\ccTFByJK.s:2503   .text.osMailAlloc:0000000000000000 osMailAlloc
C:\Users\User\AppData\Local\Temp\ccTFByJK.s:2546   .text.osMailCAlloc:0000000000000000 $t
C:\Users\User\AppData\Local\Temp\ccTFByJK.s:2553   .text.osMailCAlloc:0000000000000000 osMailCAlloc
C:\Users\User\AppData\Local\Temp\ccTFByJK.s:2608   .text.osMailPut:0000000000000000 $t
C:\Users\User\AppData\Local\Temp\ccTFByJK.s:2615   .text.osMailPut:0000000000000000 osMailPut
C:\Users\User\AppData\Local\Temp\ccTFByJK.s:2727   .text.osMailPut:0000000000000064 $d
C:\Users\User\AppData\Local\Temp\ccTFByJK.s:2732   .text.osMailGet:0000000000000000 $t
C:\Users\User\AppData\Local\Temp\ccTFByJK.s:2739   .text.osMailGet:0000000000000000 osMailGet
C:\Users\User\AppData\Local\Temp\ccTFByJK.s:2901   .text.osMailGet:0000000000000094 $d
C:\Users\User\AppData\Local\Temp\ccTFByJK.s:2906   .text.osMailFree:0000000000000000 $t
C:\Users\User\AppData\Local\Temp\ccTFByJK.s:2913   .text.osMailFree:0000000000000000 osMailFree
C:\Users\User\AppData\Local\Temp\ccTFByJK.s:2953   .text.osSystickHandler:0000000000000000 $t
C:\Users\User\AppData\Local\Temp\ccTFByJK.s:2960   .text.osSystickHandler:0000000000000000 osSystickHandler
C:\Users\User\AppData\Local\Temp\ccTFByJK.s:2991   .text.osThreadSuspend:0000000000000000 $t
C:\Users\User\AppData\Local\Temp\ccTFByJK.s:2998   .text.osThreadSuspend:0000000000000000 osThreadSuspend
C:\Users\User\AppData\Local\Temp\ccTFByJK.s:3022   .text.osThreadResume:0000000000000000 $t
C:\Users\User\AppData\Local\Temp\ccTFByJK.s:3029   .text.osThreadResume:0000000000000000 osThreadResume
C:\Users\User\AppData\Local\Temp\ccTFByJK.s:3089   .text.osThreadResume:0000000000000030 $d
C:\Users\User\AppData\Local\Temp\ccTFByJK.s:3094   .text.osThreadSuspendAll:0000000000000000 $t
C:\Users\User\AppData\Local\Temp\ccTFByJK.s:3101   .text.osThreadSuspendAll:0000000000000000 osThreadSuspendAll
C:\Users\User\AppData\Local\Temp\ccTFByJK.s:3123   .text.osThreadResumeAll:0000000000000000 $t
C:\Users\User\AppData\Local\Temp\ccTFByJK.s:3130   .text.osThreadResumeAll:0000000000000000 osThreadResumeAll
C:\Users\User\AppData\Local\Temp\ccTFByJK.s:3161   .text.osDelayUntil:0000000000000000 $t
C:\Users\User\AppData\Local\Temp\ccTFByJK.s:3168   .text.osDelayUntil:0000000000000000 osDelayUntil
C:\Users\User\AppData\Local\Temp\ccTFByJK.s:3188   .text.osAbortDelay:0000000000000000 $t
C:\Users\User\AppData\Local\Temp\ccTFByJK.s:3195   .text.osAbortDelay:0000000000000000 osAbortDelay
C:\Users\User\AppData\Local\Temp\ccTFByJK.s:3214   .text.osThreadList:0000000000000000 $t
C:\Users\User\AppData\Local\Temp\ccTFByJK.s:3221   .text.osThreadList:0000000000000000 osThreadList
C:\Users\User\AppData\Local\Temp\ccTFByJK.s:3239   .text.osMessagePeek:0000000000000000 $t
C:\Users\User\AppData\Local\Temp\ccTFByJK.s:3246   .text.osMessagePeek:0000000000000000 osMessagePeek
C:\Users\User\AppData\Local\Temp\ccTFByJK.s:3356   .text.osMessageWaiting:0000000000000000 $t
C:\Users\User\AppData\Local\Temp\ccTFByJK.s:3363   .text.osMessageWaiting:0000000000000000 osMessageWaiting
C:\Users\User\AppData\Local\Temp\ccTFByJK.s:3403   .text.osMessageAvailableSpace:0000000000000000 $t
ARM GAS  C:\Users\User\AppData\Local\Temp\ccTFByJK.s 			page 105


C:\Users\User\AppData\Local\Temp\ccTFByJK.s:3410   .text.osMessageAvailableSpace:0000000000000000 osMessageAvailableSpace
C:\Users\User\AppData\Local\Temp\ccTFByJK.s:3433   .text.osMessageDelete:0000000000000000 $t
C:\Users\User\AppData\Local\Temp\ccTFByJK.s:3440   .text.osMessageDelete:0000000000000000 osMessageDelete
C:\Users\User\AppData\Local\Temp\ccTFByJK.s:3479   .text.osRecursiveMutexCreate:0000000000000000 $t
C:\Users\User\AppData\Local\Temp\ccTFByJK.s:3486   .text.osRecursiveMutexCreate:0000000000000000 osRecursiveMutexCreate
C:\Users\User\AppData\Local\Temp\ccTFByJK.s:3504   .text.osRecursiveMutexRelease:0000000000000000 $t
C:\Users\User\AppData\Local\Temp\ccTFByJK.s:3511   .text.osRecursiveMutexRelease:0000000000000000 osRecursiveMutexRelease
C:\Users\User\AppData\Local\Temp\ccTFByJK.s:3529   .text.osRecursiveMutexWait:0000000000000000 $t
C:\Users\User\AppData\Local\Temp\ccTFByJK.s:3536   .text.osRecursiveMutexWait:0000000000000000 osRecursiveMutexWait
C:\Users\User\AppData\Local\Temp\ccTFByJK.s:3554   .text.osSemaphoreGetCount:0000000000000000 $t
C:\Users\User\AppData\Local\Temp\ccTFByJK.s:3561   .text.osSemaphoreGetCount:0000000000000000 osSemaphoreGetCount

UNDEFINED SYMBOLS
vTaskStartScheduler
xTaskGetSchedulerState
xTaskGetTickCountFromISR
xTaskGetTickCount
xTaskCreate
xTaskGetCurrentTaskHandle
vTaskDelete
vTaskPrioritySet
uxTaskPriorityGetFromISR
uxTaskPriorityGet
vTaskDelay
xTaskGenericNotifyFromISR
xTaskGenericNotify
xTaskNotifyWait
xQueueCreateMutex
xQueueReceiveFromISR
xQueueSemaphoreTake
xQueueGiveFromISR
xQueueGenericSend
vQueueDelete
xQueueGenericCreate
pvPortMalloc
vPortFree
vPortEnterCritical
vPortExitCritical
xQueueGenericSendFromISR
xQueueReceive
SysTick_Handler
vTaskSuspend
xTaskResumeFromISR
vTaskResume
vTaskSuspendAll
xTaskResumeAll
xQueuePeek
uxQueueMessagesWaitingFromISR
uxQueueMessagesWaiting
uxQueueSpacesAvailable
