ARM GAS  C:\Users\User\AppData\Local\Temp\ccY05dYU.s 			page 1


   1              		.cpu cortex-m3
   2              		.eabi_attribute 20, 1
   3              		.eabi_attribute 21, 1
   4              		.eabi_attribute 23, 3
   5              		.eabi_attribute 24, 1
   6              		.eabi_attribute 25, 1
   7              		.eabi_attribute 26, 1
   8              		.eabi_attribute 30, 1
   9              		.eabi_attribute 34, 1
  10              		.eabi_attribute 18, 4
  11              		.file	"stm32f2xx_ll_usb.c"
  12              		.text
  13              	.Ltext0:
  14              		.cfi_sections	.debug_frame
  15              		.section	.text.USB_CoreReset,"ax",%progbits
  16              		.align	1
  17              		.arch armv7-m
  18              		.syntax unified
  19              		.thumb
  20              		.thumb_func
  21              		.fpu softvfp
  23              	USB_CoreReset:
  24              	.LVL0:
  25              	.LFB105:
  26              		.file 1 "Drivers/STM32F2xx_HAL_Driver/Src/stm32f2xx_ll_usb.c"
   1:Drivers/STM32F2xx_HAL_Driver/Src/stm32f2xx_ll_usb.c **** /**
   2:Drivers/STM32F2xx_HAL_Driver/Src/stm32f2xx_ll_usb.c ****   ******************************************************************************
   3:Drivers/STM32F2xx_HAL_Driver/Src/stm32f2xx_ll_usb.c ****   * @file    stm32f2xx_ll_usb.c
   4:Drivers/STM32F2xx_HAL_Driver/Src/stm32f2xx_ll_usb.c ****   * @author  MCD Application Team
   5:Drivers/STM32F2xx_HAL_Driver/Src/stm32f2xx_ll_usb.c ****   * @brief   USB Low Layer HAL module driver.
   6:Drivers/STM32F2xx_HAL_Driver/Src/stm32f2xx_ll_usb.c ****   *
   7:Drivers/STM32F2xx_HAL_Driver/Src/stm32f2xx_ll_usb.c ****   *          This file provides firmware functions to manage the following
   8:Drivers/STM32F2xx_HAL_Driver/Src/stm32f2xx_ll_usb.c ****   *          functionalities of the USB Peripheral Controller:
   9:Drivers/STM32F2xx_HAL_Driver/Src/stm32f2xx_ll_usb.c ****   *           + Initialization/de-initialization functions
  10:Drivers/STM32F2xx_HAL_Driver/Src/stm32f2xx_ll_usb.c ****   *           + I/O operation functions
  11:Drivers/STM32F2xx_HAL_Driver/Src/stm32f2xx_ll_usb.c ****   *           + Peripheral Control functions
  12:Drivers/STM32F2xx_HAL_Driver/Src/stm32f2xx_ll_usb.c ****   *           + Peripheral State functions
  13:Drivers/STM32F2xx_HAL_Driver/Src/stm32f2xx_ll_usb.c ****   *
  14:Drivers/STM32F2xx_HAL_Driver/Src/stm32f2xx_ll_usb.c ****   @verbatim
  15:Drivers/STM32F2xx_HAL_Driver/Src/stm32f2xx_ll_usb.c ****   ==============================================================================
  16:Drivers/STM32F2xx_HAL_Driver/Src/stm32f2xx_ll_usb.c ****                     ##### How to use this driver #####
  17:Drivers/STM32F2xx_HAL_Driver/Src/stm32f2xx_ll_usb.c ****   ==============================================================================
  18:Drivers/STM32F2xx_HAL_Driver/Src/stm32f2xx_ll_usb.c ****     [..]
  19:Drivers/STM32F2xx_HAL_Driver/Src/stm32f2xx_ll_usb.c ****       (#) Fill parameters of Init structure in USB_OTG_CfgTypeDef structure.
  20:Drivers/STM32F2xx_HAL_Driver/Src/stm32f2xx_ll_usb.c **** 
  21:Drivers/STM32F2xx_HAL_Driver/Src/stm32f2xx_ll_usb.c ****       (#) Call USB_CoreInit() API to initialize the USB Core peripheral.
  22:Drivers/STM32F2xx_HAL_Driver/Src/stm32f2xx_ll_usb.c **** 
  23:Drivers/STM32F2xx_HAL_Driver/Src/stm32f2xx_ll_usb.c ****       (#) The upper HAL HCD/PCD driver will call the right routines for its internal processes.
  24:Drivers/STM32F2xx_HAL_Driver/Src/stm32f2xx_ll_usb.c **** 
  25:Drivers/STM32F2xx_HAL_Driver/Src/stm32f2xx_ll_usb.c ****   @endverbatim
  26:Drivers/STM32F2xx_HAL_Driver/Src/stm32f2xx_ll_usb.c ****   ******************************************************************************
  27:Drivers/STM32F2xx_HAL_Driver/Src/stm32f2xx_ll_usb.c ****   * @attention
  28:Drivers/STM32F2xx_HAL_Driver/Src/stm32f2xx_ll_usb.c ****   *
  29:Drivers/STM32F2xx_HAL_Driver/Src/stm32f2xx_ll_usb.c ****   * <h2><center>&copy; Copyright (c) 2016 STMicroelectronics.
  30:Drivers/STM32F2xx_HAL_Driver/Src/stm32f2xx_ll_usb.c ****   * All rights reserved.</center></h2>
  31:Drivers/STM32F2xx_HAL_Driver/Src/stm32f2xx_ll_usb.c ****   *
  32:Drivers/STM32F2xx_HAL_Driver/Src/stm32f2xx_ll_usb.c ****   * This software component is licensed by ST under BSD 3-Clause license,
ARM GAS  C:\Users\User\AppData\Local\Temp\ccY05dYU.s 			page 2


  33:Drivers/STM32F2xx_HAL_Driver/Src/stm32f2xx_ll_usb.c ****   * the "License"; You may not use this file except in compliance with the
  34:Drivers/STM32F2xx_HAL_Driver/Src/stm32f2xx_ll_usb.c ****   * License. You may obtain a copy of the License at:
  35:Drivers/STM32F2xx_HAL_Driver/Src/stm32f2xx_ll_usb.c ****   *                        opensource.org/licenses/BSD-3-Clause
  36:Drivers/STM32F2xx_HAL_Driver/Src/stm32f2xx_ll_usb.c ****   *
  37:Drivers/STM32F2xx_HAL_Driver/Src/stm32f2xx_ll_usb.c ****   ******************************************************************************
  38:Drivers/STM32F2xx_HAL_Driver/Src/stm32f2xx_ll_usb.c ****   */
  39:Drivers/STM32F2xx_HAL_Driver/Src/stm32f2xx_ll_usb.c **** 
  40:Drivers/STM32F2xx_HAL_Driver/Src/stm32f2xx_ll_usb.c **** /* Includes ------------------------------------------------------------------*/
  41:Drivers/STM32F2xx_HAL_Driver/Src/stm32f2xx_ll_usb.c **** #include "stm32f2xx_hal.h"
  42:Drivers/STM32F2xx_HAL_Driver/Src/stm32f2xx_ll_usb.c **** 
  43:Drivers/STM32F2xx_HAL_Driver/Src/stm32f2xx_ll_usb.c **** /** @addtogroup STM32F2xx_LL_USB_DRIVER
  44:Drivers/STM32F2xx_HAL_Driver/Src/stm32f2xx_ll_usb.c ****   * @{
  45:Drivers/STM32F2xx_HAL_Driver/Src/stm32f2xx_ll_usb.c ****   */
  46:Drivers/STM32F2xx_HAL_Driver/Src/stm32f2xx_ll_usb.c **** 
  47:Drivers/STM32F2xx_HAL_Driver/Src/stm32f2xx_ll_usb.c **** #if defined (HAL_PCD_MODULE_ENABLED) || defined (HAL_HCD_MODULE_ENABLED)
  48:Drivers/STM32F2xx_HAL_Driver/Src/stm32f2xx_ll_usb.c **** #if defined (USB_OTG_FS) || defined (USB_OTG_HS)
  49:Drivers/STM32F2xx_HAL_Driver/Src/stm32f2xx_ll_usb.c **** /* Private typedef -----------------------------------------------------------*/
  50:Drivers/STM32F2xx_HAL_Driver/Src/stm32f2xx_ll_usb.c **** /* Private define ------------------------------------------------------------*/
  51:Drivers/STM32F2xx_HAL_Driver/Src/stm32f2xx_ll_usb.c **** /* Private macro -------------------------------------------------------------*/
  52:Drivers/STM32F2xx_HAL_Driver/Src/stm32f2xx_ll_usb.c **** /* Private variables ---------------------------------------------------------*/
  53:Drivers/STM32F2xx_HAL_Driver/Src/stm32f2xx_ll_usb.c **** /* Private function prototypes -----------------------------------------------*/
  54:Drivers/STM32F2xx_HAL_Driver/Src/stm32f2xx_ll_usb.c **** /* Private functions ---------------------------------------------------------*/
  55:Drivers/STM32F2xx_HAL_Driver/Src/stm32f2xx_ll_usb.c **** #if defined (USB_OTG_FS) || defined (USB_OTG_HS)
  56:Drivers/STM32F2xx_HAL_Driver/Src/stm32f2xx_ll_usb.c **** static HAL_StatusTypeDef USB_CoreReset(USB_OTG_GlobalTypeDef *USBx);
  57:Drivers/STM32F2xx_HAL_Driver/Src/stm32f2xx_ll_usb.c **** 
  58:Drivers/STM32F2xx_HAL_Driver/Src/stm32f2xx_ll_usb.c **** /* Exported functions --------------------------------------------------------*/
  59:Drivers/STM32F2xx_HAL_Driver/Src/stm32f2xx_ll_usb.c **** /** @defgroup USB_LL_Exported_Functions USB Low Layer Exported Functions
  60:Drivers/STM32F2xx_HAL_Driver/Src/stm32f2xx_ll_usb.c ****   * @{
  61:Drivers/STM32F2xx_HAL_Driver/Src/stm32f2xx_ll_usb.c ****   */
  62:Drivers/STM32F2xx_HAL_Driver/Src/stm32f2xx_ll_usb.c **** 
  63:Drivers/STM32F2xx_HAL_Driver/Src/stm32f2xx_ll_usb.c **** /** @defgroup USB_LL_Exported_Functions_Group1 Initialization/de-initialization functions
  64:Drivers/STM32F2xx_HAL_Driver/Src/stm32f2xx_ll_usb.c ****  *  @brief    Initialization and Configuration functions
  65:Drivers/STM32F2xx_HAL_Driver/Src/stm32f2xx_ll_usb.c ****  *
  66:Drivers/STM32F2xx_HAL_Driver/Src/stm32f2xx_ll_usb.c **** @verbatim
  67:Drivers/STM32F2xx_HAL_Driver/Src/stm32f2xx_ll_usb.c ****  ===============================================================================
  68:Drivers/STM32F2xx_HAL_Driver/Src/stm32f2xx_ll_usb.c ****                       ##### Initialization/de-initialization functions #####
  69:Drivers/STM32F2xx_HAL_Driver/Src/stm32f2xx_ll_usb.c ****  ===============================================================================
  70:Drivers/STM32F2xx_HAL_Driver/Src/stm32f2xx_ll_usb.c **** 
  71:Drivers/STM32F2xx_HAL_Driver/Src/stm32f2xx_ll_usb.c **** @endverbatim
  72:Drivers/STM32F2xx_HAL_Driver/Src/stm32f2xx_ll_usb.c ****   * @{
  73:Drivers/STM32F2xx_HAL_Driver/Src/stm32f2xx_ll_usb.c ****   */
  74:Drivers/STM32F2xx_HAL_Driver/Src/stm32f2xx_ll_usb.c **** 
  75:Drivers/STM32F2xx_HAL_Driver/Src/stm32f2xx_ll_usb.c **** /**
  76:Drivers/STM32F2xx_HAL_Driver/Src/stm32f2xx_ll_usb.c ****   * @brief  Initializes the USB Core
  77:Drivers/STM32F2xx_HAL_Driver/Src/stm32f2xx_ll_usb.c ****   * @param  USBx USB Instance
  78:Drivers/STM32F2xx_HAL_Driver/Src/stm32f2xx_ll_usb.c ****   * @param  cfg pointer to a USB_OTG_CfgTypeDef structure that contains
  79:Drivers/STM32F2xx_HAL_Driver/Src/stm32f2xx_ll_usb.c ****   *         the configuration information for the specified USBx peripheral.
  80:Drivers/STM32F2xx_HAL_Driver/Src/stm32f2xx_ll_usb.c ****   * @retval HAL status
  81:Drivers/STM32F2xx_HAL_Driver/Src/stm32f2xx_ll_usb.c ****   */
  82:Drivers/STM32F2xx_HAL_Driver/Src/stm32f2xx_ll_usb.c **** HAL_StatusTypeDef USB_CoreInit(USB_OTG_GlobalTypeDef *USBx, USB_OTG_CfgTypeDef cfg)
  83:Drivers/STM32F2xx_HAL_Driver/Src/stm32f2xx_ll_usb.c **** {
  84:Drivers/STM32F2xx_HAL_Driver/Src/stm32f2xx_ll_usb.c ****   HAL_StatusTypeDef ret;
  85:Drivers/STM32F2xx_HAL_Driver/Src/stm32f2xx_ll_usb.c **** 
  86:Drivers/STM32F2xx_HAL_Driver/Src/stm32f2xx_ll_usb.c ****   if (cfg.phy_itface == USB_OTG_ULPI_PHY)
  87:Drivers/STM32F2xx_HAL_Driver/Src/stm32f2xx_ll_usb.c ****   {
  88:Drivers/STM32F2xx_HAL_Driver/Src/stm32f2xx_ll_usb.c ****     USBx->GCCFG &= ~(USB_OTG_GCCFG_PWRDWN);
  89:Drivers/STM32F2xx_HAL_Driver/Src/stm32f2xx_ll_usb.c **** 
ARM GAS  C:\Users\User\AppData\Local\Temp\ccY05dYU.s 			page 3


  90:Drivers/STM32F2xx_HAL_Driver/Src/stm32f2xx_ll_usb.c ****     /* Init The ULPI Interface */
  91:Drivers/STM32F2xx_HAL_Driver/Src/stm32f2xx_ll_usb.c ****     USBx->GUSBCFG &= ~(USB_OTG_GUSBCFG_TSDPS | USB_OTG_GUSBCFG_ULPIFSLS | USB_OTG_GUSBCFG_PHYSEL);
  92:Drivers/STM32F2xx_HAL_Driver/Src/stm32f2xx_ll_usb.c **** 
  93:Drivers/STM32F2xx_HAL_Driver/Src/stm32f2xx_ll_usb.c ****     /* Select vbus source */
  94:Drivers/STM32F2xx_HAL_Driver/Src/stm32f2xx_ll_usb.c ****     USBx->GUSBCFG &= ~(USB_OTG_GUSBCFG_ULPIEVBUSD | USB_OTG_GUSBCFG_ULPIEVBUSI);
  95:Drivers/STM32F2xx_HAL_Driver/Src/stm32f2xx_ll_usb.c ****     if (cfg.use_external_vbus == 1U)
  96:Drivers/STM32F2xx_HAL_Driver/Src/stm32f2xx_ll_usb.c ****     {
  97:Drivers/STM32F2xx_HAL_Driver/Src/stm32f2xx_ll_usb.c ****       USBx->GUSBCFG |= USB_OTG_GUSBCFG_ULPIEVBUSD;
  98:Drivers/STM32F2xx_HAL_Driver/Src/stm32f2xx_ll_usb.c ****     }
  99:Drivers/STM32F2xx_HAL_Driver/Src/stm32f2xx_ll_usb.c ****     /* Reset after a PHY select  */
 100:Drivers/STM32F2xx_HAL_Driver/Src/stm32f2xx_ll_usb.c ****     ret = USB_CoreReset(USBx);
 101:Drivers/STM32F2xx_HAL_Driver/Src/stm32f2xx_ll_usb.c ****   }
 102:Drivers/STM32F2xx_HAL_Driver/Src/stm32f2xx_ll_usb.c ****   else /* FS interface (embedded Phy) */
 103:Drivers/STM32F2xx_HAL_Driver/Src/stm32f2xx_ll_usb.c ****   {
 104:Drivers/STM32F2xx_HAL_Driver/Src/stm32f2xx_ll_usb.c ****     /* Select FS Embedded PHY */
 105:Drivers/STM32F2xx_HAL_Driver/Src/stm32f2xx_ll_usb.c ****     USBx->GUSBCFG |= USB_OTG_GUSBCFG_PHYSEL;
 106:Drivers/STM32F2xx_HAL_Driver/Src/stm32f2xx_ll_usb.c **** 
 107:Drivers/STM32F2xx_HAL_Driver/Src/stm32f2xx_ll_usb.c ****     /* Reset after a PHY select and set Host mode */
 108:Drivers/STM32F2xx_HAL_Driver/Src/stm32f2xx_ll_usb.c ****     ret = USB_CoreReset(USBx);
 109:Drivers/STM32F2xx_HAL_Driver/Src/stm32f2xx_ll_usb.c **** 
 110:Drivers/STM32F2xx_HAL_Driver/Src/stm32f2xx_ll_usb.c ****     /* Activate the USB Transceiver */
 111:Drivers/STM32F2xx_HAL_Driver/Src/stm32f2xx_ll_usb.c ****     USBx->GCCFG |= USB_OTG_GCCFG_PWRDWN;
 112:Drivers/STM32F2xx_HAL_Driver/Src/stm32f2xx_ll_usb.c ****   }
 113:Drivers/STM32F2xx_HAL_Driver/Src/stm32f2xx_ll_usb.c **** 
 114:Drivers/STM32F2xx_HAL_Driver/Src/stm32f2xx_ll_usb.c ****   if (cfg.dma_enable == 1U)
 115:Drivers/STM32F2xx_HAL_Driver/Src/stm32f2xx_ll_usb.c ****   {
 116:Drivers/STM32F2xx_HAL_Driver/Src/stm32f2xx_ll_usb.c ****     USBx->GAHBCFG |= USB_OTG_GAHBCFG_HBSTLEN_2;
 117:Drivers/STM32F2xx_HAL_Driver/Src/stm32f2xx_ll_usb.c ****     USBx->GAHBCFG |= USB_OTG_GAHBCFG_DMAEN;
 118:Drivers/STM32F2xx_HAL_Driver/Src/stm32f2xx_ll_usb.c ****   }
 119:Drivers/STM32F2xx_HAL_Driver/Src/stm32f2xx_ll_usb.c **** 
 120:Drivers/STM32F2xx_HAL_Driver/Src/stm32f2xx_ll_usb.c ****   return ret;
 121:Drivers/STM32F2xx_HAL_Driver/Src/stm32f2xx_ll_usb.c **** }
 122:Drivers/STM32F2xx_HAL_Driver/Src/stm32f2xx_ll_usb.c **** 
 123:Drivers/STM32F2xx_HAL_Driver/Src/stm32f2xx_ll_usb.c **** 
 124:Drivers/STM32F2xx_HAL_Driver/Src/stm32f2xx_ll_usb.c **** /**
 125:Drivers/STM32F2xx_HAL_Driver/Src/stm32f2xx_ll_usb.c ****   * @brief  Set the USB turnaround time
 126:Drivers/STM32F2xx_HAL_Driver/Src/stm32f2xx_ll_usb.c ****   * @param  USBx USB Instance
 127:Drivers/STM32F2xx_HAL_Driver/Src/stm32f2xx_ll_usb.c ****   * @param  hclk: AHB clock frequency
 128:Drivers/STM32F2xx_HAL_Driver/Src/stm32f2xx_ll_usb.c ****   * @retval USB turnaround time In PHY Clocks number
 129:Drivers/STM32F2xx_HAL_Driver/Src/stm32f2xx_ll_usb.c ****   */
 130:Drivers/STM32F2xx_HAL_Driver/Src/stm32f2xx_ll_usb.c **** HAL_StatusTypeDef USB_SetTurnaroundTime(USB_OTG_GlobalTypeDef *USBx,
 131:Drivers/STM32F2xx_HAL_Driver/Src/stm32f2xx_ll_usb.c ****                                         uint32_t hclk, uint8_t speed)
 132:Drivers/STM32F2xx_HAL_Driver/Src/stm32f2xx_ll_usb.c **** {
 133:Drivers/STM32F2xx_HAL_Driver/Src/stm32f2xx_ll_usb.c ****   uint32_t UsbTrd;
 134:Drivers/STM32F2xx_HAL_Driver/Src/stm32f2xx_ll_usb.c **** 
 135:Drivers/STM32F2xx_HAL_Driver/Src/stm32f2xx_ll_usb.c ****   /* The USBTRD is configured according to the tables below, depending on AHB frequency
 136:Drivers/STM32F2xx_HAL_Driver/Src/stm32f2xx_ll_usb.c ****   used by application. In the low AHB frequency range it is used to stretch enough the USB response
 137:Drivers/STM32F2xx_HAL_Driver/Src/stm32f2xx_ll_usb.c ****   time to IN tokens, the USB turnaround time, so to compensate for the longer AHB read access
 138:Drivers/STM32F2xx_HAL_Driver/Src/stm32f2xx_ll_usb.c ****   latency to the Data FIFO */
 139:Drivers/STM32F2xx_HAL_Driver/Src/stm32f2xx_ll_usb.c ****   if (speed == USBD_FS_SPEED)
 140:Drivers/STM32F2xx_HAL_Driver/Src/stm32f2xx_ll_usb.c ****   {
 141:Drivers/STM32F2xx_HAL_Driver/Src/stm32f2xx_ll_usb.c ****     if ((hclk >= 14200000U) && (hclk < 15000000U))
 142:Drivers/STM32F2xx_HAL_Driver/Src/stm32f2xx_ll_usb.c ****     {
 143:Drivers/STM32F2xx_HAL_Driver/Src/stm32f2xx_ll_usb.c ****       /* hclk Clock Range between 14.2-15 MHz */
 144:Drivers/STM32F2xx_HAL_Driver/Src/stm32f2xx_ll_usb.c ****       UsbTrd = 0xFU;
 145:Drivers/STM32F2xx_HAL_Driver/Src/stm32f2xx_ll_usb.c ****     }
 146:Drivers/STM32F2xx_HAL_Driver/Src/stm32f2xx_ll_usb.c ****     else if ((hclk >= 15000000U) && (hclk < 16000000U))
ARM GAS  C:\Users\User\AppData\Local\Temp\ccY05dYU.s 			page 4


 147:Drivers/STM32F2xx_HAL_Driver/Src/stm32f2xx_ll_usb.c ****     {
 148:Drivers/STM32F2xx_HAL_Driver/Src/stm32f2xx_ll_usb.c ****       /* hclk Clock Range between 15-16 MHz */
 149:Drivers/STM32F2xx_HAL_Driver/Src/stm32f2xx_ll_usb.c ****       UsbTrd = 0xEU;
 150:Drivers/STM32F2xx_HAL_Driver/Src/stm32f2xx_ll_usb.c ****     }
 151:Drivers/STM32F2xx_HAL_Driver/Src/stm32f2xx_ll_usb.c ****     else if ((hclk >= 16000000U) && (hclk < 17200000U))
 152:Drivers/STM32F2xx_HAL_Driver/Src/stm32f2xx_ll_usb.c ****     {
 153:Drivers/STM32F2xx_HAL_Driver/Src/stm32f2xx_ll_usb.c ****       /* hclk Clock Range between 16-17.2 MHz */
 154:Drivers/STM32F2xx_HAL_Driver/Src/stm32f2xx_ll_usb.c ****       UsbTrd = 0xDU;
 155:Drivers/STM32F2xx_HAL_Driver/Src/stm32f2xx_ll_usb.c ****     }
 156:Drivers/STM32F2xx_HAL_Driver/Src/stm32f2xx_ll_usb.c ****     else if ((hclk >= 17200000U) && (hclk < 18500000U))
 157:Drivers/STM32F2xx_HAL_Driver/Src/stm32f2xx_ll_usb.c ****     {
 158:Drivers/STM32F2xx_HAL_Driver/Src/stm32f2xx_ll_usb.c ****       /* hclk Clock Range between 17.2-18.5 MHz */
 159:Drivers/STM32F2xx_HAL_Driver/Src/stm32f2xx_ll_usb.c ****       UsbTrd = 0xCU;
 160:Drivers/STM32F2xx_HAL_Driver/Src/stm32f2xx_ll_usb.c ****     }
 161:Drivers/STM32F2xx_HAL_Driver/Src/stm32f2xx_ll_usb.c ****     else if ((hclk >= 18500000U) && (hclk < 20000000U))
 162:Drivers/STM32F2xx_HAL_Driver/Src/stm32f2xx_ll_usb.c ****     {
 163:Drivers/STM32F2xx_HAL_Driver/Src/stm32f2xx_ll_usb.c ****       /* hclk Clock Range between 18.5-20 MHz */
 164:Drivers/STM32F2xx_HAL_Driver/Src/stm32f2xx_ll_usb.c ****       UsbTrd = 0xBU;
 165:Drivers/STM32F2xx_HAL_Driver/Src/stm32f2xx_ll_usb.c ****     }
 166:Drivers/STM32F2xx_HAL_Driver/Src/stm32f2xx_ll_usb.c ****     else if ((hclk >= 20000000U) && (hclk < 21800000U))
 167:Drivers/STM32F2xx_HAL_Driver/Src/stm32f2xx_ll_usb.c ****     {
 168:Drivers/STM32F2xx_HAL_Driver/Src/stm32f2xx_ll_usb.c ****       /* hclk Clock Range between 20-21.8 MHz */
 169:Drivers/STM32F2xx_HAL_Driver/Src/stm32f2xx_ll_usb.c ****       UsbTrd = 0xAU;
 170:Drivers/STM32F2xx_HAL_Driver/Src/stm32f2xx_ll_usb.c ****     }
 171:Drivers/STM32F2xx_HAL_Driver/Src/stm32f2xx_ll_usb.c ****     else if ((hclk >= 21800000U) && (hclk < 24000000U))
 172:Drivers/STM32F2xx_HAL_Driver/Src/stm32f2xx_ll_usb.c ****     {
 173:Drivers/STM32F2xx_HAL_Driver/Src/stm32f2xx_ll_usb.c ****       /* hclk Clock Range between 21.8-24 MHz */
 174:Drivers/STM32F2xx_HAL_Driver/Src/stm32f2xx_ll_usb.c ****       UsbTrd = 0x9U;
 175:Drivers/STM32F2xx_HAL_Driver/Src/stm32f2xx_ll_usb.c ****     }
 176:Drivers/STM32F2xx_HAL_Driver/Src/stm32f2xx_ll_usb.c ****     else if ((hclk >= 24000000U) && (hclk < 27700000U))
 177:Drivers/STM32F2xx_HAL_Driver/Src/stm32f2xx_ll_usb.c ****     {
 178:Drivers/STM32F2xx_HAL_Driver/Src/stm32f2xx_ll_usb.c ****       /* hclk Clock Range between 24-27.7 MHz */
 179:Drivers/STM32F2xx_HAL_Driver/Src/stm32f2xx_ll_usb.c ****       UsbTrd = 0x8U;
 180:Drivers/STM32F2xx_HAL_Driver/Src/stm32f2xx_ll_usb.c ****     }
 181:Drivers/STM32F2xx_HAL_Driver/Src/stm32f2xx_ll_usb.c ****     else if ((hclk >= 27700000U) && (hclk < 32000000U))
 182:Drivers/STM32F2xx_HAL_Driver/Src/stm32f2xx_ll_usb.c ****     {
 183:Drivers/STM32F2xx_HAL_Driver/Src/stm32f2xx_ll_usb.c ****       /* hclk Clock Range between 27.7-32 MHz */
 184:Drivers/STM32F2xx_HAL_Driver/Src/stm32f2xx_ll_usb.c ****       UsbTrd = 0x7U;
 185:Drivers/STM32F2xx_HAL_Driver/Src/stm32f2xx_ll_usb.c ****     }
 186:Drivers/STM32F2xx_HAL_Driver/Src/stm32f2xx_ll_usb.c ****     else /* if(hclk >= 32000000) */
 187:Drivers/STM32F2xx_HAL_Driver/Src/stm32f2xx_ll_usb.c ****     {
 188:Drivers/STM32F2xx_HAL_Driver/Src/stm32f2xx_ll_usb.c ****       /* hclk Clock Range between 32-200 MHz */
 189:Drivers/STM32F2xx_HAL_Driver/Src/stm32f2xx_ll_usb.c ****       UsbTrd = 0x6U;
 190:Drivers/STM32F2xx_HAL_Driver/Src/stm32f2xx_ll_usb.c ****     }
 191:Drivers/STM32F2xx_HAL_Driver/Src/stm32f2xx_ll_usb.c ****   }
 192:Drivers/STM32F2xx_HAL_Driver/Src/stm32f2xx_ll_usb.c ****   else if (speed == USBD_HS_SPEED)
 193:Drivers/STM32F2xx_HAL_Driver/Src/stm32f2xx_ll_usb.c ****   {
 194:Drivers/STM32F2xx_HAL_Driver/Src/stm32f2xx_ll_usb.c ****     UsbTrd = USBD_HS_TRDT_VALUE;
 195:Drivers/STM32F2xx_HAL_Driver/Src/stm32f2xx_ll_usb.c ****   }
 196:Drivers/STM32F2xx_HAL_Driver/Src/stm32f2xx_ll_usb.c ****   else
 197:Drivers/STM32F2xx_HAL_Driver/Src/stm32f2xx_ll_usb.c ****   {
 198:Drivers/STM32F2xx_HAL_Driver/Src/stm32f2xx_ll_usb.c ****     UsbTrd = USBD_DEFAULT_TRDT_VALUE;
 199:Drivers/STM32F2xx_HAL_Driver/Src/stm32f2xx_ll_usb.c ****   }
 200:Drivers/STM32F2xx_HAL_Driver/Src/stm32f2xx_ll_usb.c **** 
 201:Drivers/STM32F2xx_HAL_Driver/Src/stm32f2xx_ll_usb.c ****   USBx->GUSBCFG &= ~USB_OTG_GUSBCFG_TRDT;
 202:Drivers/STM32F2xx_HAL_Driver/Src/stm32f2xx_ll_usb.c ****   USBx->GUSBCFG |= (uint32_t)((UsbTrd << 10) & USB_OTG_GUSBCFG_TRDT);
 203:Drivers/STM32F2xx_HAL_Driver/Src/stm32f2xx_ll_usb.c **** 
ARM GAS  C:\Users\User\AppData\Local\Temp\ccY05dYU.s 			page 5


 204:Drivers/STM32F2xx_HAL_Driver/Src/stm32f2xx_ll_usb.c ****   return HAL_OK;
 205:Drivers/STM32F2xx_HAL_Driver/Src/stm32f2xx_ll_usb.c **** }
 206:Drivers/STM32F2xx_HAL_Driver/Src/stm32f2xx_ll_usb.c **** 
 207:Drivers/STM32F2xx_HAL_Driver/Src/stm32f2xx_ll_usb.c **** /**
 208:Drivers/STM32F2xx_HAL_Driver/Src/stm32f2xx_ll_usb.c ****   * @brief  USB_EnableGlobalInt
 209:Drivers/STM32F2xx_HAL_Driver/Src/stm32f2xx_ll_usb.c ****   *         Enables the controller's Global Int in the AHB Config reg
 210:Drivers/STM32F2xx_HAL_Driver/Src/stm32f2xx_ll_usb.c ****   * @param  USBx  Selected device
 211:Drivers/STM32F2xx_HAL_Driver/Src/stm32f2xx_ll_usb.c ****   * @retval HAL status
 212:Drivers/STM32F2xx_HAL_Driver/Src/stm32f2xx_ll_usb.c ****   */
 213:Drivers/STM32F2xx_HAL_Driver/Src/stm32f2xx_ll_usb.c **** HAL_StatusTypeDef USB_EnableGlobalInt(USB_OTG_GlobalTypeDef *USBx)
 214:Drivers/STM32F2xx_HAL_Driver/Src/stm32f2xx_ll_usb.c **** {
 215:Drivers/STM32F2xx_HAL_Driver/Src/stm32f2xx_ll_usb.c ****   USBx->GAHBCFG |= USB_OTG_GAHBCFG_GINT;
 216:Drivers/STM32F2xx_HAL_Driver/Src/stm32f2xx_ll_usb.c ****   return HAL_OK;
 217:Drivers/STM32F2xx_HAL_Driver/Src/stm32f2xx_ll_usb.c **** }
 218:Drivers/STM32F2xx_HAL_Driver/Src/stm32f2xx_ll_usb.c **** 
 219:Drivers/STM32F2xx_HAL_Driver/Src/stm32f2xx_ll_usb.c **** /**
 220:Drivers/STM32F2xx_HAL_Driver/Src/stm32f2xx_ll_usb.c ****   * @brief  USB_DisableGlobalInt
 221:Drivers/STM32F2xx_HAL_Driver/Src/stm32f2xx_ll_usb.c ****   *         Disable the controller's Global Int in the AHB Config reg
 222:Drivers/STM32F2xx_HAL_Driver/Src/stm32f2xx_ll_usb.c ****   * @param  USBx  Selected device
 223:Drivers/STM32F2xx_HAL_Driver/Src/stm32f2xx_ll_usb.c ****   * @retval HAL status
 224:Drivers/STM32F2xx_HAL_Driver/Src/stm32f2xx_ll_usb.c **** */
 225:Drivers/STM32F2xx_HAL_Driver/Src/stm32f2xx_ll_usb.c **** HAL_StatusTypeDef USB_DisableGlobalInt(USB_OTG_GlobalTypeDef *USBx)
 226:Drivers/STM32F2xx_HAL_Driver/Src/stm32f2xx_ll_usb.c **** {
 227:Drivers/STM32F2xx_HAL_Driver/Src/stm32f2xx_ll_usb.c ****   USBx->GAHBCFG &= ~USB_OTG_GAHBCFG_GINT;
 228:Drivers/STM32F2xx_HAL_Driver/Src/stm32f2xx_ll_usb.c ****   return HAL_OK;
 229:Drivers/STM32F2xx_HAL_Driver/Src/stm32f2xx_ll_usb.c **** }
 230:Drivers/STM32F2xx_HAL_Driver/Src/stm32f2xx_ll_usb.c **** 
 231:Drivers/STM32F2xx_HAL_Driver/Src/stm32f2xx_ll_usb.c **** /**
 232:Drivers/STM32F2xx_HAL_Driver/Src/stm32f2xx_ll_usb.c ****   * @brief  USB_SetCurrentMode : Set functional mode
 233:Drivers/STM32F2xx_HAL_Driver/Src/stm32f2xx_ll_usb.c ****   * @param  USBx  Selected device
 234:Drivers/STM32F2xx_HAL_Driver/Src/stm32f2xx_ll_usb.c ****   * @param  mode   current core mode
 235:Drivers/STM32F2xx_HAL_Driver/Src/stm32f2xx_ll_usb.c ****   *          This parameter can be one of these values:
 236:Drivers/STM32F2xx_HAL_Driver/Src/stm32f2xx_ll_usb.c ****   *            @arg USB_DEVICE_MODE: Peripheral mode
 237:Drivers/STM32F2xx_HAL_Driver/Src/stm32f2xx_ll_usb.c ****   *            @arg USB_HOST_MODE: Host mode
 238:Drivers/STM32F2xx_HAL_Driver/Src/stm32f2xx_ll_usb.c ****   *            @arg USB_DRD_MODE: Dual Role Device mode
 239:Drivers/STM32F2xx_HAL_Driver/Src/stm32f2xx_ll_usb.c ****   * @retval HAL status
 240:Drivers/STM32F2xx_HAL_Driver/Src/stm32f2xx_ll_usb.c ****   */
 241:Drivers/STM32F2xx_HAL_Driver/Src/stm32f2xx_ll_usb.c **** HAL_StatusTypeDef USB_SetCurrentMode(USB_OTG_GlobalTypeDef *USBx, USB_OTG_ModeTypeDef mode)
 242:Drivers/STM32F2xx_HAL_Driver/Src/stm32f2xx_ll_usb.c **** {
 243:Drivers/STM32F2xx_HAL_Driver/Src/stm32f2xx_ll_usb.c ****   USBx->GUSBCFG &= ~(USB_OTG_GUSBCFG_FHMOD | USB_OTG_GUSBCFG_FDMOD);
 244:Drivers/STM32F2xx_HAL_Driver/Src/stm32f2xx_ll_usb.c **** 
 245:Drivers/STM32F2xx_HAL_Driver/Src/stm32f2xx_ll_usb.c ****   if (mode == USB_HOST_MODE)
 246:Drivers/STM32F2xx_HAL_Driver/Src/stm32f2xx_ll_usb.c ****   {
 247:Drivers/STM32F2xx_HAL_Driver/Src/stm32f2xx_ll_usb.c ****     USBx->GUSBCFG |= USB_OTG_GUSBCFG_FHMOD;
 248:Drivers/STM32F2xx_HAL_Driver/Src/stm32f2xx_ll_usb.c ****   }
 249:Drivers/STM32F2xx_HAL_Driver/Src/stm32f2xx_ll_usb.c ****   else if (mode == USB_DEVICE_MODE)
 250:Drivers/STM32F2xx_HAL_Driver/Src/stm32f2xx_ll_usb.c ****   {
 251:Drivers/STM32F2xx_HAL_Driver/Src/stm32f2xx_ll_usb.c ****     USBx->GUSBCFG |= USB_OTG_GUSBCFG_FDMOD;
 252:Drivers/STM32F2xx_HAL_Driver/Src/stm32f2xx_ll_usb.c ****   }
 253:Drivers/STM32F2xx_HAL_Driver/Src/stm32f2xx_ll_usb.c ****   else
 254:Drivers/STM32F2xx_HAL_Driver/Src/stm32f2xx_ll_usb.c ****   {
 255:Drivers/STM32F2xx_HAL_Driver/Src/stm32f2xx_ll_usb.c ****     return HAL_ERROR;
 256:Drivers/STM32F2xx_HAL_Driver/Src/stm32f2xx_ll_usb.c ****   }
 257:Drivers/STM32F2xx_HAL_Driver/Src/stm32f2xx_ll_usb.c ****   HAL_Delay(50U);
 258:Drivers/STM32F2xx_HAL_Driver/Src/stm32f2xx_ll_usb.c **** 
 259:Drivers/STM32F2xx_HAL_Driver/Src/stm32f2xx_ll_usb.c ****   return HAL_OK;
 260:Drivers/STM32F2xx_HAL_Driver/Src/stm32f2xx_ll_usb.c **** }
ARM GAS  C:\Users\User\AppData\Local\Temp\ccY05dYU.s 			page 6


 261:Drivers/STM32F2xx_HAL_Driver/Src/stm32f2xx_ll_usb.c **** 
 262:Drivers/STM32F2xx_HAL_Driver/Src/stm32f2xx_ll_usb.c **** /**
 263:Drivers/STM32F2xx_HAL_Driver/Src/stm32f2xx_ll_usb.c ****   * @brief  USB_DevInit : Initializes the USB_OTG controller registers
 264:Drivers/STM32F2xx_HAL_Driver/Src/stm32f2xx_ll_usb.c ****   *         for device mode
 265:Drivers/STM32F2xx_HAL_Driver/Src/stm32f2xx_ll_usb.c ****   * @param  USBx  Selected device
 266:Drivers/STM32F2xx_HAL_Driver/Src/stm32f2xx_ll_usb.c ****   * @param  cfg   pointer to a USB_OTG_CfgTypeDef structure that contains
 267:Drivers/STM32F2xx_HAL_Driver/Src/stm32f2xx_ll_usb.c ****   *         the configuration information for the specified USBx peripheral.
 268:Drivers/STM32F2xx_HAL_Driver/Src/stm32f2xx_ll_usb.c ****   * @retval HAL status
 269:Drivers/STM32F2xx_HAL_Driver/Src/stm32f2xx_ll_usb.c ****   */
 270:Drivers/STM32F2xx_HAL_Driver/Src/stm32f2xx_ll_usb.c **** HAL_StatusTypeDef USB_DevInit(USB_OTG_GlobalTypeDef *USBx, USB_OTG_CfgTypeDef cfg)
 271:Drivers/STM32F2xx_HAL_Driver/Src/stm32f2xx_ll_usb.c **** {
 272:Drivers/STM32F2xx_HAL_Driver/Src/stm32f2xx_ll_usb.c ****   HAL_StatusTypeDef ret = HAL_OK;
 273:Drivers/STM32F2xx_HAL_Driver/Src/stm32f2xx_ll_usb.c ****   uint32_t USBx_BASE = (uint32_t)USBx;
 274:Drivers/STM32F2xx_HAL_Driver/Src/stm32f2xx_ll_usb.c ****   uint32_t i;
 275:Drivers/STM32F2xx_HAL_Driver/Src/stm32f2xx_ll_usb.c **** 
 276:Drivers/STM32F2xx_HAL_Driver/Src/stm32f2xx_ll_usb.c ****   for (i = 0U; i < 15U; i++)
 277:Drivers/STM32F2xx_HAL_Driver/Src/stm32f2xx_ll_usb.c ****   {
 278:Drivers/STM32F2xx_HAL_Driver/Src/stm32f2xx_ll_usb.c ****     USBx->DIEPTXF[i] = 0U;
 279:Drivers/STM32F2xx_HAL_Driver/Src/stm32f2xx_ll_usb.c ****   }
 280:Drivers/STM32F2xx_HAL_Driver/Src/stm32f2xx_ll_usb.c **** 
 281:Drivers/STM32F2xx_HAL_Driver/Src/stm32f2xx_ll_usb.c ****   /* VBUS Sensing setup */
 282:Drivers/STM32F2xx_HAL_Driver/Src/stm32f2xx_ll_usb.c ****   if (cfg.vbus_sensing_enable == 0U)
 283:Drivers/STM32F2xx_HAL_Driver/Src/stm32f2xx_ll_usb.c ****   {
 284:Drivers/STM32F2xx_HAL_Driver/Src/stm32f2xx_ll_usb.c ****     /*
 285:Drivers/STM32F2xx_HAL_Driver/Src/stm32f2xx_ll_usb.c ****      * disable HW VBUS sensing. VBUS is internally considered to be always
 286:Drivers/STM32F2xx_HAL_Driver/Src/stm32f2xx_ll_usb.c ****      * at VBUS-Valid level (5V).
 287:Drivers/STM32F2xx_HAL_Driver/Src/stm32f2xx_ll_usb.c ****      */
 288:Drivers/STM32F2xx_HAL_Driver/Src/stm32f2xx_ll_usb.c ****     USBx->GCCFG |= USB_OTG_GCCFG_NOVBUSSENS;
 289:Drivers/STM32F2xx_HAL_Driver/Src/stm32f2xx_ll_usb.c ****     USBx->GCCFG &= ~USB_OTG_GCCFG_VBUSBSEN;
 290:Drivers/STM32F2xx_HAL_Driver/Src/stm32f2xx_ll_usb.c ****     USBx->GCCFG &= ~USB_OTG_GCCFG_VBUSASEN;
 291:Drivers/STM32F2xx_HAL_Driver/Src/stm32f2xx_ll_usb.c ****   }
 292:Drivers/STM32F2xx_HAL_Driver/Src/stm32f2xx_ll_usb.c ****   else
 293:Drivers/STM32F2xx_HAL_Driver/Src/stm32f2xx_ll_usb.c ****   {
 294:Drivers/STM32F2xx_HAL_Driver/Src/stm32f2xx_ll_usb.c ****     /* Enable HW VBUS sensing */
 295:Drivers/STM32F2xx_HAL_Driver/Src/stm32f2xx_ll_usb.c ****     USBx->GCCFG &= ~USB_OTG_GCCFG_NOVBUSSENS;
 296:Drivers/STM32F2xx_HAL_Driver/Src/stm32f2xx_ll_usb.c ****     USBx->GCCFG |= USB_OTG_GCCFG_VBUSBSEN;
 297:Drivers/STM32F2xx_HAL_Driver/Src/stm32f2xx_ll_usb.c ****   }
 298:Drivers/STM32F2xx_HAL_Driver/Src/stm32f2xx_ll_usb.c **** 
 299:Drivers/STM32F2xx_HAL_Driver/Src/stm32f2xx_ll_usb.c ****   /* Restart the Phy Clock */
 300:Drivers/STM32F2xx_HAL_Driver/Src/stm32f2xx_ll_usb.c ****   USBx_PCGCCTL = 0U;
 301:Drivers/STM32F2xx_HAL_Driver/Src/stm32f2xx_ll_usb.c **** 
 302:Drivers/STM32F2xx_HAL_Driver/Src/stm32f2xx_ll_usb.c ****   /* Device mode configuration */
 303:Drivers/STM32F2xx_HAL_Driver/Src/stm32f2xx_ll_usb.c ****   USBx_DEVICE->DCFG |= DCFG_FRAME_INTERVAL_80;
 304:Drivers/STM32F2xx_HAL_Driver/Src/stm32f2xx_ll_usb.c **** 
 305:Drivers/STM32F2xx_HAL_Driver/Src/stm32f2xx_ll_usb.c ****   if (cfg.phy_itface == USB_OTG_ULPI_PHY)
 306:Drivers/STM32F2xx_HAL_Driver/Src/stm32f2xx_ll_usb.c ****   {
 307:Drivers/STM32F2xx_HAL_Driver/Src/stm32f2xx_ll_usb.c ****     if (cfg.speed == USBD_HS_SPEED)
 308:Drivers/STM32F2xx_HAL_Driver/Src/stm32f2xx_ll_usb.c ****     {
 309:Drivers/STM32F2xx_HAL_Driver/Src/stm32f2xx_ll_usb.c ****       /* Set Core speed to High speed mode */
 310:Drivers/STM32F2xx_HAL_Driver/Src/stm32f2xx_ll_usb.c ****       (void)USB_SetDevSpeed(USBx, USB_OTG_SPEED_HIGH);
 311:Drivers/STM32F2xx_HAL_Driver/Src/stm32f2xx_ll_usb.c ****     }
 312:Drivers/STM32F2xx_HAL_Driver/Src/stm32f2xx_ll_usb.c ****     else
 313:Drivers/STM32F2xx_HAL_Driver/Src/stm32f2xx_ll_usb.c ****     {
 314:Drivers/STM32F2xx_HAL_Driver/Src/stm32f2xx_ll_usb.c ****       /* Set Core speed to Full speed mode */
 315:Drivers/STM32F2xx_HAL_Driver/Src/stm32f2xx_ll_usb.c ****       (void)USB_SetDevSpeed(USBx, USB_OTG_SPEED_HIGH_IN_FULL);
 316:Drivers/STM32F2xx_HAL_Driver/Src/stm32f2xx_ll_usb.c ****     }
 317:Drivers/STM32F2xx_HAL_Driver/Src/stm32f2xx_ll_usb.c ****   }
ARM GAS  C:\Users\User\AppData\Local\Temp\ccY05dYU.s 			page 7


 318:Drivers/STM32F2xx_HAL_Driver/Src/stm32f2xx_ll_usb.c ****   else
 319:Drivers/STM32F2xx_HAL_Driver/Src/stm32f2xx_ll_usb.c ****   {
 320:Drivers/STM32F2xx_HAL_Driver/Src/stm32f2xx_ll_usb.c ****     /* Set Core speed to Full speed mode */
 321:Drivers/STM32F2xx_HAL_Driver/Src/stm32f2xx_ll_usb.c ****     (void)USB_SetDevSpeed(USBx, USB_OTG_SPEED_FULL);
 322:Drivers/STM32F2xx_HAL_Driver/Src/stm32f2xx_ll_usb.c ****   }
 323:Drivers/STM32F2xx_HAL_Driver/Src/stm32f2xx_ll_usb.c **** 
 324:Drivers/STM32F2xx_HAL_Driver/Src/stm32f2xx_ll_usb.c ****   /* Flush the FIFOs */
 325:Drivers/STM32F2xx_HAL_Driver/Src/stm32f2xx_ll_usb.c ****   if (USB_FlushTxFifo(USBx, 0x10U) != HAL_OK) /* all Tx FIFOs */
 326:Drivers/STM32F2xx_HAL_Driver/Src/stm32f2xx_ll_usb.c ****   {
 327:Drivers/STM32F2xx_HAL_Driver/Src/stm32f2xx_ll_usb.c ****     ret = HAL_ERROR;
 328:Drivers/STM32F2xx_HAL_Driver/Src/stm32f2xx_ll_usb.c ****   }
 329:Drivers/STM32F2xx_HAL_Driver/Src/stm32f2xx_ll_usb.c **** 
 330:Drivers/STM32F2xx_HAL_Driver/Src/stm32f2xx_ll_usb.c ****   if (USB_FlushRxFifo(USBx) != HAL_OK)
 331:Drivers/STM32F2xx_HAL_Driver/Src/stm32f2xx_ll_usb.c ****   {
 332:Drivers/STM32F2xx_HAL_Driver/Src/stm32f2xx_ll_usb.c ****     ret = HAL_ERROR;
 333:Drivers/STM32F2xx_HAL_Driver/Src/stm32f2xx_ll_usb.c ****   }
 334:Drivers/STM32F2xx_HAL_Driver/Src/stm32f2xx_ll_usb.c **** 
 335:Drivers/STM32F2xx_HAL_Driver/Src/stm32f2xx_ll_usb.c ****   /* Clear all pending Device Interrupts */
 336:Drivers/STM32F2xx_HAL_Driver/Src/stm32f2xx_ll_usb.c ****   USBx_DEVICE->DIEPMSK = 0U;
 337:Drivers/STM32F2xx_HAL_Driver/Src/stm32f2xx_ll_usb.c ****   USBx_DEVICE->DOEPMSK = 0U;
 338:Drivers/STM32F2xx_HAL_Driver/Src/stm32f2xx_ll_usb.c ****   USBx_DEVICE->DAINTMSK = 0U;
 339:Drivers/STM32F2xx_HAL_Driver/Src/stm32f2xx_ll_usb.c **** 
 340:Drivers/STM32F2xx_HAL_Driver/Src/stm32f2xx_ll_usb.c ****   for (i = 0U; i < cfg.dev_endpoints; i++)
 341:Drivers/STM32F2xx_HAL_Driver/Src/stm32f2xx_ll_usb.c ****   {
 342:Drivers/STM32F2xx_HAL_Driver/Src/stm32f2xx_ll_usb.c ****     if ((USBx_INEP(i)->DIEPCTL & USB_OTG_DIEPCTL_EPENA) == USB_OTG_DIEPCTL_EPENA)
 343:Drivers/STM32F2xx_HAL_Driver/Src/stm32f2xx_ll_usb.c ****     {
 344:Drivers/STM32F2xx_HAL_Driver/Src/stm32f2xx_ll_usb.c ****       if (i == 0U)
 345:Drivers/STM32F2xx_HAL_Driver/Src/stm32f2xx_ll_usb.c ****       {
 346:Drivers/STM32F2xx_HAL_Driver/Src/stm32f2xx_ll_usb.c ****         USBx_INEP(i)->DIEPCTL = USB_OTG_DIEPCTL_SNAK;
 347:Drivers/STM32F2xx_HAL_Driver/Src/stm32f2xx_ll_usb.c ****       }
 348:Drivers/STM32F2xx_HAL_Driver/Src/stm32f2xx_ll_usb.c ****       else
 349:Drivers/STM32F2xx_HAL_Driver/Src/stm32f2xx_ll_usb.c ****       {
 350:Drivers/STM32F2xx_HAL_Driver/Src/stm32f2xx_ll_usb.c ****         USBx_INEP(i)->DIEPCTL = USB_OTG_DIEPCTL_EPDIS | USB_OTG_DIEPCTL_SNAK;
 351:Drivers/STM32F2xx_HAL_Driver/Src/stm32f2xx_ll_usb.c ****       }
 352:Drivers/STM32F2xx_HAL_Driver/Src/stm32f2xx_ll_usb.c ****     }
 353:Drivers/STM32F2xx_HAL_Driver/Src/stm32f2xx_ll_usb.c ****     else
 354:Drivers/STM32F2xx_HAL_Driver/Src/stm32f2xx_ll_usb.c ****     {
 355:Drivers/STM32F2xx_HAL_Driver/Src/stm32f2xx_ll_usb.c ****       USBx_INEP(i)->DIEPCTL = 0U;
 356:Drivers/STM32F2xx_HAL_Driver/Src/stm32f2xx_ll_usb.c ****     }
 357:Drivers/STM32F2xx_HAL_Driver/Src/stm32f2xx_ll_usb.c **** 
 358:Drivers/STM32F2xx_HAL_Driver/Src/stm32f2xx_ll_usb.c ****     USBx_INEP(i)->DIEPTSIZ = 0U;
 359:Drivers/STM32F2xx_HAL_Driver/Src/stm32f2xx_ll_usb.c ****     USBx_INEP(i)->DIEPINT  = 0xFB7FU;
 360:Drivers/STM32F2xx_HAL_Driver/Src/stm32f2xx_ll_usb.c ****   }
 361:Drivers/STM32F2xx_HAL_Driver/Src/stm32f2xx_ll_usb.c **** 
 362:Drivers/STM32F2xx_HAL_Driver/Src/stm32f2xx_ll_usb.c ****   for (i = 0U; i < cfg.dev_endpoints; i++)
 363:Drivers/STM32F2xx_HAL_Driver/Src/stm32f2xx_ll_usb.c ****   {
 364:Drivers/STM32F2xx_HAL_Driver/Src/stm32f2xx_ll_usb.c ****     if ((USBx_OUTEP(i)->DOEPCTL & USB_OTG_DOEPCTL_EPENA) == USB_OTG_DOEPCTL_EPENA)
 365:Drivers/STM32F2xx_HAL_Driver/Src/stm32f2xx_ll_usb.c ****     {
 366:Drivers/STM32F2xx_HAL_Driver/Src/stm32f2xx_ll_usb.c ****       if (i == 0U)
 367:Drivers/STM32F2xx_HAL_Driver/Src/stm32f2xx_ll_usb.c ****       {
 368:Drivers/STM32F2xx_HAL_Driver/Src/stm32f2xx_ll_usb.c ****         USBx_OUTEP(i)->DOEPCTL = USB_OTG_DOEPCTL_SNAK;
 369:Drivers/STM32F2xx_HAL_Driver/Src/stm32f2xx_ll_usb.c ****       }
 370:Drivers/STM32F2xx_HAL_Driver/Src/stm32f2xx_ll_usb.c ****       else
 371:Drivers/STM32F2xx_HAL_Driver/Src/stm32f2xx_ll_usb.c ****       {
 372:Drivers/STM32F2xx_HAL_Driver/Src/stm32f2xx_ll_usb.c ****         USBx_OUTEP(i)->DOEPCTL = USB_OTG_DOEPCTL_EPDIS | USB_OTG_DOEPCTL_SNAK;
 373:Drivers/STM32F2xx_HAL_Driver/Src/stm32f2xx_ll_usb.c ****       }
 374:Drivers/STM32F2xx_HAL_Driver/Src/stm32f2xx_ll_usb.c ****     }
ARM GAS  C:\Users\User\AppData\Local\Temp\ccY05dYU.s 			page 8


 375:Drivers/STM32F2xx_HAL_Driver/Src/stm32f2xx_ll_usb.c ****     else
 376:Drivers/STM32F2xx_HAL_Driver/Src/stm32f2xx_ll_usb.c ****     {
 377:Drivers/STM32F2xx_HAL_Driver/Src/stm32f2xx_ll_usb.c ****       USBx_OUTEP(i)->DOEPCTL = 0U;
 378:Drivers/STM32F2xx_HAL_Driver/Src/stm32f2xx_ll_usb.c ****     }
 379:Drivers/STM32F2xx_HAL_Driver/Src/stm32f2xx_ll_usb.c **** 
 380:Drivers/STM32F2xx_HAL_Driver/Src/stm32f2xx_ll_usb.c ****     USBx_OUTEP(i)->DOEPTSIZ = 0U;
 381:Drivers/STM32F2xx_HAL_Driver/Src/stm32f2xx_ll_usb.c ****     USBx_OUTEP(i)->DOEPINT  = 0xFB7FU;
 382:Drivers/STM32F2xx_HAL_Driver/Src/stm32f2xx_ll_usb.c ****   }
 383:Drivers/STM32F2xx_HAL_Driver/Src/stm32f2xx_ll_usb.c **** 
 384:Drivers/STM32F2xx_HAL_Driver/Src/stm32f2xx_ll_usb.c ****   USBx_DEVICE->DIEPMSK &= ~(USB_OTG_DIEPMSK_TXFURM);
 385:Drivers/STM32F2xx_HAL_Driver/Src/stm32f2xx_ll_usb.c **** 
 386:Drivers/STM32F2xx_HAL_Driver/Src/stm32f2xx_ll_usb.c ****   if (cfg.dma_enable == 1U)
 387:Drivers/STM32F2xx_HAL_Driver/Src/stm32f2xx_ll_usb.c ****   {
 388:Drivers/STM32F2xx_HAL_Driver/Src/stm32f2xx_ll_usb.c ****     /*Set threshold parameters */
 389:Drivers/STM32F2xx_HAL_Driver/Src/stm32f2xx_ll_usb.c ****     USBx_DEVICE->DTHRCTL = USB_OTG_DTHRCTL_TXTHRLEN_6 |
 390:Drivers/STM32F2xx_HAL_Driver/Src/stm32f2xx_ll_usb.c ****                            USB_OTG_DTHRCTL_RXTHRLEN_6;
 391:Drivers/STM32F2xx_HAL_Driver/Src/stm32f2xx_ll_usb.c **** 
 392:Drivers/STM32F2xx_HAL_Driver/Src/stm32f2xx_ll_usb.c ****     USBx_DEVICE->DTHRCTL |= USB_OTG_DTHRCTL_RXTHREN |
 393:Drivers/STM32F2xx_HAL_Driver/Src/stm32f2xx_ll_usb.c ****                             USB_OTG_DTHRCTL_ISOTHREN |
 394:Drivers/STM32F2xx_HAL_Driver/Src/stm32f2xx_ll_usb.c ****                             USB_OTG_DTHRCTL_NONISOTHREN;
 395:Drivers/STM32F2xx_HAL_Driver/Src/stm32f2xx_ll_usb.c ****   }
 396:Drivers/STM32F2xx_HAL_Driver/Src/stm32f2xx_ll_usb.c **** 
 397:Drivers/STM32F2xx_HAL_Driver/Src/stm32f2xx_ll_usb.c ****   /* Disable all interrupts. */
 398:Drivers/STM32F2xx_HAL_Driver/Src/stm32f2xx_ll_usb.c ****   USBx->GINTMSK = 0U;
 399:Drivers/STM32F2xx_HAL_Driver/Src/stm32f2xx_ll_usb.c **** 
 400:Drivers/STM32F2xx_HAL_Driver/Src/stm32f2xx_ll_usb.c ****   /* Clear any pending interrupts */
 401:Drivers/STM32F2xx_HAL_Driver/Src/stm32f2xx_ll_usb.c ****   USBx->GINTSTS = 0xBFFFFFFFU;
 402:Drivers/STM32F2xx_HAL_Driver/Src/stm32f2xx_ll_usb.c **** 
 403:Drivers/STM32F2xx_HAL_Driver/Src/stm32f2xx_ll_usb.c ****   /* Enable the common interrupts */
 404:Drivers/STM32F2xx_HAL_Driver/Src/stm32f2xx_ll_usb.c ****   if (cfg.dma_enable == 0U)
 405:Drivers/STM32F2xx_HAL_Driver/Src/stm32f2xx_ll_usb.c ****   {
 406:Drivers/STM32F2xx_HAL_Driver/Src/stm32f2xx_ll_usb.c ****     USBx->GINTMSK |= USB_OTG_GINTMSK_RXFLVLM;
 407:Drivers/STM32F2xx_HAL_Driver/Src/stm32f2xx_ll_usb.c ****   }
 408:Drivers/STM32F2xx_HAL_Driver/Src/stm32f2xx_ll_usb.c **** 
 409:Drivers/STM32F2xx_HAL_Driver/Src/stm32f2xx_ll_usb.c ****   /* Enable interrupts matching to the Device mode ONLY */
 410:Drivers/STM32F2xx_HAL_Driver/Src/stm32f2xx_ll_usb.c ****   USBx->GINTMSK |= USB_OTG_GINTMSK_USBSUSPM | USB_OTG_GINTMSK_USBRST |
 411:Drivers/STM32F2xx_HAL_Driver/Src/stm32f2xx_ll_usb.c ****                    USB_OTG_GINTMSK_ENUMDNEM | USB_OTG_GINTMSK_IEPINT |
 412:Drivers/STM32F2xx_HAL_Driver/Src/stm32f2xx_ll_usb.c ****                    USB_OTG_GINTMSK_OEPINT   | USB_OTG_GINTMSK_IISOIXFRM |
 413:Drivers/STM32F2xx_HAL_Driver/Src/stm32f2xx_ll_usb.c ****                    USB_OTG_GINTMSK_PXFRM_IISOOXFRM | USB_OTG_GINTMSK_WUIM;
 414:Drivers/STM32F2xx_HAL_Driver/Src/stm32f2xx_ll_usb.c **** 
 415:Drivers/STM32F2xx_HAL_Driver/Src/stm32f2xx_ll_usb.c ****   if (cfg.Sof_enable != 0U)
 416:Drivers/STM32F2xx_HAL_Driver/Src/stm32f2xx_ll_usb.c ****   {
 417:Drivers/STM32F2xx_HAL_Driver/Src/stm32f2xx_ll_usb.c ****     USBx->GINTMSK |= USB_OTG_GINTMSK_SOFM;
 418:Drivers/STM32F2xx_HAL_Driver/Src/stm32f2xx_ll_usb.c ****   }
 419:Drivers/STM32F2xx_HAL_Driver/Src/stm32f2xx_ll_usb.c **** 
 420:Drivers/STM32F2xx_HAL_Driver/Src/stm32f2xx_ll_usb.c ****   if (cfg.vbus_sensing_enable == 1U)
 421:Drivers/STM32F2xx_HAL_Driver/Src/stm32f2xx_ll_usb.c ****   {
 422:Drivers/STM32F2xx_HAL_Driver/Src/stm32f2xx_ll_usb.c ****     USBx->GINTMSK |= (USB_OTG_GINTMSK_SRQIM | USB_OTG_GINTMSK_OTGINT);
 423:Drivers/STM32F2xx_HAL_Driver/Src/stm32f2xx_ll_usb.c ****   }
 424:Drivers/STM32F2xx_HAL_Driver/Src/stm32f2xx_ll_usb.c **** 
 425:Drivers/STM32F2xx_HAL_Driver/Src/stm32f2xx_ll_usb.c ****   return ret;
 426:Drivers/STM32F2xx_HAL_Driver/Src/stm32f2xx_ll_usb.c **** }
 427:Drivers/STM32F2xx_HAL_Driver/Src/stm32f2xx_ll_usb.c **** 
 428:Drivers/STM32F2xx_HAL_Driver/Src/stm32f2xx_ll_usb.c **** /**
 429:Drivers/STM32F2xx_HAL_Driver/Src/stm32f2xx_ll_usb.c ****   * @brief  USB_OTG_FlushTxFifo : Flush a Tx FIFO
 430:Drivers/STM32F2xx_HAL_Driver/Src/stm32f2xx_ll_usb.c ****   * @param  USBx  Selected device
 431:Drivers/STM32F2xx_HAL_Driver/Src/stm32f2xx_ll_usb.c ****   * @param  num  FIFO number
ARM GAS  C:\Users\User\AppData\Local\Temp\ccY05dYU.s 			page 9


 432:Drivers/STM32F2xx_HAL_Driver/Src/stm32f2xx_ll_usb.c ****   *         This parameter can be a value from 1 to 15
 433:Drivers/STM32F2xx_HAL_Driver/Src/stm32f2xx_ll_usb.c ****             15 means Flush all Tx FIFOs
 434:Drivers/STM32F2xx_HAL_Driver/Src/stm32f2xx_ll_usb.c ****   * @retval HAL status
 435:Drivers/STM32F2xx_HAL_Driver/Src/stm32f2xx_ll_usb.c ****   */
 436:Drivers/STM32F2xx_HAL_Driver/Src/stm32f2xx_ll_usb.c **** HAL_StatusTypeDef USB_FlushTxFifo(USB_OTG_GlobalTypeDef *USBx, uint32_t num)
 437:Drivers/STM32F2xx_HAL_Driver/Src/stm32f2xx_ll_usb.c **** {
 438:Drivers/STM32F2xx_HAL_Driver/Src/stm32f2xx_ll_usb.c ****   uint32_t count = 0U;
 439:Drivers/STM32F2xx_HAL_Driver/Src/stm32f2xx_ll_usb.c **** 
 440:Drivers/STM32F2xx_HAL_Driver/Src/stm32f2xx_ll_usb.c ****   USBx->GRSTCTL = (USB_OTG_GRSTCTL_TXFFLSH | (num << 6));
 441:Drivers/STM32F2xx_HAL_Driver/Src/stm32f2xx_ll_usb.c **** 
 442:Drivers/STM32F2xx_HAL_Driver/Src/stm32f2xx_ll_usb.c ****   do
 443:Drivers/STM32F2xx_HAL_Driver/Src/stm32f2xx_ll_usb.c ****   {
 444:Drivers/STM32F2xx_HAL_Driver/Src/stm32f2xx_ll_usb.c ****     if (++count > 200000U)
 445:Drivers/STM32F2xx_HAL_Driver/Src/stm32f2xx_ll_usb.c ****     {
 446:Drivers/STM32F2xx_HAL_Driver/Src/stm32f2xx_ll_usb.c ****       return HAL_TIMEOUT;
 447:Drivers/STM32F2xx_HAL_Driver/Src/stm32f2xx_ll_usb.c ****     }
 448:Drivers/STM32F2xx_HAL_Driver/Src/stm32f2xx_ll_usb.c ****   }
 449:Drivers/STM32F2xx_HAL_Driver/Src/stm32f2xx_ll_usb.c ****   while ((USBx->GRSTCTL & USB_OTG_GRSTCTL_TXFFLSH) == USB_OTG_GRSTCTL_TXFFLSH);
 450:Drivers/STM32F2xx_HAL_Driver/Src/stm32f2xx_ll_usb.c **** 
 451:Drivers/STM32F2xx_HAL_Driver/Src/stm32f2xx_ll_usb.c ****   return HAL_OK;
 452:Drivers/STM32F2xx_HAL_Driver/Src/stm32f2xx_ll_usb.c **** }
 453:Drivers/STM32F2xx_HAL_Driver/Src/stm32f2xx_ll_usb.c **** 
 454:Drivers/STM32F2xx_HAL_Driver/Src/stm32f2xx_ll_usb.c **** /**
 455:Drivers/STM32F2xx_HAL_Driver/Src/stm32f2xx_ll_usb.c ****   * @brief  USB_FlushRxFifo : Flush Rx FIFO
 456:Drivers/STM32F2xx_HAL_Driver/Src/stm32f2xx_ll_usb.c ****   * @param  USBx  Selected device
 457:Drivers/STM32F2xx_HAL_Driver/Src/stm32f2xx_ll_usb.c ****   * @retval HAL status
 458:Drivers/STM32F2xx_HAL_Driver/Src/stm32f2xx_ll_usb.c ****   */
 459:Drivers/STM32F2xx_HAL_Driver/Src/stm32f2xx_ll_usb.c **** HAL_StatusTypeDef USB_FlushRxFifo(USB_OTG_GlobalTypeDef *USBx)
 460:Drivers/STM32F2xx_HAL_Driver/Src/stm32f2xx_ll_usb.c **** {
 461:Drivers/STM32F2xx_HAL_Driver/Src/stm32f2xx_ll_usb.c ****   uint32_t count = 0;
 462:Drivers/STM32F2xx_HAL_Driver/Src/stm32f2xx_ll_usb.c **** 
 463:Drivers/STM32F2xx_HAL_Driver/Src/stm32f2xx_ll_usb.c ****   USBx->GRSTCTL = USB_OTG_GRSTCTL_RXFFLSH;
 464:Drivers/STM32F2xx_HAL_Driver/Src/stm32f2xx_ll_usb.c **** 
 465:Drivers/STM32F2xx_HAL_Driver/Src/stm32f2xx_ll_usb.c ****   do
 466:Drivers/STM32F2xx_HAL_Driver/Src/stm32f2xx_ll_usb.c ****   {
 467:Drivers/STM32F2xx_HAL_Driver/Src/stm32f2xx_ll_usb.c ****     if (++count > 200000U)
 468:Drivers/STM32F2xx_HAL_Driver/Src/stm32f2xx_ll_usb.c ****     {
 469:Drivers/STM32F2xx_HAL_Driver/Src/stm32f2xx_ll_usb.c ****       return HAL_TIMEOUT;
 470:Drivers/STM32F2xx_HAL_Driver/Src/stm32f2xx_ll_usb.c ****     }
 471:Drivers/STM32F2xx_HAL_Driver/Src/stm32f2xx_ll_usb.c ****   }
 472:Drivers/STM32F2xx_HAL_Driver/Src/stm32f2xx_ll_usb.c ****   while ((USBx->GRSTCTL & USB_OTG_GRSTCTL_RXFFLSH) == USB_OTG_GRSTCTL_RXFFLSH);
 473:Drivers/STM32F2xx_HAL_Driver/Src/stm32f2xx_ll_usb.c **** 
 474:Drivers/STM32F2xx_HAL_Driver/Src/stm32f2xx_ll_usb.c ****   return HAL_OK;
 475:Drivers/STM32F2xx_HAL_Driver/Src/stm32f2xx_ll_usb.c **** }
 476:Drivers/STM32F2xx_HAL_Driver/Src/stm32f2xx_ll_usb.c **** 
 477:Drivers/STM32F2xx_HAL_Driver/Src/stm32f2xx_ll_usb.c **** /**
 478:Drivers/STM32F2xx_HAL_Driver/Src/stm32f2xx_ll_usb.c ****   * @brief  USB_SetDevSpeed  Initializes the DevSpd field of DCFG register
 479:Drivers/STM32F2xx_HAL_Driver/Src/stm32f2xx_ll_usb.c ****   *         depending the PHY type and the enumeration speed of the device.
 480:Drivers/STM32F2xx_HAL_Driver/Src/stm32f2xx_ll_usb.c ****   * @param  USBx  Selected device
 481:Drivers/STM32F2xx_HAL_Driver/Src/stm32f2xx_ll_usb.c ****   * @param  speed  device speed
 482:Drivers/STM32F2xx_HAL_Driver/Src/stm32f2xx_ll_usb.c ****   *          This parameter can be one of these values:
 483:Drivers/STM32F2xx_HAL_Driver/Src/stm32f2xx_ll_usb.c ****   *            @arg USB_OTG_SPEED_HIGH: High speed mode
 484:Drivers/STM32F2xx_HAL_Driver/Src/stm32f2xx_ll_usb.c ****   *            @arg USB_OTG_SPEED_HIGH_IN_FULL: High speed core in Full Speed mode
 485:Drivers/STM32F2xx_HAL_Driver/Src/stm32f2xx_ll_usb.c ****   *            @arg USB_OTG_SPEED_FULL: Full speed mode
 486:Drivers/STM32F2xx_HAL_Driver/Src/stm32f2xx_ll_usb.c ****   * @retval  Hal status
 487:Drivers/STM32F2xx_HAL_Driver/Src/stm32f2xx_ll_usb.c ****   */
 488:Drivers/STM32F2xx_HAL_Driver/Src/stm32f2xx_ll_usb.c **** HAL_StatusTypeDef USB_SetDevSpeed(USB_OTG_GlobalTypeDef *USBx, uint8_t speed)
ARM GAS  C:\Users\User\AppData\Local\Temp\ccY05dYU.s 			page 10


 489:Drivers/STM32F2xx_HAL_Driver/Src/stm32f2xx_ll_usb.c **** {
 490:Drivers/STM32F2xx_HAL_Driver/Src/stm32f2xx_ll_usb.c ****   uint32_t USBx_BASE = (uint32_t)USBx;
 491:Drivers/STM32F2xx_HAL_Driver/Src/stm32f2xx_ll_usb.c **** 
 492:Drivers/STM32F2xx_HAL_Driver/Src/stm32f2xx_ll_usb.c ****   USBx_DEVICE->DCFG |= speed;
 493:Drivers/STM32F2xx_HAL_Driver/Src/stm32f2xx_ll_usb.c ****   return HAL_OK;
 494:Drivers/STM32F2xx_HAL_Driver/Src/stm32f2xx_ll_usb.c **** }
 495:Drivers/STM32F2xx_HAL_Driver/Src/stm32f2xx_ll_usb.c **** 
 496:Drivers/STM32F2xx_HAL_Driver/Src/stm32f2xx_ll_usb.c **** /**
 497:Drivers/STM32F2xx_HAL_Driver/Src/stm32f2xx_ll_usb.c ****   * @brief  USB_GetDevSpeed  Return the Dev Speed
 498:Drivers/STM32F2xx_HAL_Driver/Src/stm32f2xx_ll_usb.c ****   * @param  USBx  Selected device
 499:Drivers/STM32F2xx_HAL_Driver/Src/stm32f2xx_ll_usb.c ****   * @retval speed  device speed
 500:Drivers/STM32F2xx_HAL_Driver/Src/stm32f2xx_ll_usb.c ****   *          This parameter can be one of these values:
 501:Drivers/STM32F2xx_HAL_Driver/Src/stm32f2xx_ll_usb.c ****   *            @arg PCD_SPEED_HIGH: High speed mode
 502:Drivers/STM32F2xx_HAL_Driver/Src/stm32f2xx_ll_usb.c ****   *            @arg PCD_SPEED_FULL: Full speed mode
 503:Drivers/STM32F2xx_HAL_Driver/Src/stm32f2xx_ll_usb.c ****   */
 504:Drivers/STM32F2xx_HAL_Driver/Src/stm32f2xx_ll_usb.c **** uint8_t USB_GetDevSpeed(USB_OTG_GlobalTypeDef *USBx)
 505:Drivers/STM32F2xx_HAL_Driver/Src/stm32f2xx_ll_usb.c **** {
 506:Drivers/STM32F2xx_HAL_Driver/Src/stm32f2xx_ll_usb.c ****   uint32_t USBx_BASE = (uint32_t)USBx;
 507:Drivers/STM32F2xx_HAL_Driver/Src/stm32f2xx_ll_usb.c ****   uint8_t speed;
 508:Drivers/STM32F2xx_HAL_Driver/Src/stm32f2xx_ll_usb.c ****   uint32_t DevEnumSpeed = USBx_DEVICE->DSTS & USB_OTG_DSTS_ENUMSPD;
 509:Drivers/STM32F2xx_HAL_Driver/Src/stm32f2xx_ll_usb.c **** 
 510:Drivers/STM32F2xx_HAL_Driver/Src/stm32f2xx_ll_usb.c ****   if (DevEnumSpeed == DSTS_ENUMSPD_HS_PHY_30MHZ_OR_60MHZ)
 511:Drivers/STM32F2xx_HAL_Driver/Src/stm32f2xx_ll_usb.c ****   {
 512:Drivers/STM32F2xx_HAL_Driver/Src/stm32f2xx_ll_usb.c ****     speed = USBD_HS_SPEED;
 513:Drivers/STM32F2xx_HAL_Driver/Src/stm32f2xx_ll_usb.c ****   }
 514:Drivers/STM32F2xx_HAL_Driver/Src/stm32f2xx_ll_usb.c ****   else if ((DevEnumSpeed == DSTS_ENUMSPD_FS_PHY_30MHZ_OR_60MHZ) ||
 515:Drivers/STM32F2xx_HAL_Driver/Src/stm32f2xx_ll_usb.c ****            (DevEnumSpeed == DSTS_ENUMSPD_FS_PHY_48MHZ))
 516:Drivers/STM32F2xx_HAL_Driver/Src/stm32f2xx_ll_usb.c ****   {
 517:Drivers/STM32F2xx_HAL_Driver/Src/stm32f2xx_ll_usb.c ****     speed = USBD_FS_SPEED;
 518:Drivers/STM32F2xx_HAL_Driver/Src/stm32f2xx_ll_usb.c ****   }
 519:Drivers/STM32F2xx_HAL_Driver/Src/stm32f2xx_ll_usb.c ****   else
 520:Drivers/STM32F2xx_HAL_Driver/Src/stm32f2xx_ll_usb.c ****   {
 521:Drivers/STM32F2xx_HAL_Driver/Src/stm32f2xx_ll_usb.c ****     speed = 0xFU;
 522:Drivers/STM32F2xx_HAL_Driver/Src/stm32f2xx_ll_usb.c ****   }
 523:Drivers/STM32F2xx_HAL_Driver/Src/stm32f2xx_ll_usb.c **** 
 524:Drivers/STM32F2xx_HAL_Driver/Src/stm32f2xx_ll_usb.c ****   return speed;
 525:Drivers/STM32F2xx_HAL_Driver/Src/stm32f2xx_ll_usb.c **** }
 526:Drivers/STM32F2xx_HAL_Driver/Src/stm32f2xx_ll_usb.c **** 
 527:Drivers/STM32F2xx_HAL_Driver/Src/stm32f2xx_ll_usb.c **** /**
 528:Drivers/STM32F2xx_HAL_Driver/Src/stm32f2xx_ll_usb.c ****   * @brief  Activate and configure an endpoint
 529:Drivers/STM32F2xx_HAL_Driver/Src/stm32f2xx_ll_usb.c ****   * @param  USBx  Selected device
 530:Drivers/STM32F2xx_HAL_Driver/Src/stm32f2xx_ll_usb.c ****   * @param  ep pointer to endpoint structure
 531:Drivers/STM32F2xx_HAL_Driver/Src/stm32f2xx_ll_usb.c ****   * @retval HAL status
 532:Drivers/STM32F2xx_HAL_Driver/Src/stm32f2xx_ll_usb.c ****   */
 533:Drivers/STM32F2xx_HAL_Driver/Src/stm32f2xx_ll_usb.c **** HAL_StatusTypeDef USB_ActivateEndpoint(USB_OTG_GlobalTypeDef *USBx, USB_OTG_EPTypeDef *ep)
 534:Drivers/STM32F2xx_HAL_Driver/Src/stm32f2xx_ll_usb.c **** {
 535:Drivers/STM32F2xx_HAL_Driver/Src/stm32f2xx_ll_usb.c ****   uint32_t USBx_BASE = (uint32_t)USBx;
 536:Drivers/STM32F2xx_HAL_Driver/Src/stm32f2xx_ll_usb.c ****   uint32_t epnum = (uint32_t)ep->num;
 537:Drivers/STM32F2xx_HAL_Driver/Src/stm32f2xx_ll_usb.c **** 
 538:Drivers/STM32F2xx_HAL_Driver/Src/stm32f2xx_ll_usb.c ****   if (ep->is_in == 1U)
 539:Drivers/STM32F2xx_HAL_Driver/Src/stm32f2xx_ll_usb.c ****   {
 540:Drivers/STM32F2xx_HAL_Driver/Src/stm32f2xx_ll_usb.c ****     USBx_DEVICE->DAINTMSK |= USB_OTG_DAINTMSK_IEPM & (uint32_t)(1UL << (ep->num & EP_ADDR_MSK));
 541:Drivers/STM32F2xx_HAL_Driver/Src/stm32f2xx_ll_usb.c **** 
 542:Drivers/STM32F2xx_HAL_Driver/Src/stm32f2xx_ll_usb.c ****     if ((USBx_INEP(epnum)->DIEPCTL & USB_OTG_DIEPCTL_USBAEP) == 0U)
 543:Drivers/STM32F2xx_HAL_Driver/Src/stm32f2xx_ll_usb.c ****     {
 544:Drivers/STM32F2xx_HAL_Driver/Src/stm32f2xx_ll_usb.c ****       USBx_INEP(epnum)->DIEPCTL |= (ep->maxpacket & USB_OTG_DIEPCTL_MPSIZ) |
 545:Drivers/STM32F2xx_HAL_Driver/Src/stm32f2xx_ll_usb.c ****                                    ((uint32_t)ep->type << 18) | (epnum << 22) |
ARM GAS  C:\Users\User\AppData\Local\Temp\ccY05dYU.s 			page 11


 546:Drivers/STM32F2xx_HAL_Driver/Src/stm32f2xx_ll_usb.c ****                                    USB_OTG_DIEPCTL_SD0PID_SEVNFRM |
 547:Drivers/STM32F2xx_HAL_Driver/Src/stm32f2xx_ll_usb.c ****                                    USB_OTG_DIEPCTL_USBAEP;
 548:Drivers/STM32F2xx_HAL_Driver/Src/stm32f2xx_ll_usb.c ****     }
 549:Drivers/STM32F2xx_HAL_Driver/Src/stm32f2xx_ll_usb.c ****   }
 550:Drivers/STM32F2xx_HAL_Driver/Src/stm32f2xx_ll_usb.c ****   else
 551:Drivers/STM32F2xx_HAL_Driver/Src/stm32f2xx_ll_usb.c ****   {
 552:Drivers/STM32F2xx_HAL_Driver/Src/stm32f2xx_ll_usb.c ****     USBx_DEVICE->DAINTMSK |= USB_OTG_DAINTMSK_OEPM & ((uint32_t)(1UL << (ep->num & EP_ADDR_MSK)) <<
 553:Drivers/STM32F2xx_HAL_Driver/Src/stm32f2xx_ll_usb.c **** 
 554:Drivers/STM32F2xx_HAL_Driver/Src/stm32f2xx_ll_usb.c ****     if (((USBx_OUTEP(epnum)->DOEPCTL) & USB_OTG_DOEPCTL_USBAEP) == 0U)
 555:Drivers/STM32F2xx_HAL_Driver/Src/stm32f2xx_ll_usb.c ****     {
 556:Drivers/STM32F2xx_HAL_Driver/Src/stm32f2xx_ll_usb.c ****       USBx_OUTEP(epnum)->DOEPCTL |= (ep->maxpacket & USB_OTG_DOEPCTL_MPSIZ) |
 557:Drivers/STM32F2xx_HAL_Driver/Src/stm32f2xx_ll_usb.c ****                                     ((uint32_t)ep->type << 18) |
 558:Drivers/STM32F2xx_HAL_Driver/Src/stm32f2xx_ll_usb.c ****                                     USB_OTG_DIEPCTL_SD0PID_SEVNFRM |
 559:Drivers/STM32F2xx_HAL_Driver/Src/stm32f2xx_ll_usb.c ****                                     USB_OTG_DOEPCTL_USBAEP;
 560:Drivers/STM32F2xx_HAL_Driver/Src/stm32f2xx_ll_usb.c ****     }
 561:Drivers/STM32F2xx_HAL_Driver/Src/stm32f2xx_ll_usb.c ****   }
 562:Drivers/STM32F2xx_HAL_Driver/Src/stm32f2xx_ll_usb.c ****   return HAL_OK;
 563:Drivers/STM32F2xx_HAL_Driver/Src/stm32f2xx_ll_usb.c **** }
 564:Drivers/STM32F2xx_HAL_Driver/Src/stm32f2xx_ll_usb.c **** 
 565:Drivers/STM32F2xx_HAL_Driver/Src/stm32f2xx_ll_usb.c **** /**
 566:Drivers/STM32F2xx_HAL_Driver/Src/stm32f2xx_ll_usb.c ****   * @brief  Activate and configure a dedicated endpoint
 567:Drivers/STM32F2xx_HAL_Driver/Src/stm32f2xx_ll_usb.c ****   * @param  USBx  Selected device
 568:Drivers/STM32F2xx_HAL_Driver/Src/stm32f2xx_ll_usb.c ****   * @param  ep pointer to endpoint structure
 569:Drivers/STM32F2xx_HAL_Driver/Src/stm32f2xx_ll_usb.c ****   * @retval HAL status
 570:Drivers/STM32F2xx_HAL_Driver/Src/stm32f2xx_ll_usb.c ****   */
 571:Drivers/STM32F2xx_HAL_Driver/Src/stm32f2xx_ll_usb.c **** HAL_StatusTypeDef USB_ActivateDedicatedEndpoint(USB_OTG_GlobalTypeDef *USBx, USB_OTG_EPTypeDef *ep)
 572:Drivers/STM32F2xx_HAL_Driver/Src/stm32f2xx_ll_usb.c **** {
 573:Drivers/STM32F2xx_HAL_Driver/Src/stm32f2xx_ll_usb.c ****   uint32_t USBx_BASE = (uint32_t)USBx;
 574:Drivers/STM32F2xx_HAL_Driver/Src/stm32f2xx_ll_usb.c ****   uint32_t epnum = (uint32_t)ep->num;
 575:Drivers/STM32F2xx_HAL_Driver/Src/stm32f2xx_ll_usb.c **** 
 576:Drivers/STM32F2xx_HAL_Driver/Src/stm32f2xx_ll_usb.c ****   /* Read DEPCTLn register */
 577:Drivers/STM32F2xx_HAL_Driver/Src/stm32f2xx_ll_usb.c ****   if (ep->is_in == 1U)
 578:Drivers/STM32F2xx_HAL_Driver/Src/stm32f2xx_ll_usb.c ****   {
 579:Drivers/STM32F2xx_HAL_Driver/Src/stm32f2xx_ll_usb.c ****     if (((USBx_INEP(epnum)->DIEPCTL) & USB_OTG_DIEPCTL_USBAEP) == 0U)
 580:Drivers/STM32F2xx_HAL_Driver/Src/stm32f2xx_ll_usb.c ****     {
 581:Drivers/STM32F2xx_HAL_Driver/Src/stm32f2xx_ll_usb.c ****       USBx_INEP(epnum)->DIEPCTL |= (ep->maxpacket & USB_OTG_DIEPCTL_MPSIZ) |
 582:Drivers/STM32F2xx_HAL_Driver/Src/stm32f2xx_ll_usb.c ****                                    ((uint32_t)ep->type << 18) | (epnum << 22) |
 583:Drivers/STM32F2xx_HAL_Driver/Src/stm32f2xx_ll_usb.c ****                                    USB_OTG_DIEPCTL_SD0PID_SEVNFRM |
 584:Drivers/STM32F2xx_HAL_Driver/Src/stm32f2xx_ll_usb.c ****                                    USB_OTG_DIEPCTL_USBAEP;
 585:Drivers/STM32F2xx_HAL_Driver/Src/stm32f2xx_ll_usb.c ****     }
 586:Drivers/STM32F2xx_HAL_Driver/Src/stm32f2xx_ll_usb.c **** 
 587:Drivers/STM32F2xx_HAL_Driver/Src/stm32f2xx_ll_usb.c ****     USBx_DEVICE->DEACHMSK |= USB_OTG_DAINTMSK_IEPM & (uint32_t)(1UL << (ep->num & EP_ADDR_MSK));
 588:Drivers/STM32F2xx_HAL_Driver/Src/stm32f2xx_ll_usb.c ****   }
 589:Drivers/STM32F2xx_HAL_Driver/Src/stm32f2xx_ll_usb.c ****   else
 590:Drivers/STM32F2xx_HAL_Driver/Src/stm32f2xx_ll_usb.c ****   {
 591:Drivers/STM32F2xx_HAL_Driver/Src/stm32f2xx_ll_usb.c ****     if (((USBx_OUTEP(epnum)->DOEPCTL) & USB_OTG_DOEPCTL_USBAEP) == 0U)
 592:Drivers/STM32F2xx_HAL_Driver/Src/stm32f2xx_ll_usb.c ****     {
 593:Drivers/STM32F2xx_HAL_Driver/Src/stm32f2xx_ll_usb.c ****       USBx_OUTEP(epnum)->DOEPCTL |= (ep->maxpacket & USB_OTG_DOEPCTL_MPSIZ) |
 594:Drivers/STM32F2xx_HAL_Driver/Src/stm32f2xx_ll_usb.c ****                                     ((uint32_t)ep->type << 18) | (epnum << 22) |
 595:Drivers/STM32F2xx_HAL_Driver/Src/stm32f2xx_ll_usb.c ****                                     USB_OTG_DOEPCTL_USBAEP;
 596:Drivers/STM32F2xx_HAL_Driver/Src/stm32f2xx_ll_usb.c ****     }
 597:Drivers/STM32F2xx_HAL_Driver/Src/stm32f2xx_ll_usb.c **** 
 598:Drivers/STM32F2xx_HAL_Driver/Src/stm32f2xx_ll_usb.c ****     USBx_DEVICE->DEACHMSK |= USB_OTG_DAINTMSK_OEPM & ((uint32_t)(1UL << (ep->num & EP_ADDR_MSK)) <<
 599:Drivers/STM32F2xx_HAL_Driver/Src/stm32f2xx_ll_usb.c ****   }
 600:Drivers/STM32F2xx_HAL_Driver/Src/stm32f2xx_ll_usb.c **** 
 601:Drivers/STM32F2xx_HAL_Driver/Src/stm32f2xx_ll_usb.c ****   return HAL_OK;
 602:Drivers/STM32F2xx_HAL_Driver/Src/stm32f2xx_ll_usb.c **** }
ARM GAS  C:\Users\User\AppData\Local\Temp\ccY05dYU.s 			page 12


 603:Drivers/STM32F2xx_HAL_Driver/Src/stm32f2xx_ll_usb.c **** 
 604:Drivers/STM32F2xx_HAL_Driver/Src/stm32f2xx_ll_usb.c **** /**
 605:Drivers/STM32F2xx_HAL_Driver/Src/stm32f2xx_ll_usb.c ****   * @brief  De-activate and de-initialize an endpoint
 606:Drivers/STM32F2xx_HAL_Driver/Src/stm32f2xx_ll_usb.c ****   * @param  USBx  Selected device
 607:Drivers/STM32F2xx_HAL_Driver/Src/stm32f2xx_ll_usb.c ****   * @param  ep pointer to endpoint structure
 608:Drivers/STM32F2xx_HAL_Driver/Src/stm32f2xx_ll_usb.c ****   * @retval HAL status
 609:Drivers/STM32F2xx_HAL_Driver/Src/stm32f2xx_ll_usb.c ****   */
 610:Drivers/STM32F2xx_HAL_Driver/Src/stm32f2xx_ll_usb.c **** HAL_StatusTypeDef USB_DeactivateEndpoint(USB_OTG_GlobalTypeDef *USBx, USB_OTG_EPTypeDef *ep)
 611:Drivers/STM32F2xx_HAL_Driver/Src/stm32f2xx_ll_usb.c **** {
 612:Drivers/STM32F2xx_HAL_Driver/Src/stm32f2xx_ll_usb.c ****   uint32_t USBx_BASE = (uint32_t)USBx;
 613:Drivers/STM32F2xx_HAL_Driver/Src/stm32f2xx_ll_usb.c ****   uint32_t epnum = (uint32_t)ep->num;
 614:Drivers/STM32F2xx_HAL_Driver/Src/stm32f2xx_ll_usb.c **** 
 615:Drivers/STM32F2xx_HAL_Driver/Src/stm32f2xx_ll_usb.c ****   /* Read DEPCTLn register */
 616:Drivers/STM32F2xx_HAL_Driver/Src/stm32f2xx_ll_usb.c ****   if (ep->is_in == 1U)
 617:Drivers/STM32F2xx_HAL_Driver/Src/stm32f2xx_ll_usb.c ****   {
 618:Drivers/STM32F2xx_HAL_Driver/Src/stm32f2xx_ll_usb.c ****     USBx_DEVICE->DEACHMSK &= ~(USB_OTG_DAINTMSK_IEPM & (uint32_t)(1UL << (ep->num & EP_ADDR_MSK)));
 619:Drivers/STM32F2xx_HAL_Driver/Src/stm32f2xx_ll_usb.c ****     USBx_DEVICE->DAINTMSK &= ~(USB_OTG_DAINTMSK_IEPM & (uint32_t)(1UL << (ep->num & EP_ADDR_MSK)));
 620:Drivers/STM32F2xx_HAL_Driver/Src/stm32f2xx_ll_usb.c ****     USBx_INEP(epnum)->DIEPCTL &= ~(USB_OTG_DIEPCTL_USBAEP |
 621:Drivers/STM32F2xx_HAL_Driver/Src/stm32f2xx_ll_usb.c ****                                    USB_OTG_DIEPCTL_MPSIZ |
 622:Drivers/STM32F2xx_HAL_Driver/Src/stm32f2xx_ll_usb.c ****                                    USB_OTG_DIEPCTL_TXFNUM |
 623:Drivers/STM32F2xx_HAL_Driver/Src/stm32f2xx_ll_usb.c ****                                    USB_OTG_DIEPCTL_SD0PID_SEVNFRM |
 624:Drivers/STM32F2xx_HAL_Driver/Src/stm32f2xx_ll_usb.c ****                                    USB_OTG_DIEPCTL_EPTYP);
 625:Drivers/STM32F2xx_HAL_Driver/Src/stm32f2xx_ll_usb.c ****   }
 626:Drivers/STM32F2xx_HAL_Driver/Src/stm32f2xx_ll_usb.c ****   else
 627:Drivers/STM32F2xx_HAL_Driver/Src/stm32f2xx_ll_usb.c ****   {
 628:Drivers/STM32F2xx_HAL_Driver/Src/stm32f2xx_ll_usb.c ****     USBx_DEVICE->DEACHMSK &= ~(USB_OTG_DAINTMSK_OEPM & ((uint32_t)(1UL << (ep->num & EP_ADDR_MSK)) 
 629:Drivers/STM32F2xx_HAL_Driver/Src/stm32f2xx_ll_usb.c ****     USBx_DEVICE->DAINTMSK &= ~(USB_OTG_DAINTMSK_OEPM & ((uint32_t)(1UL << (ep->num & EP_ADDR_MSK)) 
 630:Drivers/STM32F2xx_HAL_Driver/Src/stm32f2xx_ll_usb.c ****     USBx_OUTEP(epnum)->DOEPCTL &= ~(USB_OTG_DOEPCTL_USBAEP |
 631:Drivers/STM32F2xx_HAL_Driver/Src/stm32f2xx_ll_usb.c ****                                     USB_OTG_DOEPCTL_MPSIZ |
 632:Drivers/STM32F2xx_HAL_Driver/Src/stm32f2xx_ll_usb.c ****                                     USB_OTG_DOEPCTL_SD0PID_SEVNFRM |
 633:Drivers/STM32F2xx_HAL_Driver/Src/stm32f2xx_ll_usb.c ****                                     USB_OTG_DOEPCTL_EPTYP);
 634:Drivers/STM32F2xx_HAL_Driver/Src/stm32f2xx_ll_usb.c ****   }
 635:Drivers/STM32F2xx_HAL_Driver/Src/stm32f2xx_ll_usb.c **** 
 636:Drivers/STM32F2xx_HAL_Driver/Src/stm32f2xx_ll_usb.c ****   return HAL_OK;
 637:Drivers/STM32F2xx_HAL_Driver/Src/stm32f2xx_ll_usb.c **** }
 638:Drivers/STM32F2xx_HAL_Driver/Src/stm32f2xx_ll_usb.c **** 
 639:Drivers/STM32F2xx_HAL_Driver/Src/stm32f2xx_ll_usb.c **** /**
 640:Drivers/STM32F2xx_HAL_Driver/Src/stm32f2xx_ll_usb.c ****   * @brief  De-activate and de-initialize a dedicated endpoint
 641:Drivers/STM32F2xx_HAL_Driver/Src/stm32f2xx_ll_usb.c ****   * @param  USBx  Selected device
 642:Drivers/STM32F2xx_HAL_Driver/Src/stm32f2xx_ll_usb.c ****   * @param  ep pointer to endpoint structure
 643:Drivers/STM32F2xx_HAL_Driver/Src/stm32f2xx_ll_usb.c ****   * @retval HAL status
 644:Drivers/STM32F2xx_HAL_Driver/Src/stm32f2xx_ll_usb.c ****   */
 645:Drivers/STM32F2xx_HAL_Driver/Src/stm32f2xx_ll_usb.c **** HAL_StatusTypeDef USB_DeactivateDedicatedEndpoint(USB_OTG_GlobalTypeDef *USBx, USB_OTG_EPTypeDef *e
 646:Drivers/STM32F2xx_HAL_Driver/Src/stm32f2xx_ll_usb.c **** {
 647:Drivers/STM32F2xx_HAL_Driver/Src/stm32f2xx_ll_usb.c ****   uint32_t USBx_BASE = (uint32_t)USBx;
 648:Drivers/STM32F2xx_HAL_Driver/Src/stm32f2xx_ll_usb.c ****   uint32_t epnum = (uint32_t)ep->num;
 649:Drivers/STM32F2xx_HAL_Driver/Src/stm32f2xx_ll_usb.c **** 
 650:Drivers/STM32F2xx_HAL_Driver/Src/stm32f2xx_ll_usb.c ****   /* Read DEPCTLn register */
 651:Drivers/STM32F2xx_HAL_Driver/Src/stm32f2xx_ll_usb.c ****   if (ep->is_in == 1U)
 652:Drivers/STM32F2xx_HAL_Driver/Src/stm32f2xx_ll_usb.c ****   {
 653:Drivers/STM32F2xx_HAL_Driver/Src/stm32f2xx_ll_usb.c ****     USBx_INEP(epnum)->DIEPCTL &= ~ USB_OTG_DIEPCTL_USBAEP;
 654:Drivers/STM32F2xx_HAL_Driver/Src/stm32f2xx_ll_usb.c ****     USBx_DEVICE->DAINTMSK &= ~(USB_OTG_DAINTMSK_IEPM & (uint32_t)(1UL << (ep->num & EP_ADDR_MSK)));
 655:Drivers/STM32F2xx_HAL_Driver/Src/stm32f2xx_ll_usb.c ****   }
 656:Drivers/STM32F2xx_HAL_Driver/Src/stm32f2xx_ll_usb.c ****   else
 657:Drivers/STM32F2xx_HAL_Driver/Src/stm32f2xx_ll_usb.c ****   {
 658:Drivers/STM32F2xx_HAL_Driver/Src/stm32f2xx_ll_usb.c ****     USBx_OUTEP(epnum)->DOEPCTL &= ~USB_OTG_DOEPCTL_USBAEP;
 659:Drivers/STM32F2xx_HAL_Driver/Src/stm32f2xx_ll_usb.c ****     USBx_DEVICE->DAINTMSK &= ~(USB_OTG_DAINTMSK_OEPM & ((uint32_t)(1UL << (ep->num & EP_ADDR_MSK)) 
ARM GAS  C:\Users\User\AppData\Local\Temp\ccY05dYU.s 			page 13


 660:Drivers/STM32F2xx_HAL_Driver/Src/stm32f2xx_ll_usb.c ****   }
 661:Drivers/STM32F2xx_HAL_Driver/Src/stm32f2xx_ll_usb.c **** 
 662:Drivers/STM32F2xx_HAL_Driver/Src/stm32f2xx_ll_usb.c ****   return HAL_OK;
 663:Drivers/STM32F2xx_HAL_Driver/Src/stm32f2xx_ll_usb.c **** }
 664:Drivers/STM32F2xx_HAL_Driver/Src/stm32f2xx_ll_usb.c **** 
 665:Drivers/STM32F2xx_HAL_Driver/Src/stm32f2xx_ll_usb.c **** /**
 666:Drivers/STM32F2xx_HAL_Driver/Src/stm32f2xx_ll_usb.c ****   * @brief  USB_EPStartXfer : setup and starts a transfer over an EP
 667:Drivers/STM32F2xx_HAL_Driver/Src/stm32f2xx_ll_usb.c ****   * @param  USBx  Selected device
 668:Drivers/STM32F2xx_HAL_Driver/Src/stm32f2xx_ll_usb.c ****   * @param  ep pointer to endpoint structure
 669:Drivers/STM32F2xx_HAL_Driver/Src/stm32f2xx_ll_usb.c ****   * @param  dma USB dma enabled or disabled
 670:Drivers/STM32F2xx_HAL_Driver/Src/stm32f2xx_ll_usb.c ****   *          This parameter can be one of these values:
 671:Drivers/STM32F2xx_HAL_Driver/Src/stm32f2xx_ll_usb.c ****   *           0 : DMA feature not used
 672:Drivers/STM32F2xx_HAL_Driver/Src/stm32f2xx_ll_usb.c ****   *           1 : DMA feature used
 673:Drivers/STM32F2xx_HAL_Driver/Src/stm32f2xx_ll_usb.c ****   * @retval HAL status
 674:Drivers/STM32F2xx_HAL_Driver/Src/stm32f2xx_ll_usb.c ****   */
 675:Drivers/STM32F2xx_HAL_Driver/Src/stm32f2xx_ll_usb.c **** HAL_StatusTypeDef USB_EPStartXfer(USB_OTG_GlobalTypeDef *USBx, USB_OTG_EPTypeDef *ep, uint8_t dma)
 676:Drivers/STM32F2xx_HAL_Driver/Src/stm32f2xx_ll_usb.c **** {
 677:Drivers/STM32F2xx_HAL_Driver/Src/stm32f2xx_ll_usb.c ****   uint32_t USBx_BASE = (uint32_t)USBx;
 678:Drivers/STM32F2xx_HAL_Driver/Src/stm32f2xx_ll_usb.c ****   uint32_t epnum = (uint32_t)ep->num;
 679:Drivers/STM32F2xx_HAL_Driver/Src/stm32f2xx_ll_usb.c ****   uint16_t pktcnt;
 680:Drivers/STM32F2xx_HAL_Driver/Src/stm32f2xx_ll_usb.c **** 
 681:Drivers/STM32F2xx_HAL_Driver/Src/stm32f2xx_ll_usb.c ****   /* IN endpoint */
 682:Drivers/STM32F2xx_HAL_Driver/Src/stm32f2xx_ll_usb.c ****   if (ep->is_in == 1U)
 683:Drivers/STM32F2xx_HAL_Driver/Src/stm32f2xx_ll_usb.c ****   {
 684:Drivers/STM32F2xx_HAL_Driver/Src/stm32f2xx_ll_usb.c ****     /* Zero Length Packet? */
 685:Drivers/STM32F2xx_HAL_Driver/Src/stm32f2xx_ll_usb.c ****     if (ep->xfer_len == 0U)
 686:Drivers/STM32F2xx_HAL_Driver/Src/stm32f2xx_ll_usb.c ****     {
 687:Drivers/STM32F2xx_HAL_Driver/Src/stm32f2xx_ll_usb.c ****       USBx_INEP(epnum)->DIEPTSIZ &= ~(USB_OTG_DIEPTSIZ_PKTCNT);
 688:Drivers/STM32F2xx_HAL_Driver/Src/stm32f2xx_ll_usb.c ****       USBx_INEP(epnum)->DIEPTSIZ |= (USB_OTG_DIEPTSIZ_PKTCNT & (1U << 19));
 689:Drivers/STM32F2xx_HAL_Driver/Src/stm32f2xx_ll_usb.c ****       USBx_INEP(epnum)->DIEPTSIZ &= ~(USB_OTG_DIEPTSIZ_XFRSIZ);
 690:Drivers/STM32F2xx_HAL_Driver/Src/stm32f2xx_ll_usb.c ****     }
 691:Drivers/STM32F2xx_HAL_Driver/Src/stm32f2xx_ll_usb.c ****     else
 692:Drivers/STM32F2xx_HAL_Driver/Src/stm32f2xx_ll_usb.c ****     {
 693:Drivers/STM32F2xx_HAL_Driver/Src/stm32f2xx_ll_usb.c ****       /* Program the transfer size and packet count
 694:Drivers/STM32F2xx_HAL_Driver/Src/stm32f2xx_ll_usb.c ****       * as follows: xfersize = N * maxpacket +
 695:Drivers/STM32F2xx_HAL_Driver/Src/stm32f2xx_ll_usb.c ****       * short_packet pktcnt = N + (short_packet
 696:Drivers/STM32F2xx_HAL_Driver/Src/stm32f2xx_ll_usb.c ****       * exist ? 1 : 0)
 697:Drivers/STM32F2xx_HAL_Driver/Src/stm32f2xx_ll_usb.c ****       */
 698:Drivers/STM32F2xx_HAL_Driver/Src/stm32f2xx_ll_usb.c ****       USBx_INEP(epnum)->DIEPTSIZ &= ~(USB_OTG_DIEPTSIZ_XFRSIZ);
 699:Drivers/STM32F2xx_HAL_Driver/Src/stm32f2xx_ll_usb.c ****       USBx_INEP(epnum)->DIEPTSIZ &= ~(USB_OTG_DIEPTSIZ_PKTCNT);
 700:Drivers/STM32F2xx_HAL_Driver/Src/stm32f2xx_ll_usb.c ****       USBx_INEP(epnum)->DIEPTSIZ |= (USB_OTG_DIEPTSIZ_PKTCNT & (((ep->xfer_len + ep->maxpacket - 1U
 701:Drivers/STM32F2xx_HAL_Driver/Src/stm32f2xx_ll_usb.c ****       USBx_INEP(epnum)->DIEPTSIZ |= (USB_OTG_DIEPTSIZ_XFRSIZ & ep->xfer_len);
 702:Drivers/STM32F2xx_HAL_Driver/Src/stm32f2xx_ll_usb.c **** 
 703:Drivers/STM32F2xx_HAL_Driver/Src/stm32f2xx_ll_usb.c ****       if (ep->type == EP_TYPE_ISOC)
 704:Drivers/STM32F2xx_HAL_Driver/Src/stm32f2xx_ll_usb.c ****       {
 705:Drivers/STM32F2xx_HAL_Driver/Src/stm32f2xx_ll_usb.c ****         USBx_INEP(epnum)->DIEPTSIZ &= ~(USB_OTG_DIEPTSIZ_MULCNT);
 706:Drivers/STM32F2xx_HAL_Driver/Src/stm32f2xx_ll_usb.c ****         USBx_INEP(epnum)->DIEPTSIZ |= (USB_OTG_DIEPTSIZ_MULCNT & (1U << 29));
 707:Drivers/STM32F2xx_HAL_Driver/Src/stm32f2xx_ll_usb.c ****       }
 708:Drivers/STM32F2xx_HAL_Driver/Src/stm32f2xx_ll_usb.c ****     }
 709:Drivers/STM32F2xx_HAL_Driver/Src/stm32f2xx_ll_usb.c **** 
 710:Drivers/STM32F2xx_HAL_Driver/Src/stm32f2xx_ll_usb.c ****     if (dma == 1U)
 711:Drivers/STM32F2xx_HAL_Driver/Src/stm32f2xx_ll_usb.c ****     {
 712:Drivers/STM32F2xx_HAL_Driver/Src/stm32f2xx_ll_usb.c ****       if ((uint32_t)ep->dma_addr != 0U)
 713:Drivers/STM32F2xx_HAL_Driver/Src/stm32f2xx_ll_usb.c ****       {
 714:Drivers/STM32F2xx_HAL_Driver/Src/stm32f2xx_ll_usb.c ****         USBx_INEP(epnum)->DIEPDMA = (uint32_t)(ep->dma_addr);
 715:Drivers/STM32F2xx_HAL_Driver/Src/stm32f2xx_ll_usb.c ****       }
 716:Drivers/STM32F2xx_HAL_Driver/Src/stm32f2xx_ll_usb.c **** 
ARM GAS  C:\Users\User\AppData\Local\Temp\ccY05dYU.s 			page 14


 717:Drivers/STM32F2xx_HAL_Driver/Src/stm32f2xx_ll_usb.c ****       if (ep->type == EP_TYPE_ISOC)
 718:Drivers/STM32F2xx_HAL_Driver/Src/stm32f2xx_ll_usb.c ****       {
 719:Drivers/STM32F2xx_HAL_Driver/Src/stm32f2xx_ll_usb.c ****         if ((USBx_DEVICE->DSTS & (1U << 8)) == 0U)
 720:Drivers/STM32F2xx_HAL_Driver/Src/stm32f2xx_ll_usb.c ****         {
 721:Drivers/STM32F2xx_HAL_Driver/Src/stm32f2xx_ll_usb.c ****           USBx_INEP(epnum)->DIEPCTL |= USB_OTG_DIEPCTL_SODDFRM;
 722:Drivers/STM32F2xx_HAL_Driver/Src/stm32f2xx_ll_usb.c ****         }
 723:Drivers/STM32F2xx_HAL_Driver/Src/stm32f2xx_ll_usb.c ****         else
 724:Drivers/STM32F2xx_HAL_Driver/Src/stm32f2xx_ll_usb.c ****         {
 725:Drivers/STM32F2xx_HAL_Driver/Src/stm32f2xx_ll_usb.c ****           USBx_INEP(epnum)->DIEPCTL |= USB_OTG_DIEPCTL_SD0PID_SEVNFRM;
 726:Drivers/STM32F2xx_HAL_Driver/Src/stm32f2xx_ll_usb.c ****         }
 727:Drivers/STM32F2xx_HAL_Driver/Src/stm32f2xx_ll_usb.c ****       }
 728:Drivers/STM32F2xx_HAL_Driver/Src/stm32f2xx_ll_usb.c **** 
 729:Drivers/STM32F2xx_HAL_Driver/Src/stm32f2xx_ll_usb.c ****       /* EP enable, IN data in FIFO */
 730:Drivers/STM32F2xx_HAL_Driver/Src/stm32f2xx_ll_usb.c ****       USBx_INEP(epnum)->DIEPCTL |= (USB_OTG_DIEPCTL_CNAK | USB_OTG_DIEPCTL_EPENA);
 731:Drivers/STM32F2xx_HAL_Driver/Src/stm32f2xx_ll_usb.c ****     }
 732:Drivers/STM32F2xx_HAL_Driver/Src/stm32f2xx_ll_usb.c ****     else
 733:Drivers/STM32F2xx_HAL_Driver/Src/stm32f2xx_ll_usb.c ****     {
 734:Drivers/STM32F2xx_HAL_Driver/Src/stm32f2xx_ll_usb.c ****       /* EP enable, IN data in FIFO */
 735:Drivers/STM32F2xx_HAL_Driver/Src/stm32f2xx_ll_usb.c ****       USBx_INEP(epnum)->DIEPCTL |= (USB_OTG_DIEPCTL_CNAK | USB_OTG_DIEPCTL_EPENA);
 736:Drivers/STM32F2xx_HAL_Driver/Src/stm32f2xx_ll_usb.c **** 
 737:Drivers/STM32F2xx_HAL_Driver/Src/stm32f2xx_ll_usb.c ****       if (ep->type != EP_TYPE_ISOC)
 738:Drivers/STM32F2xx_HAL_Driver/Src/stm32f2xx_ll_usb.c ****       {
 739:Drivers/STM32F2xx_HAL_Driver/Src/stm32f2xx_ll_usb.c ****         /* Enable the Tx FIFO Empty Interrupt for this EP */
 740:Drivers/STM32F2xx_HAL_Driver/Src/stm32f2xx_ll_usb.c ****         if (ep->xfer_len > 0U)
 741:Drivers/STM32F2xx_HAL_Driver/Src/stm32f2xx_ll_usb.c ****         {
 742:Drivers/STM32F2xx_HAL_Driver/Src/stm32f2xx_ll_usb.c ****           USBx_DEVICE->DIEPEMPMSK |= 1UL << (ep->num & EP_ADDR_MSK);
 743:Drivers/STM32F2xx_HAL_Driver/Src/stm32f2xx_ll_usb.c ****         }
 744:Drivers/STM32F2xx_HAL_Driver/Src/stm32f2xx_ll_usb.c ****       }
 745:Drivers/STM32F2xx_HAL_Driver/Src/stm32f2xx_ll_usb.c ****       else
 746:Drivers/STM32F2xx_HAL_Driver/Src/stm32f2xx_ll_usb.c ****       {
 747:Drivers/STM32F2xx_HAL_Driver/Src/stm32f2xx_ll_usb.c ****         if ((USBx_DEVICE->DSTS & (1U << 8)) == 0U)
 748:Drivers/STM32F2xx_HAL_Driver/Src/stm32f2xx_ll_usb.c ****         {
 749:Drivers/STM32F2xx_HAL_Driver/Src/stm32f2xx_ll_usb.c ****           USBx_INEP(epnum)->DIEPCTL |= USB_OTG_DIEPCTL_SODDFRM;
 750:Drivers/STM32F2xx_HAL_Driver/Src/stm32f2xx_ll_usb.c ****         }
 751:Drivers/STM32F2xx_HAL_Driver/Src/stm32f2xx_ll_usb.c ****         else
 752:Drivers/STM32F2xx_HAL_Driver/Src/stm32f2xx_ll_usb.c ****         {
 753:Drivers/STM32F2xx_HAL_Driver/Src/stm32f2xx_ll_usb.c ****           USBx_INEP(epnum)->DIEPCTL |= USB_OTG_DIEPCTL_SD0PID_SEVNFRM;
 754:Drivers/STM32F2xx_HAL_Driver/Src/stm32f2xx_ll_usb.c ****         }
 755:Drivers/STM32F2xx_HAL_Driver/Src/stm32f2xx_ll_usb.c **** 
 756:Drivers/STM32F2xx_HAL_Driver/Src/stm32f2xx_ll_usb.c ****         (void)USB_WritePacket(USBx, ep->xfer_buff, ep->num, (uint16_t)ep->xfer_len, dma);
 757:Drivers/STM32F2xx_HAL_Driver/Src/stm32f2xx_ll_usb.c ****       }
 758:Drivers/STM32F2xx_HAL_Driver/Src/stm32f2xx_ll_usb.c ****     }
 759:Drivers/STM32F2xx_HAL_Driver/Src/stm32f2xx_ll_usb.c ****   }
 760:Drivers/STM32F2xx_HAL_Driver/Src/stm32f2xx_ll_usb.c ****   else /* OUT endpoint */
 761:Drivers/STM32F2xx_HAL_Driver/Src/stm32f2xx_ll_usb.c ****   {
 762:Drivers/STM32F2xx_HAL_Driver/Src/stm32f2xx_ll_usb.c ****     /* Program the transfer size and packet count as follows:
 763:Drivers/STM32F2xx_HAL_Driver/Src/stm32f2xx_ll_usb.c ****     * pktcnt = N
 764:Drivers/STM32F2xx_HAL_Driver/Src/stm32f2xx_ll_usb.c ****     * xfersize = N * maxpacket
 765:Drivers/STM32F2xx_HAL_Driver/Src/stm32f2xx_ll_usb.c ****     */
 766:Drivers/STM32F2xx_HAL_Driver/Src/stm32f2xx_ll_usb.c ****     USBx_OUTEP(epnum)->DOEPTSIZ &= ~(USB_OTG_DOEPTSIZ_XFRSIZ);
 767:Drivers/STM32F2xx_HAL_Driver/Src/stm32f2xx_ll_usb.c ****     USBx_OUTEP(epnum)->DOEPTSIZ &= ~(USB_OTG_DOEPTSIZ_PKTCNT);
 768:Drivers/STM32F2xx_HAL_Driver/Src/stm32f2xx_ll_usb.c **** 
 769:Drivers/STM32F2xx_HAL_Driver/Src/stm32f2xx_ll_usb.c ****     if (ep->xfer_len == 0U)
 770:Drivers/STM32F2xx_HAL_Driver/Src/stm32f2xx_ll_usb.c ****     {
 771:Drivers/STM32F2xx_HAL_Driver/Src/stm32f2xx_ll_usb.c ****       USBx_OUTEP(epnum)->DOEPTSIZ |= (USB_OTG_DOEPTSIZ_XFRSIZ & ep->maxpacket);
 772:Drivers/STM32F2xx_HAL_Driver/Src/stm32f2xx_ll_usb.c ****       USBx_OUTEP(epnum)->DOEPTSIZ |= (USB_OTG_DOEPTSIZ_PKTCNT & (1U << 19));
 773:Drivers/STM32F2xx_HAL_Driver/Src/stm32f2xx_ll_usb.c ****     }
ARM GAS  C:\Users\User\AppData\Local\Temp\ccY05dYU.s 			page 15


 774:Drivers/STM32F2xx_HAL_Driver/Src/stm32f2xx_ll_usb.c ****     else
 775:Drivers/STM32F2xx_HAL_Driver/Src/stm32f2xx_ll_usb.c ****     {
 776:Drivers/STM32F2xx_HAL_Driver/Src/stm32f2xx_ll_usb.c ****       pktcnt = (uint16_t)((ep->xfer_len + ep->maxpacket - 1U) / ep->maxpacket);
 777:Drivers/STM32F2xx_HAL_Driver/Src/stm32f2xx_ll_usb.c ****       USBx_OUTEP(epnum)->DOEPTSIZ |= USB_OTG_DOEPTSIZ_PKTCNT & ((uint32_t)pktcnt << 19);
 778:Drivers/STM32F2xx_HAL_Driver/Src/stm32f2xx_ll_usb.c ****       USBx_OUTEP(epnum)->DOEPTSIZ |= USB_OTG_DOEPTSIZ_XFRSIZ & (ep->maxpacket * pktcnt);
 779:Drivers/STM32F2xx_HAL_Driver/Src/stm32f2xx_ll_usb.c ****     }
 780:Drivers/STM32F2xx_HAL_Driver/Src/stm32f2xx_ll_usb.c **** 
 781:Drivers/STM32F2xx_HAL_Driver/Src/stm32f2xx_ll_usb.c ****     if (dma == 1U)
 782:Drivers/STM32F2xx_HAL_Driver/Src/stm32f2xx_ll_usb.c ****     {
 783:Drivers/STM32F2xx_HAL_Driver/Src/stm32f2xx_ll_usb.c ****       if ((uint32_t)ep->xfer_buff != 0U)
 784:Drivers/STM32F2xx_HAL_Driver/Src/stm32f2xx_ll_usb.c ****       {
 785:Drivers/STM32F2xx_HAL_Driver/Src/stm32f2xx_ll_usb.c ****         USBx_OUTEP(epnum)->DOEPDMA = (uint32_t)(ep->xfer_buff);
 786:Drivers/STM32F2xx_HAL_Driver/Src/stm32f2xx_ll_usb.c ****       }
 787:Drivers/STM32F2xx_HAL_Driver/Src/stm32f2xx_ll_usb.c ****     }
 788:Drivers/STM32F2xx_HAL_Driver/Src/stm32f2xx_ll_usb.c **** 
 789:Drivers/STM32F2xx_HAL_Driver/Src/stm32f2xx_ll_usb.c ****     if (ep->type == EP_TYPE_ISOC)
 790:Drivers/STM32F2xx_HAL_Driver/Src/stm32f2xx_ll_usb.c ****     {
 791:Drivers/STM32F2xx_HAL_Driver/Src/stm32f2xx_ll_usb.c ****       if ((USBx_DEVICE->DSTS & (1U << 8)) == 0U)
 792:Drivers/STM32F2xx_HAL_Driver/Src/stm32f2xx_ll_usb.c ****       {
 793:Drivers/STM32F2xx_HAL_Driver/Src/stm32f2xx_ll_usb.c ****         USBx_OUTEP(epnum)->DOEPCTL |= USB_OTG_DOEPCTL_SODDFRM;
 794:Drivers/STM32F2xx_HAL_Driver/Src/stm32f2xx_ll_usb.c ****       }
 795:Drivers/STM32F2xx_HAL_Driver/Src/stm32f2xx_ll_usb.c ****       else
 796:Drivers/STM32F2xx_HAL_Driver/Src/stm32f2xx_ll_usb.c ****       {
 797:Drivers/STM32F2xx_HAL_Driver/Src/stm32f2xx_ll_usb.c ****         USBx_OUTEP(epnum)->DOEPCTL |= USB_OTG_DOEPCTL_SD0PID_SEVNFRM;
 798:Drivers/STM32F2xx_HAL_Driver/Src/stm32f2xx_ll_usb.c ****       }
 799:Drivers/STM32F2xx_HAL_Driver/Src/stm32f2xx_ll_usb.c ****     }
 800:Drivers/STM32F2xx_HAL_Driver/Src/stm32f2xx_ll_usb.c ****     /* EP enable */
 801:Drivers/STM32F2xx_HAL_Driver/Src/stm32f2xx_ll_usb.c ****     USBx_OUTEP(epnum)->DOEPCTL |= (USB_OTG_DOEPCTL_CNAK | USB_OTG_DOEPCTL_EPENA);
 802:Drivers/STM32F2xx_HAL_Driver/Src/stm32f2xx_ll_usb.c ****   }
 803:Drivers/STM32F2xx_HAL_Driver/Src/stm32f2xx_ll_usb.c **** 
 804:Drivers/STM32F2xx_HAL_Driver/Src/stm32f2xx_ll_usb.c ****   return HAL_OK;
 805:Drivers/STM32F2xx_HAL_Driver/Src/stm32f2xx_ll_usb.c **** }
 806:Drivers/STM32F2xx_HAL_Driver/Src/stm32f2xx_ll_usb.c **** 
 807:Drivers/STM32F2xx_HAL_Driver/Src/stm32f2xx_ll_usb.c **** /**
 808:Drivers/STM32F2xx_HAL_Driver/Src/stm32f2xx_ll_usb.c ****   * @brief  USB_EP0StartXfer : setup and starts a transfer over the EP  0
 809:Drivers/STM32F2xx_HAL_Driver/Src/stm32f2xx_ll_usb.c ****   * @param  USBx  Selected device
 810:Drivers/STM32F2xx_HAL_Driver/Src/stm32f2xx_ll_usb.c ****   * @param  ep pointer to endpoint structure
 811:Drivers/STM32F2xx_HAL_Driver/Src/stm32f2xx_ll_usb.c ****   * @param  dma USB dma enabled or disabled
 812:Drivers/STM32F2xx_HAL_Driver/Src/stm32f2xx_ll_usb.c ****   *          This parameter can be one of these values:
 813:Drivers/STM32F2xx_HAL_Driver/Src/stm32f2xx_ll_usb.c ****   *           0 : DMA feature not used
 814:Drivers/STM32F2xx_HAL_Driver/Src/stm32f2xx_ll_usb.c ****   *           1 : DMA feature used
 815:Drivers/STM32F2xx_HAL_Driver/Src/stm32f2xx_ll_usb.c ****   * @retval HAL status
 816:Drivers/STM32F2xx_HAL_Driver/Src/stm32f2xx_ll_usb.c ****   */
 817:Drivers/STM32F2xx_HAL_Driver/Src/stm32f2xx_ll_usb.c **** HAL_StatusTypeDef USB_EP0StartXfer(USB_OTG_GlobalTypeDef *USBx, USB_OTG_EPTypeDef *ep, uint8_t dma)
 818:Drivers/STM32F2xx_HAL_Driver/Src/stm32f2xx_ll_usb.c **** {
 819:Drivers/STM32F2xx_HAL_Driver/Src/stm32f2xx_ll_usb.c ****   uint32_t USBx_BASE = (uint32_t)USBx;
 820:Drivers/STM32F2xx_HAL_Driver/Src/stm32f2xx_ll_usb.c ****   uint32_t epnum = (uint32_t)ep->num;
 821:Drivers/STM32F2xx_HAL_Driver/Src/stm32f2xx_ll_usb.c **** 
 822:Drivers/STM32F2xx_HAL_Driver/Src/stm32f2xx_ll_usb.c ****   /* IN endpoint */
 823:Drivers/STM32F2xx_HAL_Driver/Src/stm32f2xx_ll_usb.c ****   if (ep->is_in == 1U)
 824:Drivers/STM32F2xx_HAL_Driver/Src/stm32f2xx_ll_usb.c ****   {
 825:Drivers/STM32F2xx_HAL_Driver/Src/stm32f2xx_ll_usb.c ****     /* Zero Length Packet? */
 826:Drivers/STM32F2xx_HAL_Driver/Src/stm32f2xx_ll_usb.c ****     if (ep->xfer_len == 0U)
 827:Drivers/STM32F2xx_HAL_Driver/Src/stm32f2xx_ll_usb.c ****     {
 828:Drivers/STM32F2xx_HAL_Driver/Src/stm32f2xx_ll_usb.c ****       USBx_INEP(epnum)->DIEPTSIZ &= ~(USB_OTG_DIEPTSIZ_PKTCNT);
 829:Drivers/STM32F2xx_HAL_Driver/Src/stm32f2xx_ll_usb.c ****       USBx_INEP(epnum)->DIEPTSIZ |= (USB_OTG_DIEPTSIZ_PKTCNT & (1U << 19));
 830:Drivers/STM32F2xx_HAL_Driver/Src/stm32f2xx_ll_usb.c ****       USBx_INEP(epnum)->DIEPTSIZ &= ~(USB_OTG_DIEPTSIZ_XFRSIZ);
ARM GAS  C:\Users\User\AppData\Local\Temp\ccY05dYU.s 			page 16


 831:Drivers/STM32F2xx_HAL_Driver/Src/stm32f2xx_ll_usb.c ****     }
 832:Drivers/STM32F2xx_HAL_Driver/Src/stm32f2xx_ll_usb.c ****     else
 833:Drivers/STM32F2xx_HAL_Driver/Src/stm32f2xx_ll_usb.c ****     {
 834:Drivers/STM32F2xx_HAL_Driver/Src/stm32f2xx_ll_usb.c ****       /* Program the transfer size and packet count
 835:Drivers/STM32F2xx_HAL_Driver/Src/stm32f2xx_ll_usb.c ****       * as follows: xfersize = N * maxpacket +
 836:Drivers/STM32F2xx_HAL_Driver/Src/stm32f2xx_ll_usb.c ****       * short_packet pktcnt = N + (short_packet
 837:Drivers/STM32F2xx_HAL_Driver/Src/stm32f2xx_ll_usb.c ****       * exist ? 1 : 0)
 838:Drivers/STM32F2xx_HAL_Driver/Src/stm32f2xx_ll_usb.c ****       */
 839:Drivers/STM32F2xx_HAL_Driver/Src/stm32f2xx_ll_usb.c ****       USBx_INEP(epnum)->DIEPTSIZ &= ~(USB_OTG_DIEPTSIZ_XFRSIZ);
 840:Drivers/STM32F2xx_HAL_Driver/Src/stm32f2xx_ll_usb.c ****       USBx_INEP(epnum)->DIEPTSIZ &= ~(USB_OTG_DIEPTSIZ_PKTCNT);
 841:Drivers/STM32F2xx_HAL_Driver/Src/stm32f2xx_ll_usb.c **** 
 842:Drivers/STM32F2xx_HAL_Driver/Src/stm32f2xx_ll_usb.c ****       if (ep->xfer_len > ep->maxpacket)
 843:Drivers/STM32F2xx_HAL_Driver/Src/stm32f2xx_ll_usb.c ****       {
 844:Drivers/STM32F2xx_HAL_Driver/Src/stm32f2xx_ll_usb.c ****         ep->xfer_len = ep->maxpacket;
 845:Drivers/STM32F2xx_HAL_Driver/Src/stm32f2xx_ll_usb.c ****       }
 846:Drivers/STM32F2xx_HAL_Driver/Src/stm32f2xx_ll_usb.c ****       USBx_INEP(epnum)->DIEPTSIZ |= (USB_OTG_DIEPTSIZ_PKTCNT & (1U << 19));
 847:Drivers/STM32F2xx_HAL_Driver/Src/stm32f2xx_ll_usb.c ****       USBx_INEP(epnum)->DIEPTSIZ |= (USB_OTG_DIEPTSIZ_XFRSIZ & ep->xfer_len);
 848:Drivers/STM32F2xx_HAL_Driver/Src/stm32f2xx_ll_usb.c ****     }
 849:Drivers/STM32F2xx_HAL_Driver/Src/stm32f2xx_ll_usb.c **** 
 850:Drivers/STM32F2xx_HAL_Driver/Src/stm32f2xx_ll_usb.c ****     if (dma == 1U)
 851:Drivers/STM32F2xx_HAL_Driver/Src/stm32f2xx_ll_usb.c ****     {
 852:Drivers/STM32F2xx_HAL_Driver/Src/stm32f2xx_ll_usb.c ****       if ((uint32_t)ep->dma_addr != 0U)
 853:Drivers/STM32F2xx_HAL_Driver/Src/stm32f2xx_ll_usb.c ****       {
 854:Drivers/STM32F2xx_HAL_Driver/Src/stm32f2xx_ll_usb.c ****         USBx_INEP(epnum)->DIEPDMA = (uint32_t)(ep->dma_addr);
 855:Drivers/STM32F2xx_HAL_Driver/Src/stm32f2xx_ll_usb.c ****       }
 856:Drivers/STM32F2xx_HAL_Driver/Src/stm32f2xx_ll_usb.c **** 
 857:Drivers/STM32F2xx_HAL_Driver/Src/stm32f2xx_ll_usb.c ****       /* EP enable, IN data in FIFO */
 858:Drivers/STM32F2xx_HAL_Driver/Src/stm32f2xx_ll_usb.c ****       USBx_INEP(epnum)->DIEPCTL |= (USB_OTG_DIEPCTL_CNAK | USB_OTG_DIEPCTL_EPENA);
 859:Drivers/STM32F2xx_HAL_Driver/Src/stm32f2xx_ll_usb.c ****     }
 860:Drivers/STM32F2xx_HAL_Driver/Src/stm32f2xx_ll_usb.c ****     else
 861:Drivers/STM32F2xx_HAL_Driver/Src/stm32f2xx_ll_usb.c ****     {
 862:Drivers/STM32F2xx_HAL_Driver/Src/stm32f2xx_ll_usb.c ****       /* EP enable, IN data in FIFO */
 863:Drivers/STM32F2xx_HAL_Driver/Src/stm32f2xx_ll_usb.c ****       USBx_INEP(epnum)->DIEPCTL |= (USB_OTG_DIEPCTL_CNAK | USB_OTG_DIEPCTL_EPENA);
 864:Drivers/STM32F2xx_HAL_Driver/Src/stm32f2xx_ll_usb.c **** 
 865:Drivers/STM32F2xx_HAL_Driver/Src/stm32f2xx_ll_usb.c ****       /* Enable the Tx FIFO Empty Interrupt for this EP */
 866:Drivers/STM32F2xx_HAL_Driver/Src/stm32f2xx_ll_usb.c ****       if (ep->xfer_len > 0U)
 867:Drivers/STM32F2xx_HAL_Driver/Src/stm32f2xx_ll_usb.c ****       {
 868:Drivers/STM32F2xx_HAL_Driver/Src/stm32f2xx_ll_usb.c ****         USBx_DEVICE->DIEPEMPMSK |= 1UL << (ep->num & EP_ADDR_MSK);
 869:Drivers/STM32F2xx_HAL_Driver/Src/stm32f2xx_ll_usb.c ****       }
 870:Drivers/STM32F2xx_HAL_Driver/Src/stm32f2xx_ll_usb.c ****     }
 871:Drivers/STM32F2xx_HAL_Driver/Src/stm32f2xx_ll_usb.c ****   }
 872:Drivers/STM32F2xx_HAL_Driver/Src/stm32f2xx_ll_usb.c ****   else /* OUT endpoint */
 873:Drivers/STM32F2xx_HAL_Driver/Src/stm32f2xx_ll_usb.c ****   {
 874:Drivers/STM32F2xx_HAL_Driver/Src/stm32f2xx_ll_usb.c ****     /* Program the transfer size and packet count as follows:
 875:Drivers/STM32F2xx_HAL_Driver/Src/stm32f2xx_ll_usb.c ****     * pktcnt = N
 876:Drivers/STM32F2xx_HAL_Driver/Src/stm32f2xx_ll_usb.c ****     * xfersize = N * maxpacket
 877:Drivers/STM32F2xx_HAL_Driver/Src/stm32f2xx_ll_usb.c ****     */
 878:Drivers/STM32F2xx_HAL_Driver/Src/stm32f2xx_ll_usb.c ****     USBx_OUTEP(epnum)->DOEPTSIZ &= ~(USB_OTG_DOEPTSIZ_XFRSIZ);
 879:Drivers/STM32F2xx_HAL_Driver/Src/stm32f2xx_ll_usb.c ****     USBx_OUTEP(epnum)->DOEPTSIZ &= ~(USB_OTG_DOEPTSIZ_PKTCNT);
 880:Drivers/STM32F2xx_HAL_Driver/Src/stm32f2xx_ll_usb.c **** 
 881:Drivers/STM32F2xx_HAL_Driver/Src/stm32f2xx_ll_usb.c ****     if (ep->xfer_len > 0U)
 882:Drivers/STM32F2xx_HAL_Driver/Src/stm32f2xx_ll_usb.c ****     {
 883:Drivers/STM32F2xx_HAL_Driver/Src/stm32f2xx_ll_usb.c ****       ep->xfer_len = ep->maxpacket;
 884:Drivers/STM32F2xx_HAL_Driver/Src/stm32f2xx_ll_usb.c ****     }
 885:Drivers/STM32F2xx_HAL_Driver/Src/stm32f2xx_ll_usb.c **** 
 886:Drivers/STM32F2xx_HAL_Driver/Src/stm32f2xx_ll_usb.c ****     USBx_OUTEP(epnum)->DOEPTSIZ |= (USB_OTG_DOEPTSIZ_PKTCNT & (1U << 19));
 887:Drivers/STM32F2xx_HAL_Driver/Src/stm32f2xx_ll_usb.c ****     USBx_OUTEP(epnum)->DOEPTSIZ |= (USB_OTG_DOEPTSIZ_XFRSIZ & (ep->maxpacket));
ARM GAS  C:\Users\User\AppData\Local\Temp\ccY05dYU.s 			page 17


 888:Drivers/STM32F2xx_HAL_Driver/Src/stm32f2xx_ll_usb.c **** 
 889:Drivers/STM32F2xx_HAL_Driver/Src/stm32f2xx_ll_usb.c ****     if (dma == 1U)
 890:Drivers/STM32F2xx_HAL_Driver/Src/stm32f2xx_ll_usb.c ****     {
 891:Drivers/STM32F2xx_HAL_Driver/Src/stm32f2xx_ll_usb.c ****       if ((uint32_t)ep->xfer_buff != 0U)
 892:Drivers/STM32F2xx_HAL_Driver/Src/stm32f2xx_ll_usb.c ****       {
 893:Drivers/STM32F2xx_HAL_Driver/Src/stm32f2xx_ll_usb.c ****         USBx_OUTEP(epnum)->DOEPDMA = (uint32_t)(ep->xfer_buff);
 894:Drivers/STM32F2xx_HAL_Driver/Src/stm32f2xx_ll_usb.c ****       }
 895:Drivers/STM32F2xx_HAL_Driver/Src/stm32f2xx_ll_usb.c ****     }
 896:Drivers/STM32F2xx_HAL_Driver/Src/stm32f2xx_ll_usb.c **** 
 897:Drivers/STM32F2xx_HAL_Driver/Src/stm32f2xx_ll_usb.c ****     /* EP enable */
 898:Drivers/STM32F2xx_HAL_Driver/Src/stm32f2xx_ll_usb.c ****     USBx_OUTEP(epnum)->DOEPCTL |= (USB_OTG_DOEPCTL_CNAK | USB_OTG_DOEPCTL_EPENA);
 899:Drivers/STM32F2xx_HAL_Driver/Src/stm32f2xx_ll_usb.c ****   }
 900:Drivers/STM32F2xx_HAL_Driver/Src/stm32f2xx_ll_usb.c **** 
 901:Drivers/STM32F2xx_HAL_Driver/Src/stm32f2xx_ll_usb.c ****   return HAL_OK;
 902:Drivers/STM32F2xx_HAL_Driver/Src/stm32f2xx_ll_usb.c **** }
 903:Drivers/STM32F2xx_HAL_Driver/Src/stm32f2xx_ll_usb.c **** 
 904:Drivers/STM32F2xx_HAL_Driver/Src/stm32f2xx_ll_usb.c **** /**
 905:Drivers/STM32F2xx_HAL_Driver/Src/stm32f2xx_ll_usb.c ****   * @brief  USB_WritePacket : Writes a packet into the Tx FIFO associated
 906:Drivers/STM32F2xx_HAL_Driver/Src/stm32f2xx_ll_usb.c ****   *         with the EP/channel
 907:Drivers/STM32F2xx_HAL_Driver/Src/stm32f2xx_ll_usb.c ****   * @param  USBx  Selected device
 908:Drivers/STM32F2xx_HAL_Driver/Src/stm32f2xx_ll_usb.c ****   * @param  src   pointer to source buffer
 909:Drivers/STM32F2xx_HAL_Driver/Src/stm32f2xx_ll_usb.c ****   * @param  ch_ep_num  endpoint or host channel number
 910:Drivers/STM32F2xx_HAL_Driver/Src/stm32f2xx_ll_usb.c ****   * @param  len  Number of bytes to write
 911:Drivers/STM32F2xx_HAL_Driver/Src/stm32f2xx_ll_usb.c ****   * @param  dma USB dma enabled or disabled
 912:Drivers/STM32F2xx_HAL_Driver/Src/stm32f2xx_ll_usb.c ****   *          This parameter can be one of these values:
 913:Drivers/STM32F2xx_HAL_Driver/Src/stm32f2xx_ll_usb.c ****   *           0 : DMA feature not used
 914:Drivers/STM32F2xx_HAL_Driver/Src/stm32f2xx_ll_usb.c ****   *           1 : DMA feature used
 915:Drivers/STM32F2xx_HAL_Driver/Src/stm32f2xx_ll_usb.c ****   * @retval HAL status
 916:Drivers/STM32F2xx_HAL_Driver/Src/stm32f2xx_ll_usb.c ****   */
 917:Drivers/STM32F2xx_HAL_Driver/Src/stm32f2xx_ll_usb.c **** HAL_StatusTypeDef USB_WritePacket(USB_OTG_GlobalTypeDef *USBx, uint8_t *src, uint8_t ch_ep_num, uin
 918:Drivers/STM32F2xx_HAL_Driver/Src/stm32f2xx_ll_usb.c **** {
 919:Drivers/STM32F2xx_HAL_Driver/Src/stm32f2xx_ll_usb.c ****   uint32_t USBx_BASE = (uint32_t)USBx;
 920:Drivers/STM32F2xx_HAL_Driver/Src/stm32f2xx_ll_usb.c ****   uint32_t *pSrc = (uint32_t *)src;
 921:Drivers/STM32F2xx_HAL_Driver/Src/stm32f2xx_ll_usb.c ****   uint32_t count32b, i;
 922:Drivers/STM32F2xx_HAL_Driver/Src/stm32f2xx_ll_usb.c **** 
 923:Drivers/STM32F2xx_HAL_Driver/Src/stm32f2xx_ll_usb.c ****   if (dma == 0U)
 924:Drivers/STM32F2xx_HAL_Driver/Src/stm32f2xx_ll_usb.c ****   {
 925:Drivers/STM32F2xx_HAL_Driver/Src/stm32f2xx_ll_usb.c ****     count32b = ((uint32_t)len + 3U) / 4U;
 926:Drivers/STM32F2xx_HAL_Driver/Src/stm32f2xx_ll_usb.c ****     for (i = 0U; i < count32b; i++)
 927:Drivers/STM32F2xx_HAL_Driver/Src/stm32f2xx_ll_usb.c ****     {
 928:Drivers/STM32F2xx_HAL_Driver/Src/stm32f2xx_ll_usb.c ****       USBx_DFIFO((uint32_t)ch_ep_num) = __UNALIGNED_UINT32_READ(pSrc);
 929:Drivers/STM32F2xx_HAL_Driver/Src/stm32f2xx_ll_usb.c ****       pSrc++;
 930:Drivers/STM32F2xx_HAL_Driver/Src/stm32f2xx_ll_usb.c ****     }
 931:Drivers/STM32F2xx_HAL_Driver/Src/stm32f2xx_ll_usb.c ****   }
 932:Drivers/STM32F2xx_HAL_Driver/Src/stm32f2xx_ll_usb.c **** 
 933:Drivers/STM32F2xx_HAL_Driver/Src/stm32f2xx_ll_usb.c ****   return HAL_OK;
 934:Drivers/STM32F2xx_HAL_Driver/Src/stm32f2xx_ll_usb.c **** }
 935:Drivers/STM32F2xx_HAL_Driver/Src/stm32f2xx_ll_usb.c **** 
 936:Drivers/STM32F2xx_HAL_Driver/Src/stm32f2xx_ll_usb.c **** /**
 937:Drivers/STM32F2xx_HAL_Driver/Src/stm32f2xx_ll_usb.c ****   * @brief  USB_ReadPacket : read a packet from the RX FIFO
 938:Drivers/STM32F2xx_HAL_Driver/Src/stm32f2xx_ll_usb.c ****   * @param  USBx  Selected device
 939:Drivers/STM32F2xx_HAL_Driver/Src/stm32f2xx_ll_usb.c ****   * @param  dest  source pointer
 940:Drivers/STM32F2xx_HAL_Driver/Src/stm32f2xx_ll_usb.c ****   * @param  len  Number of bytes to read
 941:Drivers/STM32F2xx_HAL_Driver/Src/stm32f2xx_ll_usb.c ****   * @retval pointer to destination buffer
 942:Drivers/STM32F2xx_HAL_Driver/Src/stm32f2xx_ll_usb.c ****   */
 943:Drivers/STM32F2xx_HAL_Driver/Src/stm32f2xx_ll_usb.c **** void *USB_ReadPacket(USB_OTG_GlobalTypeDef *USBx, uint8_t *dest, uint16_t len)
 944:Drivers/STM32F2xx_HAL_Driver/Src/stm32f2xx_ll_usb.c **** {
ARM GAS  C:\Users\User\AppData\Local\Temp\ccY05dYU.s 			page 18


 945:Drivers/STM32F2xx_HAL_Driver/Src/stm32f2xx_ll_usb.c ****   uint32_t USBx_BASE = (uint32_t)USBx;
 946:Drivers/STM32F2xx_HAL_Driver/Src/stm32f2xx_ll_usb.c ****   uint32_t *pDest = (uint32_t *)dest;
 947:Drivers/STM32F2xx_HAL_Driver/Src/stm32f2xx_ll_usb.c ****   uint32_t i;
 948:Drivers/STM32F2xx_HAL_Driver/Src/stm32f2xx_ll_usb.c ****   uint32_t count32b = ((uint32_t)len + 3U) / 4U;
 949:Drivers/STM32F2xx_HAL_Driver/Src/stm32f2xx_ll_usb.c **** 
 950:Drivers/STM32F2xx_HAL_Driver/Src/stm32f2xx_ll_usb.c ****   for (i = 0U; i < count32b; i++)
 951:Drivers/STM32F2xx_HAL_Driver/Src/stm32f2xx_ll_usb.c ****   {
 952:Drivers/STM32F2xx_HAL_Driver/Src/stm32f2xx_ll_usb.c ****     __UNALIGNED_UINT32_WRITE(pDest, USBx_DFIFO(0U));
 953:Drivers/STM32F2xx_HAL_Driver/Src/stm32f2xx_ll_usb.c ****     pDest++;
 954:Drivers/STM32F2xx_HAL_Driver/Src/stm32f2xx_ll_usb.c ****   }
 955:Drivers/STM32F2xx_HAL_Driver/Src/stm32f2xx_ll_usb.c **** 
 956:Drivers/STM32F2xx_HAL_Driver/Src/stm32f2xx_ll_usb.c ****   return ((void *)pDest);
 957:Drivers/STM32F2xx_HAL_Driver/Src/stm32f2xx_ll_usb.c **** }
 958:Drivers/STM32F2xx_HAL_Driver/Src/stm32f2xx_ll_usb.c **** 
 959:Drivers/STM32F2xx_HAL_Driver/Src/stm32f2xx_ll_usb.c **** /**
 960:Drivers/STM32F2xx_HAL_Driver/Src/stm32f2xx_ll_usb.c ****   * @brief  USB_EPSetStall : set a stall condition over an EP
 961:Drivers/STM32F2xx_HAL_Driver/Src/stm32f2xx_ll_usb.c ****   * @param  USBx  Selected device
 962:Drivers/STM32F2xx_HAL_Driver/Src/stm32f2xx_ll_usb.c ****   * @param  ep pointer to endpoint structure
 963:Drivers/STM32F2xx_HAL_Driver/Src/stm32f2xx_ll_usb.c ****   * @retval HAL status
 964:Drivers/STM32F2xx_HAL_Driver/Src/stm32f2xx_ll_usb.c ****   */
 965:Drivers/STM32F2xx_HAL_Driver/Src/stm32f2xx_ll_usb.c **** HAL_StatusTypeDef USB_EPSetStall(USB_OTG_GlobalTypeDef *USBx, USB_OTG_EPTypeDef *ep)
 966:Drivers/STM32F2xx_HAL_Driver/Src/stm32f2xx_ll_usb.c **** {
 967:Drivers/STM32F2xx_HAL_Driver/Src/stm32f2xx_ll_usb.c ****   uint32_t USBx_BASE = (uint32_t)USBx;
 968:Drivers/STM32F2xx_HAL_Driver/Src/stm32f2xx_ll_usb.c ****   uint32_t epnum = (uint32_t)ep->num;
 969:Drivers/STM32F2xx_HAL_Driver/Src/stm32f2xx_ll_usb.c **** 
 970:Drivers/STM32F2xx_HAL_Driver/Src/stm32f2xx_ll_usb.c ****   if (ep->is_in == 1U)
 971:Drivers/STM32F2xx_HAL_Driver/Src/stm32f2xx_ll_usb.c ****   {
 972:Drivers/STM32F2xx_HAL_Driver/Src/stm32f2xx_ll_usb.c ****     if (((USBx_INEP(epnum)->DIEPCTL & USB_OTG_DIEPCTL_EPENA) == 0U) && (epnum != 0U))
 973:Drivers/STM32F2xx_HAL_Driver/Src/stm32f2xx_ll_usb.c ****     {
 974:Drivers/STM32F2xx_HAL_Driver/Src/stm32f2xx_ll_usb.c ****       USBx_INEP(epnum)->DIEPCTL &= ~(USB_OTG_DIEPCTL_EPDIS);
 975:Drivers/STM32F2xx_HAL_Driver/Src/stm32f2xx_ll_usb.c ****     }
 976:Drivers/STM32F2xx_HAL_Driver/Src/stm32f2xx_ll_usb.c ****     USBx_INEP(epnum)->DIEPCTL |= USB_OTG_DIEPCTL_STALL;
 977:Drivers/STM32F2xx_HAL_Driver/Src/stm32f2xx_ll_usb.c ****   }
 978:Drivers/STM32F2xx_HAL_Driver/Src/stm32f2xx_ll_usb.c ****   else
 979:Drivers/STM32F2xx_HAL_Driver/Src/stm32f2xx_ll_usb.c ****   {
 980:Drivers/STM32F2xx_HAL_Driver/Src/stm32f2xx_ll_usb.c ****     if (((USBx_OUTEP(epnum)->DOEPCTL & USB_OTG_DOEPCTL_EPENA) == 0U) && (epnum != 0U))
 981:Drivers/STM32F2xx_HAL_Driver/Src/stm32f2xx_ll_usb.c ****     {
 982:Drivers/STM32F2xx_HAL_Driver/Src/stm32f2xx_ll_usb.c ****       USBx_OUTEP(epnum)->DOEPCTL &= ~(USB_OTG_DOEPCTL_EPDIS);
 983:Drivers/STM32F2xx_HAL_Driver/Src/stm32f2xx_ll_usb.c ****     }
 984:Drivers/STM32F2xx_HAL_Driver/Src/stm32f2xx_ll_usb.c ****     USBx_OUTEP(epnum)->DOEPCTL |= USB_OTG_DOEPCTL_STALL;
 985:Drivers/STM32F2xx_HAL_Driver/Src/stm32f2xx_ll_usb.c ****   }
 986:Drivers/STM32F2xx_HAL_Driver/Src/stm32f2xx_ll_usb.c **** 
 987:Drivers/STM32F2xx_HAL_Driver/Src/stm32f2xx_ll_usb.c ****   return HAL_OK;
 988:Drivers/STM32F2xx_HAL_Driver/Src/stm32f2xx_ll_usb.c **** }
 989:Drivers/STM32F2xx_HAL_Driver/Src/stm32f2xx_ll_usb.c **** 
 990:Drivers/STM32F2xx_HAL_Driver/Src/stm32f2xx_ll_usb.c **** /**
 991:Drivers/STM32F2xx_HAL_Driver/Src/stm32f2xx_ll_usb.c ****   * @brief  USB_EPClearStall : Clear a stall condition over an EP
 992:Drivers/STM32F2xx_HAL_Driver/Src/stm32f2xx_ll_usb.c ****   * @param  USBx  Selected device
 993:Drivers/STM32F2xx_HAL_Driver/Src/stm32f2xx_ll_usb.c ****   * @param  ep pointer to endpoint structure
 994:Drivers/STM32F2xx_HAL_Driver/Src/stm32f2xx_ll_usb.c ****   * @retval HAL status
 995:Drivers/STM32F2xx_HAL_Driver/Src/stm32f2xx_ll_usb.c ****   */
 996:Drivers/STM32F2xx_HAL_Driver/Src/stm32f2xx_ll_usb.c **** HAL_StatusTypeDef USB_EPClearStall(USB_OTG_GlobalTypeDef *USBx, USB_OTG_EPTypeDef *ep)
 997:Drivers/STM32F2xx_HAL_Driver/Src/stm32f2xx_ll_usb.c **** {
 998:Drivers/STM32F2xx_HAL_Driver/Src/stm32f2xx_ll_usb.c ****   uint32_t USBx_BASE = (uint32_t)USBx;
 999:Drivers/STM32F2xx_HAL_Driver/Src/stm32f2xx_ll_usb.c ****   uint32_t epnum = (uint32_t)ep->num;
1000:Drivers/STM32F2xx_HAL_Driver/Src/stm32f2xx_ll_usb.c **** 
1001:Drivers/STM32F2xx_HAL_Driver/Src/stm32f2xx_ll_usb.c ****   if (ep->is_in == 1U)
ARM GAS  C:\Users\User\AppData\Local\Temp\ccY05dYU.s 			page 19


1002:Drivers/STM32F2xx_HAL_Driver/Src/stm32f2xx_ll_usb.c ****   {
1003:Drivers/STM32F2xx_HAL_Driver/Src/stm32f2xx_ll_usb.c ****     USBx_INEP(epnum)->DIEPCTL &= ~USB_OTG_DIEPCTL_STALL;
1004:Drivers/STM32F2xx_HAL_Driver/Src/stm32f2xx_ll_usb.c ****     if ((ep->type == EP_TYPE_INTR) || (ep->type == EP_TYPE_BULK))
1005:Drivers/STM32F2xx_HAL_Driver/Src/stm32f2xx_ll_usb.c ****     {
1006:Drivers/STM32F2xx_HAL_Driver/Src/stm32f2xx_ll_usb.c ****       USBx_INEP(epnum)->DIEPCTL |= USB_OTG_DIEPCTL_SD0PID_SEVNFRM; /* DATA0 */
1007:Drivers/STM32F2xx_HAL_Driver/Src/stm32f2xx_ll_usb.c ****     }
1008:Drivers/STM32F2xx_HAL_Driver/Src/stm32f2xx_ll_usb.c ****   }
1009:Drivers/STM32F2xx_HAL_Driver/Src/stm32f2xx_ll_usb.c ****   else
1010:Drivers/STM32F2xx_HAL_Driver/Src/stm32f2xx_ll_usb.c ****   {
1011:Drivers/STM32F2xx_HAL_Driver/Src/stm32f2xx_ll_usb.c ****     USBx_OUTEP(epnum)->DOEPCTL &= ~USB_OTG_DOEPCTL_STALL;
1012:Drivers/STM32F2xx_HAL_Driver/Src/stm32f2xx_ll_usb.c ****     if ((ep->type == EP_TYPE_INTR) || (ep->type == EP_TYPE_BULK))
1013:Drivers/STM32F2xx_HAL_Driver/Src/stm32f2xx_ll_usb.c ****     {
1014:Drivers/STM32F2xx_HAL_Driver/Src/stm32f2xx_ll_usb.c ****       USBx_OUTEP(epnum)->DOEPCTL |= USB_OTG_DOEPCTL_SD0PID_SEVNFRM; /* DATA0 */
1015:Drivers/STM32F2xx_HAL_Driver/Src/stm32f2xx_ll_usb.c ****     }
1016:Drivers/STM32F2xx_HAL_Driver/Src/stm32f2xx_ll_usb.c ****   }
1017:Drivers/STM32F2xx_HAL_Driver/Src/stm32f2xx_ll_usb.c ****   return HAL_OK;
1018:Drivers/STM32F2xx_HAL_Driver/Src/stm32f2xx_ll_usb.c **** }
1019:Drivers/STM32F2xx_HAL_Driver/Src/stm32f2xx_ll_usb.c **** 
1020:Drivers/STM32F2xx_HAL_Driver/Src/stm32f2xx_ll_usb.c **** /**
1021:Drivers/STM32F2xx_HAL_Driver/Src/stm32f2xx_ll_usb.c ****   * @brief  USB_StopDevice : Stop the usb device mode
1022:Drivers/STM32F2xx_HAL_Driver/Src/stm32f2xx_ll_usb.c ****   * @param  USBx  Selected device
1023:Drivers/STM32F2xx_HAL_Driver/Src/stm32f2xx_ll_usb.c ****   * @retval HAL status
1024:Drivers/STM32F2xx_HAL_Driver/Src/stm32f2xx_ll_usb.c ****   */
1025:Drivers/STM32F2xx_HAL_Driver/Src/stm32f2xx_ll_usb.c **** HAL_StatusTypeDef USB_StopDevice(USB_OTG_GlobalTypeDef *USBx)
1026:Drivers/STM32F2xx_HAL_Driver/Src/stm32f2xx_ll_usb.c **** {
1027:Drivers/STM32F2xx_HAL_Driver/Src/stm32f2xx_ll_usb.c ****   HAL_StatusTypeDef ret;
1028:Drivers/STM32F2xx_HAL_Driver/Src/stm32f2xx_ll_usb.c ****   uint32_t USBx_BASE = (uint32_t)USBx;
1029:Drivers/STM32F2xx_HAL_Driver/Src/stm32f2xx_ll_usb.c ****   uint32_t i;
1030:Drivers/STM32F2xx_HAL_Driver/Src/stm32f2xx_ll_usb.c **** 
1031:Drivers/STM32F2xx_HAL_Driver/Src/stm32f2xx_ll_usb.c ****   /* Clear Pending interrupt */
1032:Drivers/STM32F2xx_HAL_Driver/Src/stm32f2xx_ll_usb.c ****   for (i = 0U; i < 15U; i++)
1033:Drivers/STM32F2xx_HAL_Driver/Src/stm32f2xx_ll_usb.c ****   {
1034:Drivers/STM32F2xx_HAL_Driver/Src/stm32f2xx_ll_usb.c ****     USBx_INEP(i)->DIEPINT = 0xFB7FU;
1035:Drivers/STM32F2xx_HAL_Driver/Src/stm32f2xx_ll_usb.c ****     USBx_OUTEP(i)->DOEPINT = 0xFB7FU;
1036:Drivers/STM32F2xx_HAL_Driver/Src/stm32f2xx_ll_usb.c ****   }
1037:Drivers/STM32F2xx_HAL_Driver/Src/stm32f2xx_ll_usb.c **** 
1038:Drivers/STM32F2xx_HAL_Driver/Src/stm32f2xx_ll_usb.c ****   /* Clear interrupt masks */
1039:Drivers/STM32F2xx_HAL_Driver/Src/stm32f2xx_ll_usb.c ****   USBx_DEVICE->DIEPMSK  = 0U;
1040:Drivers/STM32F2xx_HAL_Driver/Src/stm32f2xx_ll_usb.c ****   USBx_DEVICE->DOEPMSK  = 0U;
1041:Drivers/STM32F2xx_HAL_Driver/Src/stm32f2xx_ll_usb.c ****   USBx_DEVICE->DAINTMSK = 0U;
1042:Drivers/STM32F2xx_HAL_Driver/Src/stm32f2xx_ll_usb.c **** 
1043:Drivers/STM32F2xx_HAL_Driver/Src/stm32f2xx_ll_usb.c ****   /* Flush the FIFO */
1044:Drivers/STM32F2xx_HAL_Driver/Src/stm32f2xx_ll_usb.c ****   ret = USB_FlushRxFifo(USBx);
1045:Drivers/STM32F2xx_HAL_Driver/Src/stm32f2xx_ll_usb.c ****   if (ret != HAL_OK)
1046:Drivers/STM32F2xx_HAL_Driver/Src/stm32f2xx_ll_usb.c ****   {
1047:Drivers/STM32F2xx_HAL_Driver/Src/stm32f2xx_ll_usb.c ****     return ret;
1048:Drivers/STM32F2xx_HAL_Driver/Src/stm32f2xx_ll_usb.c ****   }
1049:Drivers/STM32F2xx_HAL_Driver/Src/stm32f2xx_ll_usb.c **** 
1050:Drivers/STM32F2xx_HAL_Driver/Src/stm32f2xx_ll_usb.c ****   ret = USB_FlushTxFifo(USBx,  0x10U);
1051:Drivers/STM32F2xx_HAL_Driver/Src/stm32f2xx_ll_usb.c ****   if (ret != HAL_OK)
1052:Drivers/STM32F2xx_HAL_Driver/Src/stm32f2xx_ll_usb.c ****   {
1053:Drivers/STM32F2xx_HAL_Driver/Src/stm32f2xx_ll_usb.c ****     return ret;
1054:Drivers/STM32F2xx_HAL_Driver/Src/stm32f2xx_ll_usb.c ****   }
1055:Drivers/STM32F2xx_HAL_Driver/Src/stm32f2xx_ll_usb.c **** 
1056:Drivers/STM32F2xx_HAL_Driver/Src/stm32f2xx_ll_usb.c ****   return ret;
1057:Drivers/STM32F2xx_HAL_Driver/Src/stm32f2xx_ll_usb.c **** }
1058:Drivers/STM32F2xx_HAL_Driver/Src/stm32f2xx_ll_usb.c **** 
ARM GAS  C:\Users\User\AppData\Local\Temp\ccY05dYU.s 			page 20


1059:Drivers/STM32F2xx_HAL_Driver/Src/stm32f2xx_ll_usb.c **** /**
1060:Drivers/STM32F2xx_HAL_Driver/Src/stm32f2xx_ll_usb.c ****   * @brief  USB_SetDevAddress : Stop the usb device mode
1061:Drivers/STM32F2xx_HAL_Driver/Src/stm32f2xx_ll_usb.c ****   * @param  USBx  Selected device
1062:Drivers/STM32F2xx_HAL_Driver/Src/stm32f2xx_ll_usb.c ****   * @param  address  new device address to be assigned
1063:Drivers/STM32F2xx_HAL_Driver/Src/stm32f2xx_ll_usb.c ****   *          This parameter can be a value from 0 to 255
1064:Drivers/STM32F2xx_HAL_Driver/Src/stm32f2xx_ll_usb.c ****   * @retval HAL status
1065:Drivers/STM32F2xx_HAL_Driver/Src/stm32f2xx_ll_usb.c ****   */
1066:Drivers/STM32F2xx_HAL_Driver/Src/stm32f2xx_ll_usb.c **** HAL_StatusTypeDef  USB_SetDevAddress(USB_OTG_GlobalTypeDef *USBx, uint8_t address)
1067:Drivers/STM32F2xx_HAL_Driver/Src/stm32f2xx_ll_usb.c **** {
1068:Drivers/STM32F2xx_HAL_Driver/Src/stm32f2xx_ll_usb.c ****   uint32_t USBx_BASE = (uint32_t)USBx;
1069:Drivers/STM32F2xx_HAL_Driver/Src/stm32f2xx_ll_usb.c **** 
1070:Drivers/STM32F2xx_HAL_Driver/Src/stm32f2xx_ll_usb.c ****   USBx_DEVICE->DCFG &= ~(USB_OTG_DCFG_DAD);
1071:Drivers/STM32F2xx_HAL_Driver/Src/stm32f2xx_ll_usb.c ****   USBx_DEVICE->DCFG |= ((uint32_t)address << 4) & USB_OTG_DCFG_DAD;
1072:Drivers/STM32F2xx_HAL_Driver/Src/stm32f2xx_ll_usb.c **** 
1073:Drivers/STM32F2xx_HAL_Driver/Src/stm32f2xx_ll_usb.c ****   return HAL_OK;
1074:Drivers/STM32F2xx_HAL_Driver/Src/stm32f2xx_ll_usb.c **** }
1075:Drivers/STM32F2xx_HAL_Driver/Src/stm32f2xx_ll_usb.c **** 
1076:Drivers/STM32F2xx_HAL_Driver/Src/stm32f2xx_ll_usb.c **** /**
1077:Drivers/STM32F2xx_HAL_Driver/Src/stm32f2xx_ll_usb.c ****   * @brief  USB_DevConnect : Connect the USB device by enabling the pull-up/pull-down
1078:Drivers/STM32F2xx_HAL_Driver/Src/stm32f2xx_ll_usb.c ****   * @param  USBx  Selected device
1079:Drivers/STM32F2xx_HAL_Driver/Src/stm32f2xx_ll_usb.c ****   * @retval HAL status
1080:Drivers/STM32F2xx_HAL_Driver/Src/stm32f2xx_ll_usb.c ****   */
1081:Drivers/STM32F2xx_HAL_Driver/Src/stm32f2xx_ll_usb.c **** HAL_StatusTypeDef  USB_DevConnect(USB_OTG_GlobalTypeDef *USBx)
1082:Drivers/STM32F2xx_HAL_Driver/Src/stm32f2xx_ll_usb.c **** {
1083:Drivers/STM32F2xx_HAL_Driver/Src/stm32f2xx_ll_usb.c ****   uint32_t USBx_BASE = (uint32_t)USBx;
1084:Drivers/STM32F2xx_HAL_Driver/Src/stm32f2xx_ll_usb.c **** 
1085:Drivers/STM32F2xx_HAL_Driver/Src/stm32f2xx_ll_usb.c ****   USBx_DEVICE->DCTL &= ~USB_OTG_DCTL_SDIS;
1086:Drivers/STM32F2xx_HAL_Driver/Src/stm32f2xx_ll_usb.c ****   HAL_Delay(3U);
1087:Drivers/STM32F2xx_HAL_Driver/Src/stm32f2xx_ll_usb.c **** 
1088:Drivers/STM32F2xx_HAL_Driver/Src/stm32f2xx_ll_usb.c ****   return HAL_OK;
1089:Drivers/STM32F2xx_HAL_Driver/Src/stm32f2xx_ll_usb.c **** }
1090:Drivers/STM32F2xx_HAL_Driver/Src/stm32f2xx_ll_usb.c **** 
1091:Drivers/STM32F2xx_HAL_Driver/Src/stm32f2xx_ll_usb.c **** /**
1092:Drivers/STM32F2xx_HAL_Driver/Src/stm32f2xx_ll_usb.c ****   * @brief  USB_DevDisconnect : Disconnect the USB device by disabling the pull-up/pull-down
1093:Drivers/STM32F2xx_HAL_Driver/Src/stm32f2xx_ll_usb.c ****   * @param  USBx  Selected device
1094:Drivers/STM32F2xx_HAL_Driver/Src/stm32f2xx_ll_usb.c ****   * @retval HAL status
1095:Drivers/STM32F2xx_HAL_Driver/Src/stm32f2xx_ll_usb.c ****   */
1096:Drivers/STM32F2xx_HAL_Driver/Src/stm32f2xx_ll_usb.c **** HAL_StatusTypeDef  USB_DevDisconnect(USB_OTG_GlobalTypeDef *USBx)
1097:Drivers/STM32F2xx_HAL_Driver/Src/stm32f2xx_ll_usb.c **** {
1098:Drivers/STM32F2xx_HAL_Driver/Src/stm32f2xx_ll_usb.c ****   uint32_t USBx_BASE = (uint32_t)USBx;
1099:Drivers/STM32F2xx_HAL_Driver/Src/stm32f2xx_ll_usb.c **** 
1100:Drivers/STM32F2xx_HAL_Driver/Src/stm32f2xx_ll_usb.c ****   USBx_DEVICE->DCTL |= USB_OTG_DCTL_SDIS;
1101:Drivers/STM32F2xx_HAL_Driver/Src/stm32f2xx_ll_usb.c ****   HAL_Delay(3U);
1102:Drivers/STM32F2xx_HAL_Driver/Src/stm32f2xx_ll_usb.c **** 
1103:Drivers/STM32F2xx_HAL_Driver/Src/stm32f2xx_ll_usb.c ****   return HAL_OK;
1104:Drivers/STM32F2xx_HAL_Driver/Src/stm32f2xx_ll_usb.c **** }
1105:Drivers/STM32F2xx_HAL_Driver/Src/stm32f2xx_ll_usb.c **** 
1106:Drivers/STM32F2xx_HAL_Driver/Src/stm32f2xx_ll_usb.c **** /**
1107:Drivers/STM32F2xx_HAL_Driver/Src/stm32f2xx_ll_usb.c ****   * @brief  USB_ReadInterrupts: return the global USB interrupt status
1108:Drivers/STM32F2xx_HAL_Driver/Src/stm32f2xx_ll_usb.c ****   * @param  USBx  Selected device
1109:Drivers/STM32F2xx_HAL_Driver/Src/stm32f2xx_ll_usb.c ****   * @retval HAL status
1110:Drivers/STM32F2xx_HAL_Driver/Src/stm32f2xx_ll_usb.c ****   */
1111:Drivers/STM32F2xx_HAL_Driver/Src/stm32f2xx_ll_usb.c **** uint32_t  USB_ReadInterrupts(USB_OTG_GlobalTypeDef *USBx)
1112:Drivers/STM32F2xx_HAL_Driver/Src/stm32f2xx_ll_usb.c **** {
1113:Drivers/STM32F2xx_HAL_Driver/Src/stm32f2xx_ll_usb.c ****   uint32_t tmpreg;
1114:Drivers/STM32F2xx_HAL_Driver/Src/stm32f2xx_ll_usb.c **** 
1115:Drivers/STM32F2xx_HAL_Driver/Src/stm32f2xx_ll_usb.c ****   tmpreg = USBx->GINTSTS;
ARM GAS  C:\Users\User\AppData\Local\Temp\ccY05dYU.s 			page 21


1116:Drivers/STM32F2xx_HAL_Driver/Src/stm32f2xx_ll_usb.c ****   tmpreg &= USBx->GINTMSK;
1117:Drivers/STM32F2xx_HAL_Driver/Src/stm32f2xx_ll_usb.c **** 
1118:Drivers/STM32F2xx_HAL_Driver/Src/stm32f2xx_ll_usb.c ****   return tmpreg;
1119:Drivers/STM32F2xx_HAL_Driver/Src/stm32f2xx_ll_usb.c **** }
1120:Drivers/STM32F2xx_HAL_Driver/Src/stm32f2xx_ll_usb.c **** 
1121:Drivers/STM32F2xx_HAL_Driver/Src/stm32f2xx_ll_usb.c **** /**
1122:Drivers/STM32F2xx_HAL_Driver/Src/stm32f2xx_ll_usb.c ****   * @brief  USB_ReadDevAllOutEpInterrupt: return the USB device OUT endpoints interrupt status
1123:Drivers/STM32F2xx_HAL_Driver/Src/stm32f2xx_ll_usb.c ****   * @param  USBx  Selected device
1124:Drivers/STM32F2xx_HAL_Driver/Src/stm32f2xx_ll_usb.c ****   * @retval HAL status
1125:Drivers/STM32F2xx_HAL_Driver/Src/stm32f2xx_ll_usb.c ****   */
1126:Drivers/STM32F2xx_HAL_Driver/Src/stm32f2xx_ll_usb.c **** uint32_t USB_ReadDevAllOutEpInterrupt(USB_OTG_GlobalTypeDef *USBx)
1127:Drivers/STM32F2xx_HAL_Driver/Src/stm32f2xx_ll_usb.c **** {
1128:Drivers/STM32F2xx_HAL_Driver/Src/stm32f2xx_ll_usb.c ****   uint32_t USBx_BASE = (uint32_t)USBx;
1129:Drivers/STM32F2xx_HAL_Driver/Src/stm32f2xx_ll_usb.c ****   uint32_t tmpreg;
1130:Drivers/STM32F2xx_HAL_Driver/Src/stm32f2xx_ll_usb.c **** 
1131:Drivers/STM32F2xx_HAL_Driver/Src/stm32f2xx_ll_usb.c ****   tmpreg  = USBx_DEVICE->DAINT;
1132:Drivers/STM32F2xx_HAL_Driver/Src/stm32f2xx_ll_usb.c ****   tmpreg &= USBx_DEVICE->DAINTMSK;
1133:Drivers/STM32F2xx_HAL_Driver/Src/stm32f2xx_ll_usb.c **** 
1134:Drivers/STM32F2xx_HAL_Driver/Src/stm32f2xx_ll_usb.c ****   return ((tmpreg & 0xffff0000U) >> 16);
1135:Drivers/STM32F2xx_HAL_Driver/Src/stm32f2xx_ll_usb.c **** }
1136:Drivers/STM32F2xx_HAL_Driver/Src/stm32f2xx_ll_usb.c **** 
1137:Drivers/STM32F2xx_HAL_Driver/Src/stm32f2xx_ll_usb.c **** /**
1138:Drivers/STM32F2xx_HAL_Driver/Src/stm32f2xx_ll_usb.c ****   * @brief  USB_ReadDevAllInEpInterrupt: return the USB device IN endpoints interrupt status
1139:Drivers/STM32F2xx_HAL_Driver/Src/stm32f2xx_ll_usb.c ****   * @param  USBx  Selected device
1140:Drivers/STM32F2xx_HAL_Driver/Src/stm32f2xx_ll_usb.c ****   * @retval HAL status
1141:Drivers/STM32F2xx_HAL_Driver/Src/stm32f2xx_ll_usb.c ****   */
1142:Drivers/STM32F2xx_HAL_Driver/Src/stm32f2xx_ll_usb.c **** uint32_t USB_ReadDevAllInEpInterrupt(USB_OTG_GlobalTypeDef *USBx)
1143:Drivers/STM32F2xx_HAL_Driver/Src/stm32f2xx_ll_usb.c **** {
1144:Drivers/STM32F2xx_HAL_Driver/Src/stm32f2xx_ll_usb.c ****   uint32_t USBx_BASE = (uint32_t)USBx;
1145:Drivers/STM32F2xx_HAL_Driver/Src/stm32f2xx_ll_usb.c ****   uint32_t tmpreg;
1146:Drivers/STM32F2xx_HAL_Driver/Src/stm32f2xx_ll_usb.c **** 
1147:Drivers/STM32F2xx_HAL_Driver/Src/stm32f2xx_ll_usb.c ****   tmpreg  = USBx_DEVICE->DAINT;
1148:Drivers/STM32F2xx_HAL_Driver/Src/stm32f2xx_ll_usb.c ****   tmpreg &= USBx_DEVICE->DAINTMSK;
1149:Drivers/STM32F2xx_HAL_Driver/Src/stm32f2xx_ll_usb.c **** 
1150:Drivers/STM32F2xx_HAL_Driver/Src/stm32f2xx_ll_usb.c ****   return ((tmpreg & 0xFFFFU));
1151:Drivers/STM32F2xx_HAL_Driver/Src/stm32f2xx_ll_usb.c **** }
1152:Drivers/STM32F2xx_HAL_Driver/Src/stm32f2xx_ll_usb.c **** 
1153:Drivers/STM32F2xx_HAL_Driver/Src/stm32f2xx_ll_usb.c **** /**
1154:Drivers/STM32F2xx_HAL_Driver/Src/stm32f2xx_ll_usb.c ****   * @brief  Returns Device OUT EP Interrupt register
1155:Drivers/STM32F2xx_HAL_Driver/Src/stm32f2xx_ll_usb.c ****   * @param  USBx  Selected device
1156:Drivers/STM32F2xx_HAL_Driver/Src/stm32f2xx_ll_usb.c ****   * @param  epnum  endpoint number
1157:Drivers/STM32F2xx_HAL_Driver/Src/stm32f2xx_ll_usb.c ****   *          This parameter can be a value from 0 to 15
1158:Drivers/STM32F2xx_HAL_Driver/Src/stm32f2xx_ll_usb.c ****   * @retval Device OUT EP Interrupt register
1159:Drivers/STM32F2xx_HAL_Driver/Src/stm32f2xx_ll_usb.c ****   */
1160:Drivers/STM32F2xx_HAL_Driver/Src/stm32f2xx_ll_usb.c **** uint32_t USB_ReadDevOutEPInterrupt(USB_OTG_GlobalTypeDef *USBx, uint8_t epnum)
1161:Drivers/STM32F2xx_HAL_Driver/Src/stm32f2xx_ll_usb.c **** {
1162:Drivers/STM32F2xx_HAL_Driver/Src/stm32f2xx_ll_usb.c ****   uint32_t USBx_BASE = (uint32_t)USBx;
1163:Drivers/STM32F2xx_HAL_Driver/Src/stm32f2xx_ll_usb.c ****   uint32_t tmpreg;
1164:Drivers/STM32F2xx_HAL_Driver/Src/stm32f2xx_ll_usb.c **** 
1165:Drivers/STM32F2xx_HAL_Driver/Src/stm32f2xx_ll_usb.c ****   tmpreg  = USBx_OUTEP((uint32_t)epnum)->DOEPINT;
1166:Drivers/STM32F2xx_HAL_Driver/Src/stm32f2xx_ll_usb.c ****   tmpreg &= USBx_DEVICE->DOEPMSK;
1167:Drivers/STM32F2xx_HAL_Driver/Src/stm32f2xx_ll_usb.c **** 
1168:Drivers/STM32F2xx_HAL_Driver/Src/stm32f2xx_ll_usb.c ****   return tmpreg;
1169:Drivers/STM32F2xx_HAL_Driver/Src/stm32f2xx_ll_usb.c **** }
1170:Drivers/STM32F2xx_HAL_Driver/Src/stm32f2xx_ll_usb.c **** 
1171:Drivers/STM32F2xx_HAL_Driver/Src/stm32f2xx_ll_usb.c **** /**
1172:Drivers/STM32F2xx_HAL_Driver/Src/stm32f2xx_ll_usb.c ****   * @brief  Returns Device IN EP Interrupt register
ARM GAS  C:\Users\User\AppData\Local\Temp\ccY05dYU.s 			page 22


1173:Drivers/STM32F2xx_HAL_Driver/Src/stm32f2xx_ll_usb.c ****   * @param  USBx  Selected device
1174:Drivers/STM32F2xx_HAL_Driver/Src/stm32f2xx_ll_usb.c ****   * @param  epnum  endpoint number
1175:Drivers/STM32F2xx_HAL_Driver/Src/stm32f2xx_ll_usb.c ****   *          This parameter can be a value from 0 to 15
1176:Drivers/STM32F2xx_HAL_Driver/Src/stm32f2xx_ll_usb.c ****   * @retval Device IN EP Interrupt register
1177:Drivers/STM32F2xx_HAL_Driver/Src/stm32f2xx_ll_usb.c ****   */
1178:Drivers/STM32F2xx_HAL_Driver/Src/stm32f2xx_ll_usb.c **** uint32_t USB_ReadDevInEPInterrupt(USB_OTG_GlobalTypeDef *USBx, uint8_t epnum)
1179:Drivers/STM32F2xx_HAL_Driver/Src/stm32f2xx_ll_usb.c **** {
1180:Drivers/STM32F2xx_HAL_Driver/Src/stm32f2xx_ll_usb.c ****   uint32_t USBx_BASE = (uint32_t)USBx;
1181:Drivers/STM32F2xx_HAL_Driver/Src/stm32f2xx_ll_usb.c ****   uint32_t tmpreg, msk, emp;
1182:Drivers/STM32F2xx_HAL_Driver/Src/stm32f2xx_ll_usb.c **** 
1183:Drivers/STM32F2xx_HAL_Driver/Src/stm32f2xx_ll_usb.c ****   msk = USBx_DEVICE->DIEPMSK;
1184:Drivers/STM32F2xx_HAL_Driver/Src/stm32f2xx_ll_usb.c ****   emp = USBx_DEVICE->DIEPEMPMSK;
1185:Drivers/STM32F2xx_HAL_Driver/Src/stm32f2xx_ll_usb.c ****   msk |= ((emp >> (epnum & EP_ADDR_MSK)) & 0x1U) << 7;
1186:Drivers/STM32F2xx_HAL_Driver/Src/stm32f2xx_ll_usb.c ****   tmpreg = USBx_INEP((uint32_t)epnum)->DIEPINT & msk;
1187:Drivers/STM32F2xx_HAL_Driver/Src/stm32f2xx_ll_usb.c **** 
1188:Drivers/STM32F2xx_HAL_Driver/Src/stm32f2xx_ll_usb.c ****   return tmpreg;
1189:Drivers/STM32F2xx_HAL_Driver/Src/stm32f2xx_ll_usb.c **** }
1190:Drivers/STM32F2xx_HAL_Driver/Src/stm32f2xx_ll_usb.c **** 
1191:Drivers/STM32F2xx_HAL_Driver/Src/stm32f2xx_ll_usb.c **** /**
1192:Drivers/STM32F2xx_HAL_Driver/Src/stm32f2xx_ll_usb.c ****   * @brief  USB_ClearInterrupts: clear a USB interrupt
1193:Drivers/STM32F2xx_HAL_Driver/Src/stm32f2xx_ll_usb.c ****   * @param  USBx  Selected device
1194:Drivers/STM32F2xx_HAL_Driver/Src/stm32f2xx_ll_usb.c ****   * @param  interrupt  interrupt flag
1195:Drivers/STM32F2xx_HAL_Driver/Src/stm32f2xx_ll_usb.c ****   * @retval None
1196:Drivers/STM32F2xx_HAL_Driver/Src/stm32f2xx_ll_usb.c ****   */
1197:Drivers/STM32F2xx_HAL_Driver/Src/stm32f2xx_ll_usb.c **** void  USB_ClearInterrupts(USB_OTG_GlobalTypeDef *USBx, uint32_t interrupt)
1198:Drivers/STM32F2xx_HAL_Driver/Src/stm32f2xx_ll_usb.c **** {
1199:Drivers/STM32F2xx_HAL_Driver/Src/stm32f2xx_ll_usb.c ****   USBx->GINTSTS |= interrupt;
1200:Drivers/STM32F2xx_HAL_Driver/Src/stm32f2xx_ll_usb.c **** }
1201:Drivers/STM32F2xx_HAL_Driver/Src/stm32f2xx_ll_usb.c **** 
1202:Drivers/STM32F2xx_HAL_Driver/Src/stm32f2xx_ll_usb.c **** /**
1203:Drivers/STM32F2xx_HAL_Driver/Src/stm32f2xx_ll_usb.c ****   * @brief  Returns USB core mode
1204:Drivers/STM32F2xx_HAL_Driver/Src/stm32f2xx_ll_usb.c ****   * @param  USBx  Selected device
1205:Drivers/STM32F2xx_HAL_Driver/Src/stm32f2xx_ll_usb.c ****   * @retval return core mode : Host or Device
1206:Drivers/STM32F2xx_HAL_Driver/Src/stm32f2xx_ll_usb.c ****   *          This parameter can be one of these values:
1207:Drivers/STM32F2xx_HAL_Driver/Src/stm32f2xx_ll_usb.c ****   *           0 : Host
1208:Drivers/STM32F2xx_HAL_Driver/Src/stm32f2xx_ll_usb.c ****   *           1 : Device
1209:Drivers/STM32F2xx_HAL_Driver/Src/stm32f2xx_ll_usb.c ****   */
1210:Drivers/STM32F2xx_HAL_Driver/Src/stm32f2xx_ll_usb.c **** uint32_t USB_GetMode(USB_OTG_GlobalTypeDef *USBx)
1211:Drivers/STM32F2xx_HAL_Driver/Src/stm32f2xx_ll_usb.c **** {
1212:Drivers/STM32F2xx_HAL_Driver/Src/stm32f2xx_ll_usb.c ****   return ((USBx->GINTSTS) & 0x1U);
1213:Drivers/STM32F2xx_HAL_Driver/Src/stm32f2xx_ll_usb.c **** }
1214:Drivers/STM32F2xx_HAL_Driver/Src/stm32f2xx_ll_usb.c **** 
1215:Drivers/STM32F2xx_HAL_Driver/Src/stm32f2xx_ll_usb.c **** /**
1216:Drivers/STM32F2xx_HAL_Driver/Src/stm32f2xx_ll_usb.c ****   * @brief  Activate EP0 for Setup transactions
1217:Drivers/STM32F2xx_HAL_Driver/Src/stm32f2xx_ll_usb.c ****   * @param  USBx  Selected device
1218:Drivers/STM32F2xx_HAL_Driver/Src/stm32f2xx_ll_usb.c ****   * @retval HAL status
1219:Drivers/STM32F2xx_HAL_Driver/Src/stm32f2xx_ll_usb.c ****   */
1220:Drivers/STM32F2xx_HAL_Driver/Src/stm32f2xx_ll_usb.c **** HAL_StatusTypeDef  USB_ActivateSetup(USB_OTG_GlobalTypeDef *USBx)
1221:Drivers/STM32F2xx_HAL_Driver/Src/stm32f2xx_ll_usb.c **** {
1222:Drivers/STM32F2xx_HAL_Driver/Src/stm32f2xx_ll_usb.c ****   uint32_t USBx_BASE = (uint32_t)USBx;
1223:Drivers/STM32F2xx_HAL_Driver/Src/stm32f2xx_ll_usb.c **** 
1224:Drivers/STM32F2xx_HAL_Driver/Src/stm32f2xx_ll_usb.c ****   /* Set the MPS of the IN EP based on the enumeration speed */
1225:Drivers/STM32F2xx_HAL_Driver/Src/stm32f2xx_ll_usb.c ****   USBx_INEP(0U)->DIEPCTL &= ~USB_OTG_DIEPCTL_MPSIZ;
1226:Drivers/STM32F2xx_HAL_Driver/Src/stm32f2xx_ll_usb.c **** 
1227:Drivers/STM32F2xx_HAL_Driver/Src/stm32f2xx_ll_usb.c ****   if ((USBx_DEVICE->DSTS & USB_OTG_DSTS_ENUMSPD) == DSTS_ENUMSPD_LS_PHY_6MHZ)
1228:Drivers/STM32F2xx_HAL_Driver/Src/stm32f2xx_ll_usb.c ****   {
1229:Drivers/STM32F2xx_HAL_Driver/Src/stm32f2xx_ll_usb.c ****     USBx_INEP(0U)->DIEPCTL |= 3U;
ARM GAS  C:\Users\User\AppData\Local\Temp\ccY05dYU.s 			page 23


1230:Drivers/STM32F2xx_HAL_Driver/Src/stm32f2xx_ll_usb.c ****   }
1231:Drivers/STM32F2xx_HAL_Driver/Src/stm32f2xx_ll_usb.c ****   USBx_DEVICE->DCTL |= USB_OTG_DCTL_CGINAK;
1232:Drivers/STM32F2xx_HAL_Driver/Src/stm32f2xx_ll_usb.c **** 
1233:Drivers/STM32F2xx_HAL_Driver/Src/stm32f2xx_ll_usb.c ****   return HAL_OK;
1234:Drivers/STM32F2xx_HAL_Driver/Src/stm32f2xx_ll_usb.c **** }
1235:Drivers/STM32F2xx_HAL_Driver/Src/stm32f2xx_ll_usb.c **** 
1236:Drivers/STM32F2xx_HAL_Driver/Src/stm32f2xx_ll_usb.c **** /**
1237:Drivers/STM32F2xx_HAL_Driver/Src/stm32f2xx_ll_usb.c ****   * @brief  Prepare the EP0 to start the first control setup
1238:Drivers/STM32F2xx_HAL_Driver/Src/stm32f2xx_ll_usb.c ****   * @param  USBx  Selected device
1239:Drivers/STM32F2xx_HAL_Driver/Src/stm32f2xx_ll_usb.c ****   * @param  dma USB dma enabled or disabled
1240:Drivers/STM32F2xx_HAL_Driver/Src/stm32f2xx_ll_usb.c ****   *          This parameter can be one of these values:
1241:Drivers/STM32F2xx_HAL_Driver/Src/stm32f2xx_ll_usb.c ****   *           0 : DMA feature not used
1242:Drivers/STM32F2xx_HAL_Driver/Src/stm32f2xx_ll_usb.c ****   *           1 : DMA feature used
1243:Drivers/STM32F2xx_HAL_Driver/Src/stm32f2xx_ll_usb.c ****   * @param  psetup  pointer to setup packet
1244:Drivers/STM32F2xx_HAL_Driver/Src/stm32f2xx_ll_usb.c ****   * @retval HAL status
1245:Drivers/STM32F2xx_HAL_Driver/Src/stm32f2xx_ll_usb.c ****   */
1246:Drivers/STM32F2xx_HAL_Driver/Src/stm32f2xx_ll_usb.c **** HAL_StatusTypeDef USB_EP0_OutStart(USB_OTG_GlobalTypeDef *USBx, uint8_t dma, uint8_t *psetup)
1247:Drivers/STM32F2xx_HAL_Driver/Src/stm32f2xx_ll_usb.c **** {
1248:Drivers/STM32F2xx_HAL_Driver/Src/stm32f2xx_ll_usb.c ****   uint32_t USBx_BASE = (uint32_t)USBx;
1249:Drivers/STM32F2xx_HAL_Driver/Src/stm32f2xx_ll_usb.c ****   uint32_t gSNPSiD = *(__IO uint32_t *)(&USBx->CID + 0x1U);
1250:Drivers/STM32F2xx_HAL_Driver/Src/stm32f2xx_ll_usb.c **** 
1251:Drivers/STM32F2xx_HAL_Driver/Src/stm32f2xx_ll_usb.c ****   if (gSNPSiD > USB_OTG_CORE_ID_300A)
1252:Drivers/STM32F2xx_HAL_Driver/Src/stm32f2xx_ll_usb.c ****   {
1253:Drivers/STM32F2xx_HAL_Driver/Src/stm32f2xx_ll_usb.c ****     if ((USBx_OUTEP(0U)->DOEPCTL & USB_OTG_DOEPCTL_EPENA) == USB_OTG_DOEPCTL_EPENA)
1254:Drivers/STM32F2xx_HAL_Driver/Src/stm32f2xx_ll_usb.c ****     {
1255:Drivers/STM32F2xx_HAL_Driver/Src/stm32f2xx_ll_usb.c ****       return HAL_OK;
1256:Drivers/STM32F2xx_HAL_Driver/Src/stm32f2xx_ll_usb.c ****     }
1257:Drivers/STM32F2xx_HAL_Driver/Src/stm32f2xx_ll_usb.c ****   }
1258:Drivers/STM32F2xx_HAL_Driver/Src/stm32f2xx_ll_usb.c **** 
1259:Drivers/STM32F2xx_HAL_Driver/Src/stm32f2xx_ll_usb.c ****   USBx_OUTEP(0U)->DOEPTSIZ = 0U;
1260:Drivers/STM32F2xx_HAL_Driver/Src/stm32f2xx_ll_usb.c ****   USBx_OUTEP(0U)->DOEPTSIZ |= (USB_OTG_DOEPTSIZ_PKTCNT & (1U << 19));
1261:Drivers/STM32F2xx_HAL_Driver/Src/stm32f2xx_ll_usb.c ****   USBx_OUTEP(0U)->DOEPTSIZ |= (3U * 8U);
1262:Drivers/STM32F2xx_HAL_Driver/Src/stm32f2xx_ll_usb.c ****   USBx_OUTEP(0U)->DOEPTSIZ |=  USB_OTG_DOEPTSIZ_STUPCNT;
1263:Drivers/STM32F2xx_HAL_Driver/Src/stm32f2xx_ll_usb.c **** 
1264:Drivers/STM32F2xx_HAL_Driver/Src/stm32f2xx_ll_usb.c ****   if (dma == 1U)
1265:Drivers/STM32F2xx_HAL_Driver/Src/stm32f2xx_ll_usb.c ****   {
1266:Drivers/STM32F2xx_HAL_Driver/Src/stm32f2xx_ll_usb.c ****     USBx_OUTEP(0U)->DOEPDMA = (uint32_t)psetup;
1267:Drivers/STM32F2xx_HAL_Driver/Src/stm32f2xx_ll_usb.c ****     /* EP enable */
1268:Drivers/STM32F2xx_HAL_Driver/Src/stm32f2xx_ll_usb.c ****     USBx_OUTEP(0U)->DOEPCTL |= USB_OTG_DOEPCTL_EPENA | USB_OTG_DOEPCTL_USBAEP;
1269:Drivers/STM32F2xx_HAL_Driver/Src/stm32f2xx_ll_usb.c ****   }
1270:Drivers/STM32F2xx_HAL_Driver/Src/stm32f2xx_ll_usb.c **** 
1271:Drivers/STM32F2xx_HAL_Driver/Src/stm32f2xx_ll_usb.c ****   return HAL_OK;
1272:Drivers/STM32F2xx_HAL_Driver/Src/stm32f2xx_ll_usb.c **** }
1273:Drivers/STM32F2xx_HAL_Driver/Src/stm32f2xx_ll_usb.c **** 
1274:Drivers/STM32F2xx_HAL_Driver/Src/stm32f2xx_ll_usb.c **** /**
1275:Drivers/STM32F2xx_HAL_Driver/Src/stm32f2xx_ll_usb.c ****   * @brief  Reset the USB Core (needed after USB clock settings change)
1276:Drivers/STM32F2xx_HAL_Driver/Src/stm32f2xx_ll_usb.c ****   * @param  USBx  Selected device
1277:Drivers/STM32F2xx_HAL_Driver/Src/stm32f2xx_ll_usb.c ****   * @retval HAL status
1278:Drivers/STM32F2xx_HAL_Driver/Src/stm32f2xx_ll_usb.c ****   */
1279:Drivers/STM32F2xx_HAL_Driver/Src/stm32f2xx_ll_usb.c **** static HAL_StatusTypeDef USB_CoreReset(USB_OTG_GlobalTypeDef *USBx)
1280:Drivers/STM32F2xx_HAL_Driver/Src/stm32f2xx_ll_usb.c **** {
  27              		.loc 1 1280 1 view -0
  28              		.cfi_startproc
  29              		@ args = 0, pretend = 0, frame = 0
  30              		@ frame_needed = 0, uses_anonymous_args = 0
  31              		@ link register save eliminated.
1281:Drivers/STM32F2xx_HAL_Driver/Src/stm32f2xx_ll_usb.c ****   uint32_t count = 0U;
ARM GAS  C:\Users\User\AppData\Local\Temp\ccY05dYU.s 			page 24


  32              		.loc 1 1281 3 view .LVU1
  33              		.loc 1 1281 12 is_stmt 0 view .LVU2
  34 0000 0023     		movs	r3, #0
  35              	.LVL1:
  36              	.L3:
1282:Drivers/STM32F2xx_HAL_Driver/Src/stm32f2xx_ll_usb.c **** 
1283:Drivers/STM32F2xx_HAL_Driver/Src/stm32f2xx_ll_usb.c ****   /* Wait for AHB master IDLE state. */
1284:Drivers/STM32F2xx_HAL_Driver/Src/stm32f2xx_ll_usb.c ****   do
  37              		.loc 1 1284 3 is_stmt 1 view .LVU3
1285:Drivers/STM32F2xx_HAL_Driver/Src/stm32f2xx_ll_usb.c ****   {
1286:Drivers/STM32F2xx_HAL_Driver/Src/stm32f2xx_ll_usb.c ****     if (++count > 200000U)
  38              		.loc 1 1286 5 view .LVU4
  39              		.loc 1 1286 8 is_stmt 0 view .LVU5
  40 0002 0133     		adds	r3, r3, #1
  41              	.LVL2:
  42              		.loc 1 1286 8 view .LVU6
  43 0004 0C4A     		ldr	r2, .L7
  44 0006 9342     		cmp	r3, r2
  45 0008 11D8     		bhi	.L5
1287:Drivers/STM32F2xx_HAL_Driver/Src/stm32f2xx_ll_usb.c ****     {
1288:Drivers/STM32F2xx_HAL_Driver/Src/stm32f2xx_ll_usb.c ****       return HAL_TIMEOUT;
1289:Drivers/STM32F2xx_HAL_Driver/Src/stm32f2xx_ll_usb.c ****     }
1290:Drivers/STM32F2xx_HAL_Driver/Src/stm32f2xx_ll_usb.c ****   }
1291:Drivers/STM32F2xx_HAL_Driver/Src/stm32f2xx_ll_usb.c ****   while ((USBx->GRSTCTL & USB_OTG_GRSTCTL_AHBIDL) == 0U);
  46              		.loc 1 1291 15 view .LVU7
  47 000a 0269     		ldr	r2, [r0, #16]
  48              		.loc 1 1291 3 view .LVU8
  49 000c 002A     		cmp	r2, #0
  50 000e F8DA     		bge	.L3
1292:Drivers/STM32F2xx_HAL_Driver/Src/stm32f2xx_ll_usb.c **** 
1293:Drivers/STM32F2xx_HAL_Driver/Src/stm32f2xx_ll_usb.c ****   /* Core Soft Reset */
1294:Drivers/STM32F2xx_HAL_Driver/Src/stm32f2xx_ll_usb.c ****   count = 0U;
  51              		.loc 1 1294 3 is_stmt 1 view .LVU9
  52              	.LVL3:
1295:Drivers/STM32F2xx_HAL_Driver/Src/stm32f2xx_ll_usb.c ****   USBx->GRSTCTL |= USB_OTG_GRSTCTL_CSRST;
  53              		.loc 1 1295 3 view .LVU10
  54              		.loc 1 1295 17 is_stmt 0 view .LVU11
  55 0010 0369     		ldr	r3, [r0, #16]
  56 0012 43F00103 		orr	r3, r3, #1
  57 0016 0361     		str	r3, [r0, #16]
1294:Drivers/STM32F2xx_HAL_Driver/Src/stm32f2xx_ll_usb.c ****   USBx->GRSTCTL |= USB_OTG_GRSTCTL_CSRST;
  58              		.loc 1 1294 9 view .LVU12
  59 0018 0023     		movs	r3, #0
  60              	.LVL4:
  61              	.L4:
1296:Drivers/STM32F2xx_HAL_Driver/Src/stm32f2xx_ll_usb.c **** 
1297:Drivers/STM32F2xx_HAL_Driver/Src/stm32f2xx_ll_usb.c ****   do
  62              		.loc 1 1297 3 is_stmt 1 view .LVU13
1298:Drivers/STM32F2xx_HAL_Driver/Src/stm32f2xx_ll_usb.c ****   {
1299:Drivers/STM32F2xx_HAL_Driver/Src/stm32f2xx_ll_usb.c ****     if (++count > 200000U)
  63              		.loc 1 1299 5 view .LVU14
  64              		.loc 1 1299 8 is_stmt 0 view .LVU15
  65 001a 0133     		adds	r3, r3, #1
  66              	.LVL5:
  67              		.loc 1 1299 8 view .LVU16
  68 001c 064A     		ldr	r2, .L7
  69 001e 9342     		cmp	r3, r2
ARM GAS  C:\Users\User\AppData\Local\Temp\ccY05dYU.s 			page 25


  70 0020 07D8     		bhi	.L6
1300:Drivers/STM32F2xx_HAL_Driver/Src/stm32f2xx_ll_usb.c ****     {
1301:Drivers/STM32F2xx_HAL_Driver/Src/stm32f2xx_ll_usb.c ****       return HAL_TIMEOUT;
1302:Drivers/STM32F2xx_HAL_Driver/Src/stm32f2xx_ll_usb.c ****     }
1303:Drivers/STM32F2xx_HAL_Driver/Src/stm32f2xx_ll_usb.c ****   }
1304:Drivers/STM32F2xx_HAL_Driver/Src/stm32f2xx_ll_usb.c ****   while ((USBx->GRSTCTL & USB_OTG_GRSTCTL_CSRST) == USB_OTG_GRSTCTL_CSRST);
  71              		.loc 1 1304 15 view .LVU17
  72 0022 0269     		ldr	r2, [r0, #16]
  73              		.loc 1 1304 3 view .LVU18
  74 0024 12F0010F 		tst	r2, #1
  75 0028 F7D1     		bne	.L4
1305:Drivers/STM32F2xx_HAL_Driver/Src/stm32f2xx_ll_usb.c **** 
1306:Drivers/STM32F2xx_HAL_Driver/Src/stm32f2xx_ll_usb.c ****   return HAL_OK;
  76              		.loc 1 1306 10 view .LVU19
  77 002a 0020     		movs	r0, #0
  78              	.LVL6:
  79              		.loc 1 1306 10 view .LVU20
  80 002c 7047     		bx	lr
  81              	.LVL7:
  82              	.L5:
1288:Drivers/STM32F2xx_HAL_Driver/Src/stm32f2xx_ll_usb.c ****     }
  83              		.loc 1 1288 14 view .LVU21
  84 002e 0320     		movs	r0, #3
  85              	.LVL8:
1288:Drivers/STM32F2xx_HAL_Driver/Src/stm32f2xx_ll_usb.c ****     }
  86              		.loc 1 1288 14 view .LVU22
  87 0030 7047     		bx	lr
  88              	.LVL9:
  89              	.L6:
1301:Drivers/STM32F2xx_HAL_Driver/Src/stm32f2xx_ll_usb.c ****     }
  90              		.loc 1 1301 14 view .LVU23
  91 0032 0320     		movs	r0, #3
  92              	.LVL10:
1307:Drivers/STM32F2xx_HAL_Driver/Src/stm32f2xx_ll_usb.c **** }
  93              		.loc 1 1307 1 view .LVU24
  94 0034 7047     		bx	lr
  95              	.L8:
  96 0036 00BF     		.align	2
  97              	.L7:
  98 0038 400D0300 		.word	200000
  99              		.cfi_endproc
 100              	.LFE105:
 102              		.section	.text.USB_CoreInit,"ax",%progbits
 103              		.align	1
 104              		.global	USB_CoreInit
 105              		.syntax unified
 106              		.thumb
 107              		.thumb_func
 108              		.fpu softvfp
 110              	USB_CoreInit:
 111              	.LVL11:
 112              	.LFB72:
  83:Drivers/STM32F2xx_HAL_Driver/Src/stm32f2xx_ll_usb.c ****   HAL_StatusTypeDef ret;
 113              		.loc 1 83 1 is_stmt 1 view -0
 114              		.cfi_startproc
 115              		@ args = 56, pretend = 16, frame = 0
 116              		@ frame_needed = 0, uses_anonymous_args = 0
ARM GAS  C:\Users\User\AppData\Local\Temp\ccY05dYU.s 			page 26


  83:Drivers/STM32F2xx_HAL_Driver/Src/stm32f2xx_ll_usb.c ****   HAL_StatusTypeDef ret;
 117              		.loc 1 83 1 is_stmt 0 view .LVU26
 118 0000 84B0     		sub	sp, sp, #16
 119              	.LCFI0:
 120              		.cfi_def_cfa_offset 16
 121 0002 10B5     		push	{r4, lr}
 122              	.LCFI1:
 123              		.cfi_def_cfa_offset 24
 124              		.cfi_offset 4, -24
 125              		.cfi_offset 14, -20
 126 0004 0446     		mov	r4, r0
 127 0006 03A8     		add	r0, sp, #12
 128              	.LVL12:
  83:Drivers/STM32F2xx_HAL_Driver/Src/stm32f2xx_ll_usb.c ****   HAL_StatusTypeDef ret;
 129              		.loc 1 83 1 view .LVU27
 130 0008 80E80E00 		stm	r0, {r1, r2, r3}
  84:Drivers/STM32F2xx_HAL_Driver/Src/stm32f2xx_ll_usb.c **** 
 131              		.loc 1 84 3 is_stmt 1 view .LVU28
  86:Drivers/STM32F2xx_HAL_Driver/Src/stm32f2xx_ll_usb.c ****   {
 132              		.loc 1 86 3 view .LVU29
  86:Drivers/STM32F2xx_HAL_Driver/Src/stm32f2xx_ll_usb.c ****   {
 133              		.loc 1 86 10 is_stmt 0 view .LVU30
 134 000c 089B     		ldr	r3, [sp, #32]
  86:Drivers/STM32F2xx_HAL_Driver/Src/stm32f2xx_ll_usb.c ****   {
 135              		.loc 1 86 6 view .LVU31
 136 000e 012B     		cmp	r3, #1
 137 0010 1FD1     		bne	.L10
  88:Drivers/STM32F2xx_HAL_Driver/Src/stm32f2xx_ll_usb.c **** 
 138              		.loc 1 88 5 is_stmt 1 view .LVU32
  88:Drivers/STM32F2xx_HAL_Driver/Src/stm32f2xx_ll_usb.c **** 
 139              		.loc 1 88 17 is_stmt 0 view .LVU33
 140 0012 A36B     		ldr	r3, [r4, #56]
 141 0014 23F48033 		bic	r3, r3, #65536
 142 0018 A363     		str	r3, [r4, #56]
  91:Drivers/STM32F2xx_HAL_Driver/Src/stm32f2xx_ll_usb.c **** 
 143              		.loc 1 91 5 is_stmt 1 view .LVU34
  91:Drivers/STM32F2xx_HAL_Driver/Src/stm32f2xx_ll_usb.c **** 
 144              		.loc 1 91 19 is_stmt 0 view .LVU35
 145 001a E368     		ldr	r3, [r4, #12]
 146 001c 23F48403 		bic	r3, r3, #4325376
 147 0020 23F04003 		bic	r3, r3, #64
 148 0024 E360     		str	r3, [r4, #12]
  94:Drivers/STM32F2xx_HAL_Driver/Src/stm32f2xx_ll_usb.c ****     if (cfg.use_external_vbus == 1U)
 149              		.loc 1 94 5 is_stmt 1 view .LVU36
  94:Drivers/STM32F2xx_HAL_Driver/Src/stm32f2xx_ll_usb.c ****     if (cfg.use_external_vbus == 1U)
 150              		.loc 1 94 19 is_stmt 0 view .LVU37
 151 0026 E368     		ldr	r3, [r4, #12]
 152 0028 23F44013 		bic	r3, r3, #3145728
 153 002c E360     		str	r3, [r4, #12]
  95:Drivers/STM32F2xx_HAL_Driver/Src/stm32f2xx_ll_usb.c ****     {
 154              		.loc 1 95 5 is_stmt 1 view .LVU38
  95:Drivers/STM32F2xx_HAL_Driver/Src/stm32f2xx_ll_usb.c ****     {
 155              		.loc 1 95 12 is_stmt 0 view .LVU39
 156 002e 0F9B     		ldr	r3, [sp, #60]
  95:Drivers/STM32F2xx_HAL_Driver/Src/stm32f2xx_ll_usb.c ****     {
 157              		.loc 1 95 8 view .LVU40
 158 0030 012B     		cmp	r3, #1
ARM GAS  C:\Users\User\AppData\Local\Temp\ccY05dYU.s 			page 27


 159 0032 09D0     		beq	.L15
 160              	.L11:
 100:Drivers/STM32F2xx_HAL_Driver/Src/stm32f2xx_ll_usb.c ****   }
 161              		.loc 1 100 5 is_stmt 1 view .LVU41
 100:Drivers/STM32F2xx_HAL_Driver/Src/stm32f2xx_ll_usb.c ****   }
 162              		.loc 1 100 11 is_stmt 0 view .LVU42
 163 0034 2046     		mov	r0, r4
 164 0036 FFF7FEFF 		bl	USB_CoreReset
 165              	.LVL13:
 166              	.L12:
 114:Drivers/STM32F2xx_HAL_Driver/Src/stm32f2xx_ll_usb.c ****   {
 167              		.loc 1 114 3 is_stmt 1 view .LVU43
 114:Drivers/STM32F2xx_HAL_Driver/Src/stm32f2xx_ll_usb.c ****   {
 168              		.loc 1 114 10 is_stmt 0 view .LVU44
 169 003a 069B     		ldr	r3, [sp, #24]
 114:Drivers/STM32F2xx_HAL_Driver/Src/stm32f2xx_ll_usb.c ****   {
 170              		.loc 1 114 6 view .LVU45
 171 003c 012B     		cmp	r3, #1
 172 003e 14D0     		beq	.L16
 173              	.L13:
 120:Drivers/STM32F2xx_HAL_Driver/Src/stm32f2xx_ll_usb.c **** }
 174              		.loc 1 120 3 is_stmt 1 view .LVU46
 121:Drivers/STM32F2xx_HAL_Driver/Src/stm32f2xx_ll_usb.c **** 
 175              		.loc 1 121 1 is_stmt 0 view .LVU47
 176 0040 BDE81040 		pop	{r4, lr}
 177              	.LCFI2:
 178              		.cfi_remember_state
 179              		.cfi_restore 14
 180              		.cfi_restore 4
 181              		.cfi_def_cfa_offset 16
 182              	.LVL14:
 121:Drivers/STM32F2xx_HAL_Driver/Src/stm32f2xx_ll_usb.c **** 
 183              		.loc 1 121 1 view .LVU48
 184 0044 04B0     		add	sp, sp, #16
 185              	.LCFI3:
 186              		.cfi_def_cfa_offset 0
 187 0046 7047     		bx	lr
 188              	.LVL15:
 189              	.L15:
 190              	.LCFI4:
 191              		.cfi_restore_state
  97:Drivers/STM32F2xx_HAL_Driver/Src/stm32f2xx_ll_usb.c ****     }
 192              		.loc 1 97 7 is_stmt 1 view .LVU49
  97:Drivers/STM32F2xx_HAL_Driver/Src/stm32f2xx_ll_usb.c ****     }
 193              		.loc 1 97 21 is_stmt 0 view .LVU50
 194 0048 E368     		ldr	r3, [r4, #12]
 195 004a 43F48013 		orr	r3, r3, #1048576
 196 004e E360     		str	r3, [r4, #12]
 197 0050 F0E7     		b	.L11
 198              	.L10:
 105:Drivers/STM32F2xx_HAL_Driver/Src/stm32f2xx_ll_usb.c **** 
 199              		.loc 1 105 5 is_stmt 1 view .LVU51
 105:Drivers/STM32F2xx_HAL_Driver/Src/stm32f2xx_ll_usb.c **** 
 200              		.loc 1 105 19 is_stmt 0 view .LVU52
 201 0052 E368     		ldr	r3, [r4, #12]
 202 0054 43F04003 		orr	r3, r3, #64
 203 0058 E360     		str	r3, [r4, #12]
ARM GAS  C:\Users\User\AppData\Local\Temp\ccY05dYU.s 			page 28


 108:Drivers/STM32F2xx_HAL_Driver/Src/stm32f2xx_ll_usb.c **** 
 204              		.loc 1 108 5 is_stmt 1 view .LVU53
 108:Drivers/STM32F2xx_HAL_Driver/Src/stm32f2xx_ll_usb.c **** 
 205              		.loc 1 108 11 is_stmt 0 view .LVU54
 206 005a 2046     		mov	r0, r4
 207 005c FFF7FEFF 		bl	USB_CoreReset
 208              	.LVL16:
 111:Drivers/STM32F2xx_HAL_Driver/Src/stm32f2xx_ll_usb.c ****   }
 209              		.loc 1 111 5 is_stmt 1 view .LVU55
 111:Drivers/STM32F2xx_HAL_Driver/Src/stm32f2xx_ll_usb.c ****   }
 210              		.loc 1 111 17 is_stmt 0 view .LVU56
 211 0060 A36B     		ldr	r3, [r4, #56]
 212 0062 43F48033 		orr	r3, r3, #65536
 213 0066 A363     		str	r3, [r4, #56]
 214 0068 E7E7     		b	.L12
 215              	.L16:
 116:Drivers/STM32F2xx_HAL_Driver/Src/stm32f2xx_ll_usb.c ****     USBx->GAHBCFG |= USB_OTG_GAHBCFG_DMAEN;
 216              		.loc 1 116 5 is_stmt 1 view .LVU57
 116:Drivers/STM32F2xx_HAL_Driver/Src/stm32f2xx_ll_usb.c ****     USBx->GAHBCFG |= USB_OTG_GAHBCFG_DMAEN;
 217              		.loc 1 116 19 is_stmt 0 view .LVU58
 218 006a A368     		ldr	r3, [r4, #8]
 219 006c 43F00603 		orr	r3, r3, #6
 220 0070 A360     		str	r3, [r4, #8]
 117:Drivers/STM32F2xx_HAL_Driver/Src/stm32f2xx_ll_usb.c ****   }
 221              		.loc 1 117 5 is_stmt 1 view .LVU59
 117:Drivers/STM32F2xx_HAL_Driver/Src/stm32f2xx_ll_usb.c ****   }
 222              		.loc 1 117 19 is_stmt 0 view .LVU60
 223 0072 A368     		ldr	r3, [r4, #8]
 224 0074 43F02003 		orr	r3, r3, #32
 225 0078 A360     		str	r3, [r4, #8]
 226 007a E1E7     		b	.L13
 227              		.cfi_endproc
 228              	.LFE72:
 230              		.section	.text.USB_SetTurnaroundTime,"ax",%progbits
 231              		.align	1
 232              		.global	USB_SetTurnaroundTime
 233              		.syntax unified
 234              		.thumb
 235              		.thumb_func
 236              		.fpu softvfp
 238              	USB_SetTurnaroundTime:
 239              	.LVL17:
 240              	.LFB73:
 132:Drivers/STM32F2xx_HAL_Driver/Src/stm32f2xx_ll_usb.c ****   uint32_t UsbTrd;
 241              		.loc 1 132 1 is_stmt 1 view -0
 242              		.cfi_startproc
 243              		@ args = 0, pretend = 0, frame = 0
 244              		@ frame_needed = 0, uses_anonymous_args = 0
 245              		@ link register save eliminated.
 133:Drivers/STM32F2xx_HAL_Driver/Src/stm32f2xx_ll_usb.c **** 
 246              		.loc 1 133 3 view .LVU62
 139:Drivers/STM32F2xx_HAL_Driver/Src/stm32f2xx_ll_usb.c ****   {
 247              		.loc 1 139 3 view .LVU63
 139:Drivers/STM32F2xx_HAL_Driver/Src/stm32f2xx_ll_usb.c ****   {
 248              		.loc 1 139 6 is_stmt 0 view .LVU64
 249 0000 022A     		cmp	r2, #2
 250 0002 0AD0     		beq	.L29
ARM GAS  C:\Users\User\AppData\Local\Temp\ccY05dYU.s 			page 29


 194:Drivers/STM32F2xx_HAL_Driver/Src/stm32f2xx_ll_usb.c ****   }
 251              		.loc 1 194 12 view .LVU65
 252 0004 0921     		movs	r1, #9
 253              	.LVL18:
 254              	.L18:
 201:Drivers/STM32F2xx_HAL_Driver/Src/stm32f2xx_ll_usb.c ****   USBx->GUSBCFG |= (uint32_t)((UsbTrd << 10) & USB_OTG_GUSBCFG_TRDT);
 255              		.loc 1 201 3 is_stmt 1 view .LVU66
 201:Drivers/STM32F2xx_HAL_Driver/Src/stm32f2xx_ll_usb.c ****   USBx->GUSBCFG |= (uint32_t)((UsbTrd << 10) & USB_OTG_GUSBCFG_TRDT);
 256              		.loc 1 201 17 is_stmt 0 view .LVU67
 257 0006 C268     		ldr	r2, [r0, #12]
 258 0008 22F47052 		bic	r2, r2, #15360
 259 000c C260     		str	r2, [r0, #12]
 202:Drivers/STM32F2xx_HAL_Driver/Src/stm32f2xx_ll_usb.c **** 
 260              		.loc 1 202 3 is_stmt 1 view .LVU68
 202:Drivers/STM32F2xx_HAL_Driver/Src/stm32f2xx_ll_usb.c **** 
 261              		.loc 1 202 17 is_stmt 0 view .LVU69
 262 000e C368     		ldr	r3, [r0, #12]
 263 0010 43EA8123 		orr	r3, r3, r1, lsl #10
 264 0014 C360     		str	r3, [r0, #12]
 204:Drivers/STM32F2xx_HAL_Driver/Src/stm32f2xx_ll_usb.c **** }
 265              		.loc 1 204 3 is_stmt 1 view .LVU70
 205:Drivers/STM32F2xx_HAL_Driver/Src/stm32f2xx_ll_usb.c **** 
 266              		.loc 1 205 1 is_stmt 0 view .LVU71
 267 0016 0020     		movs	r0, #0
 268              	.LVL19:
 205:Drivers/STM32F2xx_HAL_Driver/Src/stm32f2xx_ll_usb.c **** 
 269              		.loc 1 205 1 view .LVU72
 270 0018 7047     		bx	lr
 271              	.LVL20:
 272              	.L29:
 141:Drivers/STM32F2xx_HAL_Driver/Src/stm32f2xx_ll_usb.c ****     {
 273              		.loc 1 141 5 is_stmt 1 view .LVU73
 141:Drivers/STM32F2xx_HAL_Driver/Src/stm32f2xx_ll_usb.c ****     {
 274              		.loc 1 141 29 is_stmt 0 view .LVU74
 275 001a 2A4B     		ldr	r3, .L30
 276 001c 0B44     		add	r3, r3, r1
 141:Drivers/STM32F2xx_HAL_Driver/Src/stm32f2xx_ll_usb.c ****     {
 277              		.loc 1 141 8 view .LVU75
 278 001e 2A4A     		ldr	r2, .L30+4
 279              	.LVL21:
 141:Drivers/STM32F2xx_HAL_Driver/Src/stm32f2xx_ll_usb.c ****     {
 280              		.loc 1 141 8 view .LVU76
 281 0020 9342     		cmp	r3, r2
 282 0022 3DD9     		bls	.L20
 146:Drivers/STM32F2xx_HAL_Driver/Src/stm32f2xx_ll_usb.c ****     {
 283              		.loc 1 146 10 is_stmt 1 view .LVU77
 146:Drivers/STM32F2xx_HAL_Driver/Src/stm32f2xx_ll_usb.c ****     {
 284              		.loc 1 146 34 is_stmt 0 view .LVU78
 285 0024 294B     		ldr	r3, .L30+8
 286 0026 0B44     		add	r3, r3, r1
 146:Drivers/STM32F2xx_HAL_Driver/Src/stm32f2xx_ll_usb.c ****     {
 287              		.loc 1 146 13 view .LVU79
 288 0028 294A     		ldr	r2, .L30+12
 289 002a 9342     		cmp	r3, r2
 290 002c 3AD9     		bls	.L21
 151:Drivers/STM32F2xx_HAL_Driver/Src/stm32f2xx_ll_usb.c ****     {
 291              		.loc 1 151 10 is_stmt 1 view .LVU80
ARM GAS  C:\Users\User\AppData\Local\Temp\ccY05dYU.s 			page 30


 151:Drivers/STM32F2xx_HAL_Driver/Src/stm32f2xx_ll_usb.c ****     {
 292              		.loc 1 151 34 is_stmt 0 view .LVU81
 293 002e A1F57403 		sub	r3, r1, #15990784
 294 0032 A3F51053 		sub	r3, r3, #9216
 151:Drivers/STM32F2xx_HAL_Driver/Src/stm32f2xx_ll_usb.c ****     {
 295              		.loc 1 151 13 view .LVU82
 296 0036 274A     		ldr	r2, .L30+16
 297 0038 9342     		cmp	r3, r2
 298 003a 35D9     		bls	.L22
 156:Drivers/STM32F2xx_HAL_Driver/Src/stm32f2xx_ll_usb.c ****     {
 299              		.loc 1 156 10 is_stmt 1 view .LVU83
 156:Drivers/STM32F2xx_HAL_Driver/Src/stm32f2xx_ll_usb.c ****     {
 300              		.loc 1 156 34 is_stmt 0 view .LVU84
 301 003c A1F18373 		sub	r3, r1, #17170432
 302 0040 A3F5E743 		sub	r3, r3, #29568
 156:Drivers/STM32F2xx_HAL_Driver/Src/stm32f2xx_ll_usb.c ****     {
 303              		.loc 1 156 13 view .LVU85
 304 0044 02F5C332 		add	r2, r2, #99840
 305 0048 A032     		adds	r2, r2, #160
 306 004a 9342     		cmp	r3, r2
 307 004c 2ED9     		bls	.L23
 161:Drivers/STM32F2xx_HAL_Driver/Src/stm32f2xx_ll_usb.c ****     {
 308              		.loc 1 161 10 is_stmt 1 view .LVU86
 161:Drivers/STM32F2xx_HAL_Driver/Src/stm32f2xx_ll_usb.c ****     {
 309              		.loc 1 161 34 is_stmt 0 view .LVU87
 310 004e 224B     		ldr	r3, .L30+20
 311 0050 0B44     		add	r3, r3, r1
 161:Drivers/STM32F2xx_HAL_Driver/Src/stm32f2xx_ll_usb.c ****     {
 312              		.loc 1 161 13 view .LVU88
 313 0052 224A     		ldr	r2, .L30+24
 314 0054 9342     		cmp	r3, r2
 315 0056 2BD9     		bls	.L24
 166:Drivers/STM32F2xx_HAL_Driver/Src/stm32f2xx_ll_usb.c ****     {
 316              		.loc 1 166 10 is_stmt 1 view .LVU89
 166:Drivers/STM32F2xx_HAL_Driver/Src/stm32f2xx_ll_usb.c ****     {
 317              		.loc 1 166 34 is_stmt 0 view .LVU90
 318 0058 214B     		ldr	r3, .L30+28
 319 005a 0B44     		add	r3, r3, r1
 166:Drivers/STM32F2xx_HAL_Driver/Src/stm32f2xx_ll_usb.c ****     {
 320              		.loc 1 166 13 view .LVU91
 321 005c 02F59222 		add	r2, r2, #299008
 322 0060 02F57872 		add	r2, r2, #992
 323 0064 9342     		cmp	r3, r2
 324 0066 25D9     		bls	.L25
 171:Drivers/STM32F2xx_HAL_Driver/Src/stm32f2xx_ll_usb.c ****     {
 325              		.loc 1 171 10 is_stmt 1 view .LVU92
 171:Drivers/STM32F2xx_HAL_Driver/Src/stm32f2xx_ll_usb.c ****     {
 326              		.loc 1 171 34 is_stmt 0 view .LVU93
 327 0068 1E4B     		ldr	r3, .L30+32
 328 006a 0B44     		add	r3, r3, r1
 171:Drivers/STM32F2xx_HAL_Driver/Src/stm32f2xx_ll_usb.c ****     {
 329              		.loc 1 171 13 view .LVU94
 330 006c 02F5C322 		add	r2, r2, #399360
 331 0070 02F52072 		add	r2, r2, #640
 332 0074 9342     		cmp	r3, r2
 333 0076 1FD9     		bls	.L26
 176:Drivers/STM32F2xx_HAL_Driver/Src/stm32f2xx_ll_usb.c ****     {
ARM GAS  C:\Users\User\AppData\Local\Temp\ccY05dYU.s 			page 31


 334              		.loc 1 176 10 is_stmt 1 view .LVU95
 176:Drivers/STM32F2xx_HAL_Driver/Src/stm32f2xx_ll_usb.c ****     {
 335              		.loc 1 176 34 is_stmt 0 view .LVU96
 336 0078 A1F1B773 		sub	r3, r1, #23986176
 337 007c A3F55853 		sub	r3, r3, #13824
 176:Drivers/STM32F2xx_HAL_Driver/Src/stm32f2xx_ll_usb.c ****     {
 338              		.loc 1 176 13 view .LVU97
 339 0080 02F5B712 		add	r2, r2, #1499136
 340 0084 02F55872 		add	r2, r2, #864
 341 0088 9342     		cmp	r3, r2
 342 008a 17D9     		bls	.L27
 181:Drivers/STM32F2xx_HAL_Driver/Src/stm32f2xx_ll_usb.c ****     {
 343              		.loc 1 181 10 is_stmt 1 view .LVU98
 181:Drivers/STM32F2xx_HAL_Driver/Src/stm32f2xx_ll_usb.c ****     {
 344              		.loc 1 181 34 is_stmt 0 view .LVU99
 345 008c 164B     		ldr	r3, .L30+36
 346 008e 0B44     		add	r3, r3, r1
 181:Drivers/STM32F2xx_HAL_Driver/Src/stm32f2xx_ll_usb.c ****     {
 347              		.loc 1 181 13 view .LVU100
 348 0090 02F51222 		add	r2, r2, #598016
 349 0094 02F5F862 		add	r2, r2, #1984
 350 0098 9342     		cmp	r3, r2
 351 009a 11D8     		bhi	.L28
 184:Drivers/STM32F2xx_HAL_Driver/Src/stm32f2xx_ll_usb.c ****     }
 352              		.loc 1 184 14 view .LVU101
 353 009c 0721     		movs	r1, #7
 354              	.LVL22:
 184:Drivers/STM32F2xx_HAL_Driver/Src/stm32f2xx_ll_usb.c ****     }
 355              		.loc 1 184 14 view .LVU102
 356 009e B2E7     		b	.L18
 357              	.LVL23:
 358              	.L20:
 144:Drivers/STM32F2xx_HAL_Driver/Src/stm32f2xx_ll_usb.c ****     }
 359              		.loc 1 144 14 view .LVU103
 360 00a0 0F21     		movs	r1, #15
 361              	.LVL24:
 144:Drivers/STM32F2xx_HAL_Driver/Src/stm32f2xx_ll_usb.c ****     }
 362              		.loc 1 144 14 view .LVU104
 363 00a2 B0E7     		b	.L18
 364              	.LVL25:
 365              	.L21:
 149:Drivers/STM32F2xx_HAL_Driver/Src/stm32f2xx_ll_usb.c ****     }
 366              		.loc 1 149 14 view .LVU105
 367 00a4 0E21     		movs	r1, #14
 368              	.LVL26:
 149:Drivers/STM32F2xx_HAL_Driver/Src/stm32f2xx_ll_usb.c ****     }
 369              		.loc 1 149 14 view .LVU106
 370 00a6 AEE7     		b	.L18
 371              	.LVL27:
 372              	.L22:
 154:Drivers/STM32F2xx_HAL_Driver/Src/stm32f2xx_ll_usb.c ****     }
 373              		.loc 1 154 14 view .LVU107
 374 00a8 0D21     		movs	r1, #13
 375              	.LVL28:
 154:Drivers/STM32F2xx_HAL_Driver/Src/stm32f2xx_ll_usb.c ****     }
 376              		.loc 1 154 14 view .LVU108
 377 00aa ACE7     		b	.L18
ARM GAS  C:\Users\User\AppData\Local\Temp\ccY05dYU.s 			page 32


 378              	.LVL29:
 379              	.L23:
 159:Drivers/STM32F2xx_HAL_Driver/Src/stm32f2xx_ll_usb.c ****     }
 380              		.loc 1 159 14 view .LVU109
 381 00ac 0C21     		movs	r1, #12
 382              	.LVL30:
 159:Drivers/STM32F2xx_HAL_Driver/Src/stm32f2xx_ll_usb.c ****     }
 383              		.loc 1 159 14 view .LVU110
 384 00ae AAE7     		b	.L18
 385              	.LVL31:
 386              	.L24:
 164:Drivers/STM32F2xx_HAL_Driver/Src/stm32f2xx_ll_usb.c ****     }
 387              		.loc 1 164 14 view .LVU111
 388 00b0 0B21     		movs	r1, #11
 389              	.LVL32:
 164:Drivers/STM32F2xx_HAL_Driver/Src/stm32f2xx_ll_usb.c ****     }
 390              		.loc 1 164 14 view .LVU112
 391 00b2 A8E7     		b	.L18
 392              	.LVL33:
 393              	.L25:
 169:Drivers/STM32F2xx_HAL_Driver/Src/stm32f2xx_ll_usb.c ****     }
 394              		.loc 1 169 14 view .LVU113
 395 00b4 0A21     		movs	r1, #10
 396              	.LVL34:
 169:Drivers/STM32F2xx_HAL_Driver/Src/stm32f2xx_ll_usb.c ****     }
 397              		.loc 1 169 14 view .LVU114
 398 00b6 A6E7     		b	.L18
 399              	.LVL35:
 400              	.L26:
 174:Drivers/STM32F2xx_HAL_Driver/Src/stm32f2xx_ll_usb.c ****     }
 401              		.loc 1 174 14 view .LVU115
 402 00b8 0921     		movs	r1, #9
 403              	.LVL36:
 174:Drivers/STM32F2xx_HAL_Driver/Src/stm32f2xx_ll_usb.c ****     }
 404              		.loc 1 174 14 view .LVU116
 405 00ba A4E7     		b	.L18
 406              	.LVL37:
 407              	.L27:
 179:Drivers/STM32F2xx_HAL_Driver/Src/stm32f2xx_ll_usb.c ****     }
 408              		.loc 1 179 14 view .LVU117
 409 00bc 0821     		movs	r1, #8
 410              	.LVL38:
 179:Drivers/STM32F2xx_HAL_Driver/Src/stm32f2xx_ll_usb.c ****     }
 411              		.loc 1 179 14 view .LVU118
 412 00be A2E7     		b	.L18
 413              	.LVL39:
 414              	.L28:
 189:Drivers/STM32F2xx_HAL_Driver/Src/stm32f2xx_ll_usb.c ****     }
 415              		.loc 1 189 14 view .LVU119
 416 00c0 0621     		movs	r1, #6
 417              	.LVL40:
 189:Drivers/STM32F2xx_HAL_Driver/Src/stm32f2xx_ll_usb.c ****     }
 418              		.loc 1 189 14 view .LVU120
 419 00c2 A0E7     		b	.L18
 420              	.L31:
 421              		.align	2
 422              	.L30:
ARM GAS  C:\Users\User\AppData\Local\Temp\ccY05dYU.s 			page 33


 423 00c4 405327FF 		.word	-14200000
 424 00c8 FF340C00 		.word	799999
 425 00cc 401E1BFF 		.word	-15000000
 426 00d0 3F420F00 		.word	999999
 427 00d4 7F4F1200 		.word	1199999
 428 00d8 60B6E5FE 		.word	-18500000
 429 00dc 5FE31600 		.word	1499999
 430 00e0 00D3CEFE 		.word	-20000000
 431 00e4 C05BB3FE 		.word	-21800000
 432 00e8 E05459FE 		.word	-27700000
 433              		.cfi_endproc
 434              	.LFE73:
 436              		.section	.text.USB_EnableGlobalInt,"ax",%progbits
 437              		.align	1
 438              		.global	USB_EnableGlobalInt
 439              		.syntax unified
 440              		.thumb
 441              		.thumb_func
 442              		.fpu softvfp
 444              	USB_EnableGlobalInt:
 445              	.LVL41:
 446              	.LFB74:
 214:Drivers/STM32F2xx_HAL_Driver/Src/stm32f2xx_ll_usb.c ****   USBx->GAHBCFG |= USB_OTG_GAHBCFG_GINT;
 447              		.loc 1 214 1 is_stmt 1 view -0
 448              		.cfi_startproc
 449              		@ args = 0, pretend = 0, frame = 0
 450              		@ frame_needed = 0, uses_anonymous_args = 0
 451              		@ link register save eliminated.
 215:Drivers/STM32F2xx_HAL_Driver/Src/stm32f2xx_ll_usb.c ****   return HAL_OK;
 452              		.loc 1 215 3 view .LVU122
 215:Drivers/STM32F2xx_HAL_Driver/Src/stm32f2xx_ll_usb.c ****   return HAL_OK;
 453              		.loc 1 215 17 is_stmt 0 view .LVU123
 454 0000 8368     		ldr	r3, [r0, #8]
 455 0002 43F00103 		orr	r3, r3, #1
 456 0006 8360     		str	r3, [r0, #8]
 216:Drivers/STM32F2xx_HAL_Driver/Src/stm32f2xx_ll_usb.c **** }
 457              		.loc 1 216 3 is_stmt 1 view .LVU124
 217:Drivers/STM32F2xx_HAL_Driver/Src/stm32f2xx_ll_usb.c **** 
 458              		.loc 1 217 1 is_stmt 0 view .LVU125
 459 0008 0020     		movs	r0, #0
 460              	.LVL42:
 217:Drivers/STM32F2xx_HAL_Driver/Src/stm32f2xx_ll_usb.c **** 
 461              		.loc 1 217 1 view .LVU126
 462 000a 7047     		bx	lr
 463              		.cfi_endproc
 464              	.LFE74:
 466              		.section	.text.USB_DisableGlobalInt,"ax",%progbits
 467              		.align	1
 468              		.global	USB_DisableGlobalInt
 469              		.syntax unified
 470              		.thumb
 471              		.thumb_func
 472              		.fpu softvfp
 474              	USB_DisableGlobalInt:
 475              	.LVL43:
 476              	.LFB75:
 226:Drivers/STM32F2xx_HAL_Driver/Src/stm32f2xx_ll_usb.c ****   USBx->GAHBCFG &= ~USB_OTG_GAHBCFG_GINT;
ARM GAS  C:\Users\User\AppData\Local\Temp\ccY05dYU.s 			page 34


 477              		.loc 1 226 1 is_stmt 1 view -0
 478              		.cfi_startproc
 479              		@ args = 0, pretend = 0, frame = 0
 480              		@ frame_needed = 0, uses_anonymous_args = 0
 481              		@ link register save eliminated.
 227:Drivers/STM32F2xx_HAL_Driver/Src/stm32f2xx_ll_usb.c ****   return HAL_OK;
 482              		.loc 1 227 3 view .LVU128
 227:Drivers/STM32F2xx_HAL_Driver/Src/stm32f2xx_ll_usb.c ****   return HAL_OK;
 483              		.loc 1 227 17 is_stmt 0 view .LVU129
 484 0000 8368     		ldr	r3, [r0, #8]
 485 0002 23F00103 		bic	r3, r3, #1
 486 0006 8360     		str	r3, [r0, #8]
 228:Drivers/STM32F2xx_HAL_Driver/Src/stm32f2xx_ll_usb.c **** }
 487              		.loc 1 228 3 is_stmt 1 view .LVU130
 229:Drivers/STM32F2xx_HAL_Driver/Src/stm32f2xx_ll_usb.c **** 
 488              		.loc 1 229 1 is_stmt 0 view .LVU131
 489 0008 0020     		movs	r0, #0
 490              	.LVL44:
 229:Drivers/STM32F2xx_HAL_Driver/Src/stm32f2xx_ll_usb.c **** 
 491              		.loc 1 229 1 view .LVU132
 492 000a 7047     		bx	lr
 493              		.cfi_endproc
 494              	.LFE75:
 496              		.section	.text.USB_SetCurrentMode,"ax",%progbits
 497              		.align	1
 498              		.global	USB_SetCurrentMode
 499              		.syntax unified
 500              		.thumb
 501              		.thumb_func
 502              		.fpu softvfp
 504              	USB_SetCurrentMode:
 505              	.LVL45:
 506              	.LFB76:
 242:Drivers/STM32F2xx_HAL_Driver/Src/stm32f2xx_ll_usb.c ****   USBx->GUSBCFG &= ~(USB_OTG_GUSBCFG_FHMOD | USB_OTG_GUSBCFG_FDMOD);
 507              		.loc 1 242 1 is_stmt 1 view -0
 508              		.cfi_startproc
 509              		@ args = 0, pretend = 0, frame = 0
 510              		@ frame_needed = 0, uses_anonymous_args = 0
 242:Drivers/STM32F2xx_HAL_Driver/Src/stm32f2xx_ll_usb.c ****   USBx->GUSBCFG &= ~(USB_OTG_GUSBCFG_FHMOD | USB_OTG_GUSBCFG_FDMOD);
 511              		.loc 1 242 1 is_stmt 0 view .LVU134
 512 0000 08B5     		push	{r3, lr}
 513              	.LCFI5:
 514              		.cfi_def_cfa_offset 8
 515              		.cfi_offset 3, -8
 516              		.cfi_offset 14, -4
 243:Drivers/STM32F2xx_HAL_Driver/Src/stm32f2xx_ll_usb.c **** 
 517              		.loc 1 243 3 is_stmt 1 view .LVU135
 243:Drivers/STM32F2xx_HAL_Driver/Src/stm32f2xx_ll_usb.c **** 
 518              		.loc 1 243 17 is_stmt 0 view .LVU136
 519 0002 C368     		ldr	r3, [r0, #12]
 520 0004 23F0C043 		bic	r3, r3, #1610612736
 521 0008 C360     		str	r3, [r0, #12]
 245:Drivers/STM32F2xx_HAL_Driver/Src/stm32f2xx_ll_usb.c ****   {
 522              		.loc 1 245 3 is_stmt 1 view .LVU137
 245:Drivers/STM32F2xx_HAL_Driver/Src/stm32f2xx_ll_usb.c ****   {
 523              		.loc 1 245 6 is_stmt 0 view .LVU138
 524 000a 0129     		cmp	r1, #1
ARM GAS  C:\Users\User\AppData\Local\Temp\ccY05dYU.s 			page 35


 525 000c 09D0     		beq	.L40
 249:Drivers/STM32F2xx_HAL_Driver/Src/stm32f2xx_ll_usb.c ****   {
 526              		.loc 1 249 8 is_stmt 1 view .LVU139
 249:Drivers/STM32F2xx_HAL_Driver/Src/stm32f2xx_ll_usb.c ****   {
 527              		.loc 1 249 11 is_stmt 0 view .LVU140
 528 000e 69B9     		cbnz	r1, .L38
 251:Drivers/STM32F2xx_HAL_Driver/Src/stm32f2xx_ll_usb.c ****   }
 529              		.loc 1 251 5 is_stmt 1 view .LVU141
 251:Drivers/STM32F2xx_HAL_Driver/Src/stm32f2xx_ll_usb.c ****   }
 530              		.loc 1 251 19 is_stmt 0 view .LVU142
 531 0010 C368     		ldr	r3, [r0, #12]
 532 0012 43F08043 		orr	r3, r3, #1073741824
 533 0016 C360     		str	r3, [r0, #12]
 534              	.L36:
 257:Drivers/STM32F2xx_HAL_Driver/Src/stm32f2xx_ll_usb.c **** 
 535              		.loc 1 257 3 is_stmt 1 view .LVU143
 536 0018 3220     		movs	r0, #50
 537              	.LVL46:
 257:Drivers/STM32F2xx_HAL_Driver/Src/stm32f2xx_ll_usb.c **** 
 538              		.loc 1 257 3 is_stmt 0 view .LVU144
 539 001a FFF7FEFF 		bl	HAL_Delay
 540              	.LVL47:
 259:Drivers/STM32F2xx_HAL_Driver/Src/stm32f2xx_ll_usb.c **** }
 541              		.loc 1 259 3 is_stmt 1 view .LVU145
 259:Drivers/STM32F2xx_HAL_Driver/Src/stm32f2xx_ll_usb.c **** }
 542              		.loc 1 259 10 is_stmt 0 view .LVU146
 543 001e 0020     		movs	r0, #0
 544              	.L37:
 260:Drivers/STM32F2xx_HAL_Driver/Src/stm32f2xx_ll_usb.c **** 
 545              		.loc 1 260 1 view .LVU147
 546 0020 08BD     		pop	{r3, pc}
 547              	.LVL48:
 548              	.L40:
 247:Drivers/STM32F2xx_HAL_Driver/Src/stm32f2xx_ll_usb.c ****   }
 549              		.loc 1 247 5 is_stmt 1 view .LVU148
 247:Drivers/STM32F2xx_HAL_Driver/Src/stm32f2xx_ll_usb.c ****   }
 550              		.loc 1 247 19 is_stmt 0 view .LVU149
 551 0022 C368     		ldr	r3, [r0, #12]
 552 0024 43F00053 		orr	r3, r3, #536870912
 553 0028 C360     		str	r3, [r0, #12]
 554 002a F5E7     		b	.L36
 555              	.L38:
 255:Drivers/STM32F2xx_HAL_Driver/Src/stm32f2xx_ll_usb.c ****   }
 556              		.loc 1 255 12 view .LVU150
 557 002c 0120     		movs	r0, #1
 558              	.LVL49:
 255:Drivers/STM32F2xx_HAL_Driver/Src/stm32f2xx_ll_usb.c ****   }
 559              		.loc 1 255 12 view .LVU151
 560 002e F7E7     		b	.L37
 561              		.cfi_endproc
 562              	.LFE76:
 564              		.section	.text.USB_FlushTxFifo,"ax",%progbits
 565              		.align	1
 566              		.global	USB_FlushTxFifo
 567              		.syntax unified
 568              		.thumb
 569              		.thumb_func
ARM GAS  C:\Users\User\AppData\Local\Temp\ccY05dYU.s 			page 36


 570              		.fpu softvfp
 572              	USB_FlushTxFifo:
 573              	.LVL50:
 574              	.LFB78:
 437:Drivers/STM32F2xx_HAL_Driver/Src/stm32f2xx_ll_usb.c ****   uint32_t count = 0U;
 575              		.loc 1 437 1 is_stmt 1 view -0
 576              		.cfi_startproc
 577              		@ args = 0, pretend = 0, frame = 0
 578              		@ frame_needed = 0, uses_anonymous_args = 0
 579              		@ link register save eliminated.
 438:Drivers/STM32F2xx_HAL_Driver/Src/stm32f2xx_ll_usb.c **** 
 580              		.loc 1 438 3 view .LVU153
 440:Drivers/STM32F2xx_HAL_Driver/Src/stm32f2xx_ll_usb.c **** 
 581              		.loc 1 440 3 view .LVU154
 440:Drivers/STM32F2xx_HAL_Driver/Src/stm32f2xx_ll_usb.c **** 
 582              		.loc 1 440 51 is_stmt 0 view .LVU155
 583 0000 8901     		lsls	r1, r1, #6
 584              	.LVL51:
 440:Drivers/STM32F2xx_HAL_Driver/Src/stm32f2xx_ll_usb.c **** 
 585              		.loc 1 440 44 view .LVU156
 586 0002 41F02001 		orr	r1, r1, #32
 440:Drivers/STM32F2xx_HAL_Driver/Src/stm32f2xx_ll_usb.c **** 
 587              		.loc 1 440 17 view .LVU157
 588 0006 0161     		str	r1, [r0, #16]
 438:Drivers/STM32F2xx_HAL_Driver/Src/stm32f2xx_ll_usb.c **** 
 589              		.loc 1 438 12 view .LVU158
 590 0008 0023     		movs	r3, #0
 591              	.LVL52:
 592              	.L43:
 442:Drivers/STM32F2xx_HAL_Driver/Src/stm32f2xx_ll_usb.c ****   {
 593              		.loc 1 442 3 is_stmt 1 view .LVU159
 444:Drivers/STM32F2xx_HAL_Driver/Src/stm32f2xx_ll_usb.c ****     {
 594              		.loc 1 444 5 view .LVU160
 444:Drivers/STM32F2xx_HAL_Driver/Src/stm32f2xx_ll_usb.c ****     {
 595              		.loc 1 444 8 is_stmt 0 view .LVU161
 596 000a 0133     		adds	r3, r3, #1
 597              	.LVL53:
 444:Drivers/STM32F2xx_HAL_Driver/Src/stm32f2xx_ll_usb.c ****     {
 598              		.loc 1 444 8 view .LVU162
 599 000c 054A     		ldr	r2, .L45
 600 000e 9342     		cmp	r3, r2
 601 0010 05D8     		bhi	.L44
 449:Drivers/STM32F2xx_HAL_Driver/Src/stm32f2xx_ll_usb.c **** 
 602              		.loc 1 449 15 view .LVU163
 603 0012 0269     		ldr	r2, [r0, #16]
 449:Drivers/STM32F2xx_HAL_Driver/Src/stm32f2xx_ll_usb.c **** 
 604              		.loc 1 449 3 view .LVU164
 605 0014 12F0200F 		tst	r2, #32
 606 0018 F7D1     		bne	.L43
 451:Drivers/STM32F2xx_HAL_Driver/Src/stm32f2xx_ll_usb.c **** }
 607              		.loc 1 451 10 view .LVU165
 608 001a 0020     		movs	r0, #0
 609              	.LVL54:
 451:Drivers/STM32F2xx_HAL_Driver/Src/stm32f2xx_ll_usb.c **** }
 610              		.loc 1 451 10 view .LVU166
 611 001c 7047     		bx	lr
 612              	.LVL55:
ARM GAS  C:\Users\User\AppData\Local\Temp\ccY05dYU.s 			page 37


 613              	.L44:
 446:Drivers/STM32F2xx_HAL_Driver/Src/stm32f2xx_ll_usb.c ****     }
 614              		.loc 1 446 14 view .LVU167
 615 001e 0320     		movs	r0, #3
 616              	.LVL56:
 452:Drivers/STM32F2xx_HAL_Driver/Src/stm32f2xx_ll_usb.c **** 
 617              		.loc 1 452 1 view .LVU168
 618 0020 7047     		bx	lr
 619              	.L46:
 620 0022 00BF     		.align	2
 621              	.L45:
 622 0024 400D0300 		.word	200000
 623              		.cfi_endproc
 624              	.LFE78:
 626              		.section	.text.USB_FlushRxFifo,"ax",%progbits
 627              		.align	1
 628              		.global	USB_FlushRxFifo
 629              		.syntax unified
 630              		.thumb
 631              		.thumb_func
 632              		.fpu softvfp
 634              	USB_FlushRxFifo:
 635              	.LVL57:
 636              	.LFB79:
 460:Drivers/STM32F2xx_HAL_Driver/Src/stm32f2xx_ll_usb.c ****   uint32_t count = 0;
 637              		.loc 1 460 1 is_stmt 1 view -0
 638              		.cfi_startproc
 639              		@ args = 0, pretend = 0, frame = 0
 640              		@ frame_needed = 0, uses_anonymous_args = 0
 641              		@ link register save eliminated.
 461:Drivers/STM32F2xx_HAL_Driver/Src/stm32f2xx_ll_usb.c **** 
 642              		.loc 1 461 3 view .LVU170
 463:Drivers/STM32F2xx_HAL_Driver/Src/stm32f2xx_ll_usb.c **** 
 643              		.loc 1 463 3 view .LVU171
 463:Drivers/STM32F2xx_HAL_Driver/Src/stm32f2xx_ll_usb.c **** 
 644              		.loc 1 463 17 is_stmt 0 view .LVU172
 645 0000 1023     		movs	r3, #16
 646 0002 0361     		str	r3, [r0, #16]
 461:Drivers/STM32F2xx_HAL_Driver/Src/stm32f2xx_ll_usb.c **** 
 647              		.loc 1 461 12 view .LVU173
 648 0004 0023     		movs	r3, #0
 649              	.LVL58:
 650              	.L49:
 465:Drivers/STM32F2xx_HAL_Driver/Src/stm32f2xx_ll_usb.c ****   {
 651              		.loc 1 465 3 is_stmt 1 view .LVU174
 467:Drivers/STM32F2xx_HAL_Driver/Src/stm32f2xx_ll_usb.c ****     {
 652              		.loc 1 467 5 view .LVU175
 467:Drivers/STM32F2xx_HAL_Driver/Src/stm32f2xx_ll_usb.c ****     {
 653              		.loc 1 467 8 is_stmt 0 view .LVU176
 654 0006 0133     		adds	r3, r3, #1
 655              	.LVL59:
 467:Drivers/STM32F2xx_HAL_Driver/Src/stm32f2xx_ll_usb.c ****     {
 656              		.loc 1 467 8 view .LVU177
 657 0008 054A     		ldr	r2, .L51
 658 000a 9342     		cmp	r3, r2
 659 000c 05D8     		bhi	.L50
 472:Drivers/STM32F2xx_HAL_Driver/Src/stm32f2xx_ll_usb.c **** 
ARM GAS  C:\Users\User\AppData\Local\Temp\ccY05dYU.s 			page 38


 660              		.loc 1 472 15 view .LVU178
 661 000e 0269     		ldr	r2, [r0, #16]
 472:Drivers/STM32F2xx_HAL_Driver/Src/stm32f2xx_ll_usb.c **** 
 662              		.loc 1 472 3 view .LVU179
 663 0010 12F0100F 		tst	r2, #16
 664 0014 F7D1     		bne	.L49
 474:Drivers/STM32F2xx_HAL_Driver/Src/stm32f2xx_ll_usb.c **** }
 665              		.loc 1 474 10 view .LVU180
 666 0016 0020     		movs	r0, #0
 667              	.LVL60:
 474:Drivers/STM32F2xx_HAL_Driver/Src/stm32f2xx_ll_usb.c **** }
 668              		.loc 1 474 10 view .LVU181
 669 0018 7047     		bx	lr
 670              	.LVL61:
 671              	.L50:
 469:Drivers/STM32F2xx_HAL_Driver/Src/stm32f2xx_ll_usb.c ****     }
 672              		.loc 1 469 14 view .LVU182
 673 001a 0320     		movs	r0, #3
 674              	.LVL62:
 475:Drivers/STM32F2xx_HAL_Driver/Src/stm32f2xx_ll_usb.c **** 
 675              		.loc 1 475 1 view .LVU183
 676 001c 7047     		bx	lr
 677              	.L52:
 678 001e 00BF     		.align	2
 679              	.L51:
 680 0020 400D0300 		.word	200000
 681              		.cfi_endproc
 682              	.LFE79:
 684              		.section	.text.USB_SetDevSpeed,"ax",%progbits
 685              		.align	1
 686              		.global	USB_SetDevSpeed
 687              		.syntax unified
 688              		.thumb
 689              		.thumb_func
 690              		.fpu softvfp
 692              	USB_SetDevSpeed:
 693              	.LVL63:
 694              	.LFB80:
 489:Drivers/STM32F2xx_HAL_Driver/Src/stm32f2xx_ll_usb.c ****   uint32_t USBx_BASE = (uint32_t)USBx;
 695              		.loc 1 489 1 is_stmt 1 view -0
 696              		.cfi_startproc
 697              		@ args = 0, pretend = 0, frame = 0
 698              		@ frame_needed = 0, uses_anonymous_args = 0
 699              		@ link register save eliminated.
 490:Drivers/STM32F2xx_HAL_Driver/Src/stm32f2xx_ll_usb.c **** 
 700              		.loc 1 490 3 view .LVU185
 492:Drivers/STM32F2xx_HAL_Driver/Src/stm32f2xx_ll_usb.c ****   return HAL_OK;
 701              		.loc 1 492 3 view .LVU186
 492:Drivers/STM32F2xx_HAL_Driver/Src/stm32f2xx_ll_usb.c ****   return HAL_OK;
 702              		.loc 1 492 21 is_stmt 0 view .LVU187
 703 0000 D0F80038 		ldr	r3, [r0, #2048]
 704 0004 1943     		orrs	r1, r1, r3
 705              	.LVL64:
 492:Drivers/STM32F2xx_HAL_Driver/Src/stm32f2xx_ll_usb.c ****   return HAL_OK;
 706              		.loc 1 492 21 view .LVU188
 707 0006 C0F80018 		str	r1, [r0, #2048]
 493:Drivers/STM32F2xx_HAL_Driver/Src/stm32f2xx_ll_usb.c **** }
ARM GAS  C:\Users\User\AppData\Local\Temp\ccY05dYU.s 			page 39


 708              		.loc 1 493 3 is_stmt 1 view .LVU189
 494:Drivers/STM32F2xx_HAL_Driver/Src/stm32f2xx_ll_usb.c **** 
 709              		.loc 1 494 1 is_stmt 0 view .LVU190
 710 000a 0020     		movs	r0, #0
 711              	.LVL65:
 494:Drivers/STM32F2xx_HAL_Driver/Src/stm32f2xx_ll_usb.c **** 
 712              		.loc 1 494 1 view .LVU191
 713 000c 7047     		bx	lr
 714              		.cfi_endproc
 715              	.LFE80:
 717              		.section	.text.USB_DevInit,"ax",%progbits
 718              		.align	1
 719              		.global	USB_DevInit
 720              		.syntax unified
 721              		.thumb
 722              		.thumb_func
 723              		.fpu softvfp
 725              	USB_DevInit:
 726              	.LVL66:
 727              	.LFB77:
 271:Drivers/STM32F2xx_HAL_Driver/Src/stm32f2xx_ll_usb.c ****   HAL_StatusTypeDef ret = HAL_OK;
 728              		.loc 1 271 1 is_stmt 1 view -0
 729              		.cfi_startproc
 730              		@ args = 56, pretend = 16, frame = 0
 731              		@ frame_needed = 0, uses_anonymous_args = 0
 271:Drivers/STM32F2xx_HAL_Driver/Src/stm32f2xx_ll_usb.c ****   HAL_StatusTypeDef ret = HAL_OK;
 732              		.loc 1 271 1 is_stmt 0 view .LVU193
 733 0000 84B0     		sub	sp, sp, #16
 734              	.LCFI6:
 735              		.cfi_def_cfa_offset 16
 736 0002 F8B5     		push	{r3, r4, r5, r6, r7, lr}
 737              	.LCFI7:
 738              		.cfi_def_cfa_offset 40
 739              		.cfi_offset 3, -40
 740              		.cfi_offset 4, -36
 741              		.cfi_offset 5, -32
 742              		.cfi_offset 6, -28
 743              		.cfi_offset 7, -24
 744              		.cfi_offset 14, -20
 745 0004 0446     		mov	r4, r0
 746 0006 07A8     		add	r0, sp, #28
 747              	.LVL67:
 271:Drivers/STM32F2xx_HAL_Driver/Src/stm32f2xx_ll_usb.c ****   HAL_StatusTypeDef ret = HAL_OK;
 748              		.loc 1 271 1 view .LVU194
 749 0008 80E80E00 		stm	r0, {r1, r2, r3}
 272:Drivers/STM32F2xx_HAL_Driver/Src/stm32f2xx_ll_usb.c ****   uint32_t USBx_BASE = (uint32_t)USBx;
 750              		.loc 1 272 3 is_stmt 1 view .LVU195
 751              	.LVL68:
 273:Drivers/STM32F2xx_HAL_Driver/Src/stm32f2xx_ll_usb.c ****   uint32_t i;
 752              		.loc 1 273 3 view .LVU196
 273:Drivers/STM32F2xx_HAL_Driver/Src/stm32f2xx_ll_usb.c ****   uint32_t i;
 753              		.loc 1 273 12 is_stmt 0 view .LVU197
 754 000c 2546     		mov	r5, r4
 755              	.LVL69:
 274:Drivers/STM32F2xx_HAL_Driver/Src/stm32f2xx_ll_usb.c **** 
 756              		.loc 1 274 3 is_stmt 1 view .LVU198
 276:Drivers/STM32F2xx_HAL_Driver/Src/stm32f2xx_ll_usb.c ****   {
ARM GAS  C:\Users\User\AppData\Local\Temp\ccY05dYU.s 			page 40


 757              		.loc 1 276 3 view .LVU199
 276:Drivers/STM32F2xx_HAL_Driver/Src/stm32f2xx_ll_usb.c ****   {
 758              		.loc 1 276 10 is_stmt 0 view .LVU200
 759 000e 0023     		movs	r3, #0
 760              	.LVL70:
 761              	.L55:
 276:Drivers/STM32F2xx_HAL_Driver/Src/stm32f2xx_ll_usb.c ****   {
 762              		.loc 1 276 3 discriminator 1 view .LVU201
 763 0010 0E2B     		cmp	r3, #14
 764 0012 07D8     		bhi	.L81
 278:Drivers/STM32F2xx_HAL_Driver/Src/stm32f2xx_ll_usb.c ****   }
 765              		.loc 1 278 5 is_stmt 1 discriminator 3 view .LVU202
 278:Drivers/STM32F2xx_HAL_Driver/Src/stm32f2xx_ll_usb.c ****   }
 766              		.loc 1 278 22 is_stmt 0 discriminator 3 view .LVU203
 767 0014 03F14002 		add	r2, r3, #64
 768 0018 04EB8202 		add	r2, r4, r2, lsl #2
 769 001c 0021     		movs	r1, #0
 770 001e 5160     		str	r1, [r2, #4]
 276:Drivers/STM32F2xx_HAL_Driver/Src/stm32f2xx_ll_usb.c ****   {
 771              		.loc 1 276 26 discriminator 3 view .LVU204
 772 0020 0133     		adds	r3, r3, #1
 773              	.LVL71:
 276:Drivers/STM32F2xx_HAL_Driver/Src/stm32f2xx_ll_usb.c ****   {
 774              		.loc 1 276 26 discriminator 3 view .LVU205
 775 0022 F5E7     		b	.L55
 776              	.L81:
 282:Drivers/STM32F2xx_HAL_Driver/Src/stm32f2xx_ll_usb.c ****   {
 777              		.loc 1 282 3 is_stmt 1 view .LVU206
 282:Drivers/STM32F2xx_HAL_Driver/Src/stm32f2xx_ll_usb.c ****   {
 778              		.loc 1 282 10 is_stmt 0 view .LVU207
 779 0024 119B     		ldr	r3, [sp, #68]
 780              	.LVL72:
 282:Drivers/STM32F2xx_HAL_Driver/Src/stm32f2xx_ll_usb.c ****   {
 781              		.loc 1 282 6 view .LVU208
 782 0026 F3B9     		cbnz	r3, .L57
 288:Drivers/STM32F2xx_HAL_Driver/Src/stm32f2xx_ll_usb.c ****     USBx->GCCFG &= ~USB_OTG_GCCFG_VBUSBSEN;
 783              		.loc 1 288 5 is_stmt 1 view .LVU209
 288:Drivers/STM32F2xx_HAL_Driver/Src/stm32f2xx_ll_usb.c ****     USBx->GCCFG &= ~USB_OTG_GCCFG_VBUSBSEN;
 784              		.loc 1 288 17 is_stmt 0 view .LVU210
 785 0028 A36B     		ldr	r3, [r4, #56]
 786 002a 43F40013 		orr	r3, r3, #2097152
 787 002e A363     		str	r3, [r4, #56]
 289:Drivers/STM32F2xx_HAL_Driver/Src/stm32f2xx_ll_usb.c ****     USBx->GCCFG &= ~USB_OTG_GCCFG_VBUSASEN;
 788              		.loc 1 289 5 is_stmt 1 view .LVU211
 289:Drivers/STM32F2xx_HAL_Driver/Src/stm32f2xx_ll_usb.c ****     USBx->GCCFG &= ~USB_OTG_GCCFG_VBUSASEN;
 789              		.loc 1 289 17 is_stmt 0 view .LVU212
 790 0030 A36B     		ldr	r3, [r4, #56]
 791 0032 23F40023 		bic	r3, r3, #524288
 792 0036 A363     		str	r3, [r4, #56]
 290:Drivers/STM32F2xx_HAL_Driver/Src/stm32f2xx_ll_usb.c ****   }
 793              		.loc 1 290 5 is_stmt 1 view .LVU213
 290:Drivers/STM32F2xx_HAL_Driver/Src/stm32f2xx_ll_usb.c ****   }
 794              		.loc 1 290 17 is_stmt 0 view .LVU214
 795 0038 A36B     		ldr	r3, [r4, #56]
 796 003a 23F48023 		bic	r3, r3, #262144
 797 003e A363     		str	r3, [r4, #56]
 798              	.L58:
ARM GAS  C:\Users\User\AppData\Local\Temp\ccY05dYU.s 			page 41


 300:Drivers/STM32F2xx_HAL_Driver/Src/stm32f2xx_ll_usb.c **** 
 799              		.loc 1 300 3 is_stmt 1 view .LVU215
 300:Drivers/STM32F2xx_HAL_Driver/Src/stm32f2xx_ll_usb.c **** 
 800              		.loc 1 300 16 is_stmt 0 view .LVU216
 801 0040 0023     		movs	r3, #0
 802 0042 C4F8003E 		str	r3, [r4, #3584]
 303:Drivers/STM32F2xx_HAL_Driver/Src/stm32f2xx_ll_usb.c **** 
 803              		.loc 1 303 3 is_stmt 1 view .LVU217
 303:Drivers/STM32F2xx_HAL_Driver/Src/stm32f2xx_ll_usb.c **** 
 804              		.loc 1 303 21 is_stmt 0 view .LVU218
 805 0046 04F50066 		add	r6, r4, #2048
 806 004a D4F80038 		ldr	r3, [r4, #2048]
 807 004e C4F80038 		str	r3, [r4, #2048]
 305:Drivers/STM32F2xx_HAL_Driver/Src/stm32f2xx_ll_usb.c ****   {
 808              		.loc 1 305 3 is_stmt 1 view .LVU219
 305:Drivers/STM32F2xx_HAL_Driver/Src/stm32f2xx_ll_usb.c ****   {
 809              		.loc 1 305 10 is_stmt 0 view .LVU220
 810 0052 0C9B     		ldr	r3, [sp, #48]
 305:Drivers/STM32F2xx_HAL_Driver/Src/stm32f2xx_ll_usb.c ****   {
 811              		.loc 1 305 6 view .LVU221
 812 0054 012B     		cmp	r3, #1
 813 0056 14D1     		bne	.L59
 307:Drivers/STM32F2xx_HAL_Driver/Src/stm32f2xx_ll_usb.c ****     {
 814              		.loc 1 307 5 is_stmt 1 view .LVU222
 307:Drivers/STM32F2xx_HAL_Driver/Src/stm32f2xx_ll_usb.c ****     {
 815              		.loc 1 307 12 is_stmt 0 view .LVU223
 816 0058 099B     		ldr	r3, [sp, #36]
 307:Drivers/STM32F2xx_HAL_Driver/Src/stm32f2xx_ll_usb.c ****     {
 817              		.loc 1 307 8 view .LVU224
 818 005a 6BB9     		cbnz	r3, .L60
 310:Drivers/STM32F2xx_HAL_Driver/Src/stm32f2xx_ll_usb.c ****     }
 819              		.loc 1 310 7 is_stmt 1 view .LVU225
 310:Drivers/STM32F2xx_HAL_Driver/Src/stm32f2xx_ll_usb.c ****     }
 820              		.loc 1 310 13 is_stmt 0 view .LVU226
 821 005c 0021     		movs	r1, #0
 822 005e 2046     		mov	r0, r4
 823 0060 FFF7FEFF 		bl	USB_SetDevSpeed
 824              	.LVL73:
 825 0064 11E0     		b	.L61
 826              	.L57:
 295:Drivers/STM32F2xx_HAL_Driver/Src/stm32f2xx_ll_usb.c ****     USBx->GCCFG |= USB_OTG_GCCFG_VBUSBSEN;
 827              		.loc 1 295 5 is_stmt 1 view .LVU227
 295:Drivers/STM32F2xx_HAL_Driver/Src/stm32f2xx_ll_usb.c ****     USBx->GCCFG |= USB_OTG_GCCFG_VBUSBSEN;
 828              		.loc 1 295 17 is_stmt 0 view .LVU228
 829 0066 A36B     		ldr	r3, [r4, #56]
 830 0068 23F40013 		bic	r3, r3, #2097152
 831 006c A363     		str	r3, [r4, #56]
 296:Drivers/STM32F2xx_HAL_Driver/Src/stm32f2xx_ll_usb.c ****   }
 832              		.loc 1 296 5 is_stmt 1 view .LVU229
 296:Drivers/STM32F2xx_HAL_Driver/Src/stm32f2xx_ll_usb.c ****   }
 833              		.loc 1 296 17 is_stmt 0 view .LVU230
 834 006e A36B     		ldr	r3, [r4, #56]
 835 0070 43F40023 		orr	r3, r3, #524288
 836 0074 A363     		str	r3, [r4, #56]
 837 0076 E3E7     		b	.L58
 838              	.L60:
 315:Drivers/STM32F2xx_HAL_Driver/Src/stm32f2xx_ll_usb.c ****     }
ARM GAS  C:\Users\User\AppData\Local\Temp\ccY05dYU.s 			page 42


 839              		.loc 1 315 7 is_stmt 1 view .LVU231
 315:Drivers/STM32F2xx_HAL_Driver/Src/stm32f2xx_ll_usb.c ****     }
 840              		.loc 1 315 13 is_stmt 0 view .LVU232
 841 0078 0121     		movs	r1, #1
 842 007a 2046     		mov	r0, r4
 843 007c FFF7FEFF 		bl	USB_SetDevSpeed
 844              	.LVL74:
 845 0080 03E0     		b	.L61
 846              	.L59:
 321:Drivers/STM32F2xx_HAL_Driver/Src/stm32f2xx_ll_usb.c ****   }
 847              		.loc 1 321 5 is_stmt 1 view .LVU233
 321:Drivers/STM32F2xx_HAL_Driver/Src/stm32f2xx_ll_usb.c ****   }
 848              		.loc 1 321 11 is_stmt 0 view .LVU234
 849 0082 0321     		movs	r1, #3
 850 0084 2046     		mov	r0, r4
 851 0086 FFF7FEFF 		bl	USB_SetDevSpeed
 852              	.LVL75:
 853              	.L61:
 325:Drivers/STM32F2xx_HAL_Driver/Src/stm32f2xx_ll_usb.c ****   {
 854              		.loc 1 325 3 is_stmt 1 view .LVU235
 325:Drivers/STM32F2xx_HAL_Driver/Src/stm32f2xx_ll_usb.c ****   {
 855              		.loc 1 325 7 is_stmt 0 view .LVU236
 856 008a 1021     		movs	r1, #16
 857 008c 2046     		mov	r0, r4
 858 008e FFF7FEFF 		bl	USB_FlushTxFifo
 859              	.LVL76:
 325:Drivers/STM32F2xx_HAL_Driver/Src/stm32f2xx_ll_usb.c ****   {
 860              		.loc 1 325 6 view .LVU237
 861 0092 0746     		mov	r7, r0
 862 0094 00B1     		cbz	r0, .L62
 327:Drivers/STM32F2xx_HAL_Driver/Src/stm32f2xx_ll_usb.c ****   }
 863              		.loc 1 327 9 view .LVU238
 864 0096 0127     		movs	r7, #1
 865              	.L62:
 866              	.LVL77:
 330:Drivers/STM32F2xx_HAL_Driver/Src/stm32f2xx_ll_usb.c ****   {
 867              		.loc 1 330 3 is_stmt 1 view .LVU239
 330:Drivers/STM32F2xx_HAL_Driver/Src/stm32f2xx_ll_usb.c ****   {
 868              		.loc 1 330 7 is_stmt 0 view .LVU240
 869 0098 2046     		mov	r0, r4
 870 009a FFF7FEFF 		bl	USB_FlushRxFifo
 871              	.LVL78:
 330:Drivers/STM32F2xx_HAL_Driver/Src/stm32f2xx_ll_usb.c ****   {
 872              		.loc 1 330 6 view .LVU241
 873 009e 00B1     		cbz	r0, .L63
 332:Drivers/STM32F2xx_HAL_Driver/Src/stm32f2xx_ll_usb.c ****   }
 874              		.loc 1 332 9 view .LVU242
 875 00a0 0127     		movs	r7, #1
 876              	.LVL79:
 877              	.L63:
 336:Drivers/STM32F2xx_HAL_Driver/Src/stm32f2xx_ll_usb.c ****   USBx_DEVICE->DOEPMSK = 0U;
 878              		.loc 1 336 3 is_stmt 1 view .LVU243
 336:Drivers/STM32F2xx_HAL_Driver/Src/stm32f2xx_ll_usb.c ****   USBx_DEVICE->DOEPMSK = 0U;
 879              		.loc 1 336 24 is_stmt 0 view .LVU244
 880 00a2 0023     		movs	r3, #0
 881 00a4 3361     		str	r3, [r6, #16]
 337:Drivers/STM32F2xx_HAL_Driver/Src/stm32f2xx_ll_usb.c ****   USBx_DEVICE->DAINTMSK = 0U;
ARM GAS  C:\Users\User\AppData\Local\Temp\ccY05dYU.s 			page 43


 882              		.loc 1 337 3 is_stmt 1 view .LVU245
 337:Drivers/STM32F2xx_HAL_Driver/Src/stm32f2xx_ll_usb.c ****   USBx_DEVICE->DAINTMSK = 0U;
 883              		.loc 1 337 24 is_stmt 0 view .LVU246
 884 00a6 7361     		str	r3, [r6, #20]
 338:Drivers/STM32F2xx_HAL_Driver/Src/stm32f2xx_ll_usb.c **** 
 885              		.loc 1 338 3 is_stmt 1 view .LVU247
 338:Drivers/STM32F2xx_HAL_Driver/Src/stm32f2xx_ll_usb.c **** 
 886              		.loc 1 338 25 is_stmt 0 view .LVU248
 887 00a8 F361     		str	r3, [r6, #28]
 340:Drivers/STM32F2xx_HAL_Driver/Src/stm32f2xx_ll_usb.c ****   {
 888              		.loc 1 340 3 is_stmt 1 view .LVU249
 889              	.LVL80:
 340:Drivers/STM32F2xx_HAL_Driver/Src/stm32f2xx_ll_usb.c ****   {
 890              		.loc 1 340 3 is_stmt 0 view .LVU250
 891 00aa 0AE0     		b	.L64
 892              	.LVL81:
 893              	.L83:
 344:Drivers/STM32F2xx_HAL_Driver/Src/stm32f2xx_ll_usb.c ****       {
 894              		.loc 1 344 7 is_stmt 1 view .LVU251
 344:Drivers/STM32F2xx_HAL_Driver/Src/stm32f2xx_ll_usb.c ****       {
 895              		.loc 1 344 10 is_stmt 0 view .LVU252
 896 00ac C3B9     		cbnz	r3, .L66
 346:Drivers/STM32F2xx_HAL_Driver/Src/stm32f2xx_ll_usb.c ****       }
 897              		.loc 1 346 9 is_stmt 1 view .LVU253
 346:Drivers/STM32F2xx_HAL_Driver/Src/stm32f2xx_ll_usb.c ****       }
 898              		.loc 1 346 31 is_stmt 0 view .LVU254
 899 00ae 4FF00060 		mov	r0, #134217728
 900 00b2 C2F80009 		str	r0, [r2, #2304]
 901              	.L67:
 358:Drivers/STM32F2xx_HAL_Driver/Src/stm32f2xx_ll_usb.c ****     USBx_INEP(i)->DIEPINT  = 0xFB7FU;
 902              		.loc 1 358 5 is_stmt 1 discriminator 2 view .LVU255
 358:Drivers/STM32F2xx_HAL_Driver/Src/stm32f2xx_ll_usb.c ****     USBx_INEP(i)->DIEPINT  = 0xFB7FU;
 903              		.loc 1 358 28 is_stmt 0 discriminator 2 view .LVU256
 904 00b6 0022     		movs	r2, #0
 905 00b8 0A61     		str	r2, [r1, #16]
 359:Drivers/STM32F2xx_HAL_Driver/Src/stm32f2xx_ll_usb.c ****   }
 906              		.loc 1 359 5 is_stmt 1 discriminator 2 view .LVU257
 359:Drivers/STM32F2xx_HAL_Driver/Src/stm32f2xx_ll_usb.c ****   }
 907              		.loc 1 359 28 is_stmt 0 discriminator 2 view .LVU258
 908 00ba 4FF67F32 		movw	r2, #64383
 909 00be 8A60     		str	r2, [r1, #8]
 340:Drivers/STM32F2xx_HAL_Driver/Src/stm32f2xx_ll_usb.c ****   {
 910              		.loc 1 340 40 discriminator 2 view .LVU259
 911 00c0 0133     		adds	r3, r3, #1
 912              	.LVL82:
 913              	.L64:
 340:Drivers/STM32F2xx_HAL_Driver/Src/stm32f2xx_ll_usb.c ****   {
 914              		.loc 1 340 23 discriminator 1 view .LVU260
 915 00c2 079A     		ldr	r2, [sp, #28]
 340:Drivers/STM32F2xx_HAL_Driver/Src/stm32f2xx_ll_usb.c ****   {
 916              		.loc 1 340 3 discriminator 1 view .LVU261
 917 00c4 9A42     		cmp	r2, r3
 918 00c6 10D9     		bls	.L82
 342:Drivers/STM32F2xx_HAL_Driver/Src/stm32f2xx_ll_usb.c ****     {
 919              		.loc 1 342 5 is_stmt 1 view .LVU262
 342:Drivers/STM32F2xx_HAL_Driver/Src/stm32f2xx_ll_usb.c ****     {
 920              		.loc 1 342 10 is_stmt 0 view .LVU263
ARM GAS  C:\Users\User\AppData\Local\Temp\ccY05dYU.s 			page 44


 921 00c8 05EB4312 		add	r2, r5, r3, lsl #5
 922 00cc 02F51061 		add	r1, r2, #2304
 342:Drivers/STM32F2xx_HAL_Driver/Src/stm32f2xx_ll_usb.c ****     {
 923              		.loc 1 342 22 view .LVU264
 924 00d0 D2F80009 		ldr	r0, [r2, #2304]
 342:Drivers/STM32F2xx_HAL_Driver/Src/stm32f2xx_ll_usb.c ****     {
 925              		.loc 1 342 8 view .LVU265
 926 00d4 0028     		cmp	r0, #0
 927 00d6 E9DB     		blt	.L83
 355:Drivers/STM32F2xx_HAL_Driver/Src/stm32f2xx_ll_usb.c ****     }
 928              		.loc 1 355 7 is_stmt 1 view .LVU266
 355:Drivers/STM32F2xx_HAL_Driver/Src/stm32f2xx_ll_usb.c ****     }
 929              		.loc 1 355 29 is_stmt 0 view .LVU267
 930 00d8 0020     		movs	r0, #0
 931 00da C2F80009 		str	r0, [r2, #2304]
 932 00de EAE7     		b	.L67
 933              	.L66:
 350:Drivers/STM32F2xx_HAL_Driver/Src/stm32f2xx_ll_usb.c ****       }
 934              		.loc 1 350 9 is_stmt 1 view .LVU268
 350:Drivers/STM32F2xx_HAL_Driver/Src/stm32f2xx_ll_usb.c ****       }
 935              		.loc 1 350 31 is_stmt 0 view .LVU269
 936 00e0 4FF09040 		mov	r0, #1207959552
 937 00e4 C2F80009 		str	r0, [r2, #2304]
 938 00e8 E5E7     		b	.L67
 939              	.L82:
 362:Drivers/STM32F2xx_HAL_Driver/Src/stm32f2xx_ll_usb.c ****   {
 940              		.loc 1 362 10 view .LVU270
 941 00ea 0023     		movs	r3, #0
 942              	.LVL83:
 362:Drivers/STM32F2xx_HAL_Driver/Src/stm32f2xx_ll_usb.c ****   {
 943              		.loc 1 362 10 view .LVU271
 944 00ec 0AE0     		b	.L69
 945              	.LVL84:
 946              	.L85:
 366:Drivers/STM32F2xx_HAL_Driver/Src/stm32f2xx_ll_usb.c ****       {
 947              		.loc 1 366 7 is_stmt 1 view .LVU272
 366:Drivers/STM32F2xx_HAL_Driver/Src/stm32f2xx_ll_usb.c ****       {
 948              		.loc 1 366 10 is_stmt 0 view .LVU273
 949 00ee C3B9     		cbnz	r3, .L71
 368:Drivers/STM32F2xx_HAL_Driver/Src/stm32f2xx_ll_usb.c ****       }
 950              		.loc 1 368 9 is_stmt 1 view .LVU274
 368:Drivers/STM32F2xx_HAL_Driver/Src/stm32f2xx_ll_usb.c ****       }
 951              		.loc 1 368 32 is_stmt 0 view .LVU275
 952 00f0 4FF00060 		mov	r0, #134217728
 953 00f4 C2F8000B 		str	r0, [r2, #2816]
 954              	.L72:
 380:Drivers/STM32F2xx_HAL_Driver/Src/stm32f2xx_ll_usb.c ****     USBx_OUTEP(i)->DOEPINT  = 0xFB7FU;
 955              		.loc 1 380 5 is_stmt 1 discriminator 2 view .LVU276
 380:Drivers/STM32F2xx_HAL_Driver/Src/stm32f2xx_ll_usb.c ****     USBx_OUTEP(i)->DOEPINT  = 0xFB7FU;
 956              		.loc 1 380 29 is_stmt 0 discriminator 2 view .LVU277
 957 00f8 0022     		movs	r2, #0
 958 00fa 0A61     		str	r2, [r1, #16]
 381:Drivers/STM32F2xx_HAL_Driver/Src/stm32f2xx_ll_usb.c ****   }
 959              		.loc 1 381 5 is_stmt 1 discriminator 2 view .LVU278
 381:Drivers/STM32F2xx_HAL_Driver/Src/stm32f2xx_ll_usb.c ****   }
 960              		.loc 1 381 29 is_stmt 0 discriminator 2 view .LVU279
 961 00fc 4FF67F32 		movw	r2, #64383
ARM GAS  C:\Users\User\AppData\Local\Temp\ccY05dYU.s 			page 45


 962 0100 8A60     		str	r2, [r1, #8]
 362:Drivers/STM32F2xx_HAL_Driver/Src/stm32f2xx_ll_usb.c ****   {
 963              		.loc 1 362 40 discriminator 2 view .LVU280
 964 0102 0133     		adds	r3, r3, #1
 965              	.LVL85:
 966              	.L69:
 362:Drivers/STM32F2xx_HAL_Driver/Src/stm32f2xx_ll_usb.c ****   {
 967              		.loc 1 362 23 discriminator 1 view .LVU281
 968 0104 079A     		ldr	r2, [sp, #28]
 362:Drivers/STM32F2xx_HAL_Driver/Src/stm32f2xx_ll_usb.c ****   {
 969              		.loc 1 362 3 discriminator 1 view .LVU282
 970 0106 9A42     		cmp	r2, r3
 971 0108 10D9     		bls	.L84
 364:Drivers/STM32F2xx_HAL_Driver/Src/stm32f2xx_ll_usb.c ****     {
 972              		.loc 1 364 5 is_stmt 1 view .LVU283
 364:Drivers/STM32F2xx_HAL_Driver/Src/stm32f2xx_ll_usb.c ****     {
 973              		.loc 1 364 10 is_stmt 0 view .LVU284
 974 010a 05EB4312 		add	r2, r5, r3, lsl #5
 975 010e 02F53061 		add	r1, r2, #2816
 364:Drivers/STM32F2xx_HAL_Driver/Src/stm32f2xx_ll_usb.c ****     {
 976              		.loc 1 364 23 view .LVU285
 977 0112 D2F8000B 		ldr	r0, [r2, #2816]
 364:Drivers/STM32F2xx_HAL_Driver/Src/stm32f2xx_ll_usb.c ****     {
 978              		.loc 1 364 8 view .LVU286
 979 0116 0028     		cmp	r0, #0
 980 0118 E9DB     		blt	.L85
 377:Drivers/STM32F2xx_HAL_Driver/Src/stm32f2xx_ll_usb.c ****     }
 981              		.loc 1 377 7 is_stmt 1 view .LVU287
 377:Drivers/STM32F2xx_HAL_Driver/Src/stm32f2xx_ll_usb.c ****     }
 982              		.loc 1 377 30 is_stmt 0 view .LVU288
 983 011a 0020     		movs	r0, #0
 984 011c C2F8000B 		str	r0, [r2, #2816]
 985 0120 EAE7     		b	.L72
 986              	.L71:
 372:Drivers/STM32F2xx_HAL_Driver/Src/stm32f2xx_ll_usb.c ****       }
 987              		.loc 1 372 9 is_stmt 1 view .LVU289
 372:Drivers/STM32F2xx_HAL_Driver/Src/stm32f2xx_ll_usb.c ****       }
 988              		.loc 1 372 32 is_stmt 0 view .LVU290
 989 0122 4FF09040 		mov	r0, #1207959552
 990 0126 C2F8000B 		str	r0, [r2, #2816]
 991 012a E5E7     		b	.L72
 992              	.L84:
 384:Drivers/STM32F2xx_HAL_Driver/Src/stm32f2xx_ll_usb.c **** 
 993              		.loc 1 384 3 is_stmt 1 view .LVU291
 384:Drivers/STM32F2xx_HAL_Driver/Src/stm32f2xx_ll_usb.c **** 
 994              		.loc 1 384 24 is_stmt 0 view .LVU292
 995 012c 3369     		ldr	r3, [r6, #16]
 996              	.LVL86:
 384:Drivers/STM32F2xx_HAL_Driver/Src/stm32f2xx_ll_usb.c **** 
 997              		.loc 1 384 24 view .LVU293
 998 012e 23F48073 		bic	r3, r3, #256
 999 0132 3361     		str	r3, [r6, #16]
 386:Drivers/STM32F2xx_HAL_Driver/Src/stm32f2xx_ll_usb.c ****   {
 1000              		.loc 1 386 3 is_stmt 1 view .LVU294
 386:Drivers/STM32F2xx_HAL_Driver/Src/stm32f2xx_ll_usb.c ****   {
 1001              		.loc 1 386 10 is_stmt 0 view .LVU295
 1002 0134 0A9B     		ldr	r3, [sp, #40]
ARM GAS  C:\Users\User\AppData\Local\Temp\ccY05dYU.s 			page 46


 386:Drivers/STM32F2xx_HAL_Driver/Src/stm32f2xx_ll_usb.c ****   {
 1003              		.loc 1 386 6 view .LVU296
 1004 0136 012B     		cmp	r3, #1
 1005 0138 1BD0     		beq	.L86
 1006              	.L74:
 398:Drivers/STM32F2xx_HAL_Driver/Src/stm32f2xx_ll_usb.c **** 
 1007              		.loc 1 398 3 is_stmt 1 view .LVU297
 398:Drivers/STM32F2xx_HAL_Driver/Src/stm32f2xx_ll_usb.c **** 
 1008              		.loc 1 398 17 is_stmt 0 view .LVU298
 1009 013a 0022     		movs	r2, #0
 1010 013c A261     		str	r2, [r4, #24]
 401:Drivers/STM32F2xx_HAL_Driver/Src/stm32f2xx_ll_usb.c **** 
 1011              		.loc 1 401 3 is_stmt 1 view .LVU299
 401:Drivers/STM32F2xx_HAL_Driver/Src/stm32f2xx_ll_usb.c **** 
 1012              		.loc 1 401 17 is_stmt 0 view .LVU300
 1013 013e 6FF08042 		mvn	r2, #1073741824
 1014 0142 6261     		str	r2, [r4, #20]
 404:Drivers/STM32F2xx_HAL_Driver/Src/stm32f2xx_ll_usb.c ****   {
 1015              		.loc 1 404 3 is_stmt 1 view .LVU301
 404:Drivers/STM32F2xx_HAL_Driver/Src/stm32f2xx_ll_usb.c ****   {
 1016              		.loc 1 404 6 is_stmt 0 view .LVU302
 1017 0144 1BB9     		cbnz	r3, .L75
 406:Drivers/STM32F2xx_HAL_Driver/Src/stm32f2xx_ll_usb.c ****   }
 1018              		.loc 1 406 5 is_stmt 1 view .LVU303
 406:Drivers/STM32F2xx_HAL_Driver/Src/stm32f2xx_ll_usb.c ****   }
 1019              		.loc 1 406 19 is_stmt 0 view .LVU304
 1020 0146 A369     		ldr	r3, [r4, #24]
 1021 0148 43F01003 		orr	r3, r3, #16
 1022 014c A361     		str	r3, [r4, #24]
 1023              	.L75:
 410:Drivers/STM32F2xx_HAL_Driver/Src/stm32f2xx_ll_usb.c ****                    USB_OTG_GINTMSK_ENUMDNEM | USB_OTG_GINTMSK_IEPINT |
 1024              		.loc 1 410 3 is_stmt 1 view .LVU305
 410:Drivers/STM32F2xx_HAL_Driver/Src/stm32f2xx_ll_usb.c ****                    USB_OTG_GINTMSK_ENUMDNEM | USB_OTG_GINTMSK_IEPINT |
 1025              		.loc 1 410 17 is_stmt 0 view .LVU306
 1026 014e A269     		ldr	r2, [r4, #24]
 1027 0150 104B     		ldr	r3, .L88
 1028 0152 1343     		orrs	r3, r3, r2
 1029 0154 A361     		str	r3, [r4, #24]
 415:Drivers/STM32F2xx_HAL_Driver/Src/stm32f2xx_ll_usb.c ****   {
 1030              		.loc 1 415 3 is_stmt 1 view .LVU307
 415:Drivers/STM32F2xx_HAL_Driver/Src/stm32f2xx_ll_usb.c ****   {
 1031              		.loc 1 415 10 is_stmt 0 view .LVU308
 1032 0156 0D9B     		ldr	r3, [sp, #52]
 415:Drivers/STM32F2xx_HAL_Driver/Src/stm32f2xx_ll_usb.c ****   {
 1033              		.loc 1 415 6 view .LVU309
 1034 0158 1BB1     		cbz	r3, .L76
 417:Drivers/STM32F2xx_HAL_Driver/Src/stm32f2xx_ll_usb.c ****   }
 1035              		.loc 1 417 5 is_stmt 1 view .LVU310
 417:Drivers/STM32F2xx_HAL_Driver/Src/stm32f2xx_ll_usb.c ****   }
 1036              		.loc 1 417 19 is_stmt 0 view .LVU311
 1037 015a A369     		ldr	r3, [r4, #24]
 1038 015c 43F00803 		orr	r3, r3, #8
 1039 0160 A361     		str	r3, [r4, #24]
 1040              	.L76:
 420:Drivers/STM32F2xx_HAL_Driver/Src/stm32f2xx_ll_usb.c ****   {
 1041              		.loc 1 420 3 is_stmt 1 view .LVU312
 420:Drivers/STM32F2xx_HAL_Driver/Src/stm32f2xx_ll_usb.c ****   {
ARM GAS  C:\Users\User\AppData\Local\Temp\ccY05dYU.s 			page 47


 1042              		.loc 1 420 10 is_stmt 0 view .LVU313
 1043 0162 119B     		ldr	r3, [sp, #68]
 420:Drivers/STM32F2xx_HAL_Driver/Src/stm32f2xx_ll_usb.c ****   {
 1044              		.loc 1 420 6 view .LVU314
 1045 0164 012B     		cmp	r3, #1
 1046 0166 0DD0     		beq	.L87
 1047              	.L77:
 425:Drivers/STM32F2xx_HAL_Driver/Src/stm32f2xx_ll_usb.c **** }
 1048              		.loc 1 425 3 is_stmt 1 view .LVU315
 426:Drivers/STM32F2xx_HAL_Driver/Src/stm32f2xx_ll_usb.c **** 
 1049              		.loc 1 426 1 is_stmt 0 view .LVU316
 1050 0168 3846     		mov	r0, r7
 1051 016a BDE8F840 		pop	{r3, r4, r5, r6, r7, lr}
 1052              	.LCFI8:
 1053              		.cfi_remember_state
 1054              		.cfi_restore 14
 1055              		.cfi_restore 7
 1056              		.cfi_restore 6
 1057              		.cfi_restore 5
 1058              		.cfi_restore 4
 1059              		.cfi_restore 3
 1060              		.cfi_def_cfa_offset 16
 1061              	.LVL87:
 426:Drivers/STM32F2xx_HAL_Driver/Src/stm32f2xx_ll_usb.c **** 
 1062              		.loc 1 426 1 view .LVU317
 1063 016e 04B0     		add	sp, sp, #16
 1064              	.LCFI9:
 1065              		.cfi_def_cfa_offset 0
 1066 0170 7047     		bx	lr
 1067              	.LVL88:
 1068              	.L86:
 1069              	.LCFI10:
 1070              		.cfi_restore_state
 389:Drivers/STM32F2xx_HAL_Driver/Src/stm32f2xx_ll_usb.c ****                            USB_OTG_DTHRCTL_RXTHRLEN_6;
 1071              		.loc 1 389 5 is_stmt 1 view .LVU318
 389:Drivers/STM32F2xx_HAL_Driver/Src/stm32f2xx_ll_usb.c ****                            USB_OTG_DTHRCTL_RXTHRLEN_6;
 1072              		.loc 1 389 26 is_stmt 0 view .LVU319
 1073 0172 094A     		ldr	r2, .L88+4
 1074 0174 3263     		str	r2, [r6, #48]
 392:Drivers/STM32F2xx_HAL_Driver/Src/stm32f2xx_ll_usb.c ****                             USB_OTG_DTHRCTL_ISOTHREN |
 1075              		.loc 1 392 5 is_stmt 1 view .LVU320
 392:Drivers/STM32F2xx_HAL_Driver/Src/stm32f2xx_ll_usb.c ****                             USB_OTG_DTHRCTL_ISOTHREN |
 1076              		.loc 1 392 26 is_stmt 0 view .LVU321
 1077 0176 326B     		ldr	r2, [r6, #48]
 1078 0178 42F48032 		orr	r2, r2, #65536
 1079 017c 42F00302 		orr	r2, r2, #3
 1080 0180 3263     		str	r2, [r6, #48]
 1081 0182 DAE7     		b	.L74
 1082              	.L87:
 422:Drivers/STM32F2xx_HAL_Driver/Src/stm32f2xx_ll_usb.c ****   }
 1083              		.loc 1 422 5 is_stmt 1 view .LVU322
 422:Drivers/STM32F2xx_HAL_Driver/Src/stm32f2xx_ll_usb.c ****   }
 1084              		.loc 1 422 19 is_stmt 0 view .LVU323
 1085 0184 A369     		ldr	r3, [r4, #24]
 1086 0186 43F08043 		orr	r3, r3, #1073741824
 1087 018a 43F00403 		orr	r3, r3, #4
 1088 018e A361     		str	r3, [r4, #24]
ARM GAS  C:\Users\User\AppData\Local\Temp\ccY05dYU.s 			page 48


 1089 0190 EAE7     		b	.L77
 1090              	.L89:
 1091 0192 00BF     		.align	2
 1092              	.L88:
 1093 0194 00383C80 		.word	-2143537152
 1094 0198 00018000 		.word	8388864
 1095              		.cfi_endproc
 1096              	.LFE77:
 1098              		.section	.text.USB_GetDevSpeed,"ax",%progbits
 1099              		.align	1
 1100              		.global	USB_GetDevSpeed
 1101              		.syntax unified
 1102              		.thumb
 1103              		.thumb_func
 1104              		.fpu softvfp
 1106              	USB_GetDevSpeed:
 1107              	.LVL89:
 1108              	.LFB81:
 505:Drivers/STM32F2xx_HAL_Driver/Src/stm32f2xx_ll_usb.c ****   uint32_t USBx_BASE = (uint32_t)USBx;
 1109              		.loc 1 505 1 is_stmt 1 view -0
 1110              		.cfi_startproc
 1111              		@ args = 0, pretend = 0, frame = 0
 1112              		@ frame_needed = 0, uses_anonymous_args = 0
 1113              		@ link register save eliminated.
 506:Drivers/STM32F2xx_HAL_Driver/Src/stm32f2xx_ll_usb.c ****   uint8_t speed;
 1114              		.loc 1 506 3 view .LVU325
 507:Drivers/STM32F2xx_HAL_Driver/Src/stm32f2xx_ll_usb.c ****   uint32_t DevEnumSpeed = USBx_DEVICE->DSTS & USB_OTG_DSTS_ENUMSPD;
 1115              		.loc 1 507 3 view .LVU326
 508:Drivers/STM32F2xx_HAL_Driver/Src/stm32f2xx_ll_usb.c **** 
 1116              		.loc 1 508 3 view .LVU327
 508:Drivers/STM32F2xx_HAL_Driver/Src/stm32f2xx_ll_usb.c **** 
 1117              		.loc 1 508 38 is_stmt 0 view .LVU328
 1118 0000 D0F80838 		ldr	r3, [r0, #2056]
 1119              	.LVL90:
 510:Drivers/STM32F2xx_HAL_Driver/Src/stm32f2xx_ll_usb.c ****   {
 1120              		.loc 1 510 3 is_stmt 1 view .LVU329
 510:Drivers/STM32F2xx_HAL_Driver/Src/stm32f2xx_ll_usb.c ****   {
 1121              		.loc 1 510 6 is_stmt 0 view .LVU330
 1122 0004 13F00603 		ands	r3, r3, #6
 1123              	.LVL91:
 510:Drivers/STM32F2xx_HAL_Driver/Src/stm32f2xx_ll_usb.c ****   {
 1124              		.loc 1 510 6 view .LVU331
 1125 0008 07D0     		beq	.L92
 514:Drivers/STM32F2xx_HAL_Driver/Src/stm32f2xx_ll_usb.c ****            (DevEnumSpeed == DSTS_ENUMSPD_FS_PHY_48MHZ))
 1126              		.loc 1 514 8 is_stmt 1 view .LVU332
 514:Drivers/STM32F2xx_HAL_Driver/Src/stm32f2xx_ll_usb.c ****            (DevEnumSpeed == DSTS_ENUMSPD_FS_PHY_48MHZ))
 1127              		.loc 1 514 11 is_stmt 0 view .LVU333
 1128 000a 022B     		cmp	r3, #2
 1129 000c 07D0     		beq	.L93
 514:Drivers/STM32F2xx_HAL_Driver/Src/stm32f2xx_ll_usb.c ****            (DevEnumSpeed == DSTS_ENUMSPD_FS_PHY_48MHZ))
 1130              		.loc 1 514 65 discriminator 1 view .LVU334
 1131 000e 062B     		cmp	r3, #6
 1132 0010 01D0     		beq	.L95
 521:Drivers/STM32F2xx_HAL_Driver/Src/stm32f2xx_ll_usb.c ****   }
 1133              		.loc 1 521 11 view .LVU335
 1134 0012 0F20     		movs	r0, #15
 1135              	.LVL92:
ARM GAS  C:\Users\User\AppData\Local\Temp\ccY05dYU.s 			page 49


 524:Drivers/STM32F2xx_HAL_Driver/Src/stm32f2xx_ll_usb.c **** }
 1136              		.loc 1 524 3 is_stmt 1 view .LVU336
 525:Drivers/STM32F2xx_HAL_Driver/Src/stm32f2xx_ll_usb.c **** 
 1137              		.loc 1 525 1 is_stmt 0 view .LVU337
 1138 0014 7047     		bx	lr
 1139              	.LVL93:
 1140              	.L95:
 517:Drivers/STM32F2xx_HAL_Driver/Src/stm32f2xx_ll_usb.c ****   }
 1141              		.loc 1 517 11 view .LVU338
 1142 0016 0220     		movs	r0, #2
 1143              	.LVL94:
 517:Drivers/STM32F2xx_HAL_Driver/Src/stm32f2xx_ll_usb.c ****   }
 1144              		.loc 1 517 11 view .LVU339
 1145 0018 7047     		bx	lr
 1146              	.LVL95:
 1147              	.L92:
 512:Drivers/STM32F2xx_HAL_Driver/Src/stm32f2xx_ll_usb.c ****   }
 1148              		.loc 1 512 11 view .LVU340
 1149 001a 0020     		movs	r0, #0
 1150              	.LVL96:
 512:Drivers/STM32F2xx_HAL_Driver/Src/stm32f2xx_ll_usb.c ****   }
 1151              		.loc 1 512 11 view .LVU341
 1152 001c 7047     		bx	lr
 1153              	.LVL97:
 1154              	.L93:
 517:Drivers/STM32F2xx_HAL_Driver/Src/stm32f2xx_ll_usb.c ****   }
 1155              		.loc 1 517 11 view .LVU342
 1156 001e 0220     		movs	r0, #2
 1157              	.LVL98:
 517:Drivers/STM32F2xx_HAL_Driver/Src/stm32f2xx_ll_usb.c ****   }
 1158              		.loc 1 517 11 view .LVU343
 1159 0020 7047     		bx	lr
 1160              		.cfi_endproc
 1161              	.LFE81:
 1163              		.section	.text.USB_ActivateEndpoint,"ax",%progbits
 1164              		.align	1
 1165              		.global	USB_ActivateEndpoint
 1166              		.syntax unified
 1167              		.thumb
 1168              		.thumb_func
 1169              		.fpu softvfp
 1171              	USB_ActivateEndpoint:
 1172              	.LVL99:
 1173              	.LFB82:
 534:Drivers/STM32F2xx_HAL_Driver/Src/stm32f2xx_ll_usb.c ****   uint32_t USBx_BASE = (uint32_t)USBx;
 1174              		.loc 1 534 1 is_stmt 1 view -0
 1175              		.cfi_startproc
 1176              		@ args = 0, pretend = 0, frame = 0
 1177              		@ frame_needed = 0, uses_anonymous_args = 0
 1178              		@ link register save eliminated.
 534:Drivers/STM32F2xx_HAL_Driver/Src/stm32f2xx_ll_usb.c ****   uint32_t USBx_BASE = (uint32_t)USBx;
 1179              		.loc 1 534 1 is_stmt 0 view .LVU345
 1180 0000 70B4     		push	{r4, r5, r6}
 1181              	.LCFI11:
 1182              		.cfi_def_cfa_offset 12
 1183              		.cfi_offset 4, -12
 1184              		.cfi_offset 5, -8
ARM GAS  C:\Users\User\AppData\Local\Temp\ccY05dYU.s 			page 50


 1185              		.cfi_offset 6, -4
 535:Drivers/STM32F2xx_HAL_Driver/Src/stm32f2xx_ll_usb.c ****   uint32_t epnum = (uint32_t)ep->num;
 1186              		.loc 1 535 3 is_stmt 1 view .LVU346
 1187              	.LVL100:
 536:Drivers/STM32F2xx_HAL_Driver/Src/stm32f2xx_ll_usb.c **** 
 1188              		.loc 1 536 3 view .LVU347
 536:Drivers/STM32F2xx_HAL_Driver/Src/stm32f2xx_ll_usb.c **** 
 1189              		.loc 1 536 32 is_stmt 0 view .LVU348
 1190 0002 0B78     		ldrb	r3, [r1]	@ zero_extendqisi2
 1191              	.LVL101:
 538:Drivers/STM32F2xx_HAL_Driver/Src/stm32f2xx_ll_usb.c ****   {
 1192              		.loc 1 538 3 is_stmt 1 view .LVU349
 538:Drivers/STM32F2xx_HAL_Driver/Src/stm32f2xx_ll_usb.c ****   {
 1193              		.loc 1 538 9 is_stmt 0 view .LVU350
 1194 0004 4A78     		ldrb	r2, [r1, #1]	@ zero_extendqisi2
 538:Drivers/STM32F2xx_HAL_Driver/Src/stm32f2xx_ll_usb.c ****   {
 1195              		.loc 1 538 6 view .LVU351
 1196 0006 012A     		cmp	r2, #1
 1197 0008 22D0     		beq	.L100
 552:Drivers/STM32F2xx_HAL_Driver/Src/stm32f2xx_ll_usb.c **** 
 1198              		.loc 1 552 5 is_stmt 1 view .LVU352
 552:Drivers/STM32F2xx_HAL_Driver/Src/stm32f2xx_ll_usb.c **** 
 1199              		.loc 1 552 27 is_stmt 0 view .LVU353
 1200 000a D0F81C28 		ldr	r2, [r0, #2076]
 552:Drivers/STM32F2xx_HAL_Driver/Src/stm32f2xx_ll_usb.c **** 
 1201              		.loc 1 552 82 view .LVU354
 1202 000e 03F00F06 		and	r6, r3, #15
 552:Drivers/STM32F2xx_HAL_Driver/Src/stm32f2xx_ll_usb.c **** 
 1203              		.loc 1 552 55 view .LVU355
 1204 0012 0124     		movs	r4, #1
 1205 0014 B440     		lsls	r4, r4, r6
 552:Drivers/STM32F2xx_HAL_Driver/Src/stm32f2xx_ll_usb.c **** 
 1206              		.loc 1 552 27 view .LVU356
 1207 0016 42EA0442 		orr	r2, r2, r4, lsl #16
 1208 001a C0F81C28 		str	r2, [r0, #2076]
 554:Drivers/STM32F2xx_HAL_Driver/Src/stm32f2xx_ll_usb.c ****     {
 1209              		.loc 1 554 5 is_stmt 1 view .LVU357
 554:Drivers/STM32F2xx_HAL_Driver/Src/stm32f2xx_ll_usb.c ****     {
 1210              		.loc 1 554 11 is_stmt 0 view .LVU358
 1211 001e 00EB4310 		add	r0, r0, r3, lsl #5
 1212              	.LVL102:
 554:Drivers/STM32F2xx_HAL_Driver/Src/stm32f2xx_ll_usb.c ****     {
 1213              		.loc 1 554 28 view .LVU359
 1214 0022 D0F8003B 		ldr	r3, [r0, #2816]
 1215              	.LVL103:
 554:Drivers/STM32F2xx_HAL_Driver/Src/stm32f2xx_ll_usb.c ****     {
 1216              		.loc 1 554 8 view .LVU360
 1217 0026 13F4004F 		tst	r3, #32768
 1218 002a 0ED1     		bne	.L98
 556:Drivers/STM32F2xx_HAL_Driver/Src/stm32f2xx_ll_usb.c ****                                     ((uint32_t)ep->type << 18) |
 1219              		.loc 1 556 7 is_stmt 1 view .LVU361
 556:Drivers/STM32F2xx_HAL_Driver/Src/stm32f2xx_ll_usb.c ****                                     ((uint32_t)ep->type << 18) |
 1220              		.loc 1 556 34 is_stmt 0 view .LVU362
 1221 002c D0F8003B 		ldr	r3, [r0, #2816]
 556:Drivers/STM32F2xx_HAL_Driver/Src/stm32f2xx_ll_usb.c ****                                     ((uint32_t)ep->type << 18) |
 1222              		.loc 1 556 40 view .LVU363
 1223 0030 8A68     		ldr	r2, [r1, #8]
ARM GAS  C:\Users\User\AppData\Local\Temp\ccY05dYU.s 			page 51


 556:Drivers/STM32F2xx_HAL_Driver/Src/stm32f2xx_ll_usb.c ****                                     ((uint32_t)ep->type << 18) |
 1224              		.loc 1 556 52 view .LVU364
 1225 0032 C2F30A02 		ubfx	r2, r2, #0, #11
 557:Drivers/STM32F2xx_HAL_Driver/Src/stm32f2xx_ll_usb.c ****                                     USB_OTG_DIEPCTL_SD0PID_SEVNFRM |
 1226              		.loc 1 557 50 view .LVU365
 1227 0036 C978     		ldrb	r1, [r1, #3]	@ zero_extendqisi2
 1228              	.LVL104:
 556:Drivers/STM32F2xx_HAL_Driver/Src/stm32f2xx_ll_usb.c ****                                     ((uint32_t)ep->type << 18) |
 1229              		.loc 1 556 77 view .LVU366
 1230 0038 42EA8142 		orr	r2, r2, r1, lsl #18
 556:Drivers/STM32F2xx_HAL_Driver/Src/stm32f2xx_ll_usb.c ****                                     ((uint32_t)ep->type << 18) |
 1231              		.loc 1 556 34 view .LVU367
 1232 003c 1343     		orrs	r3, r3, r2
 1233 003e 43F08053 		orr	r3, r3, #268435456
 1234 0042 43F40043 		orr	r3, r3, #32768
 1235 0046 C0F8003B 		str	r3, [r0, #2816]
 1236              	.L98:
 562:Drivers/STM32F2xx_HAL_Driver/Src/stm32f2xx_ll_usb.c **** }
 1237              		.loc 1 562 3 is_stmt 1 view .LVU368
 563:Drivers/STM32F2xx_HAL_Driver/Src/stm32f2xx_ll_usb.c **** 
 1238              		.loc 1 563 1 is_stmt 0 view .LVU369
 1239 004a 0020     		movs	r0, #0
 1240 004c 70BC     		pop	{r4, r5, r6}
 1241              	.LCFI12:
 1242              		.cfi_remember_state
 1243              		.cfi_restore 6
 1244              		.cfi_restore 5
 1245              		.cfi_restore 4
 1246              		.cfi_def_cfa_offset 0
 1247 004e 7047     		bx	lr
 1248              	.LVL105:
 1249              	.L100:
 1250              	.LCFI13:
 1251              		.cfi_restore_state
 540:Drivers/STM32F2xx_HAL_Driver/Src/stm32f2xx_ll_usb.c **** 
 1252              		.loc 1 540 5 is_stmt 1 view .LVU370
 540:Drivers/STM32F2xx_HAL_Driver/Src/stm32f2xx_ll_usb.c **** 
 1253              		.loc 1 540 27 is_stmt 0 view .LVU371
 1254 0050 D0F81C48 		ldr	r4, [r0, #2076]
 540:Drivers/STM32F2xx_HAL_Driver/Src/stm32f2xx_ll_usb.c **** 
 1255              		.loc 1 540 81 view .LVU372
 1256 0054 03F00F06 		and	r6, r3, #15
 540:Drivers/STM32F2xx_HAL_Driver/Src/stm32f2xx_ll_usb.c **** 
 1257              		.loc 1 540 54 view .LVU373
 1258 0058 B240     		lsls	r2, r2, r6
 540:Drivers/STM32F2xx_HAL_Driver/Src/stm32f2xx_ll_usb.c **** 
 1259              		.loc 1 540 52 view .LVU374
 1260 005a 92B2     		uxth	r2, r2
 540:Drivers/STM32F2xx_HAL_Driver/Src/stm32f2xx_ll_usb.c **** 
 1261              		.loc 1 540 27 view .LVU375
 1262 005c 2243     		orrs	r2, r2, r4
 1263 005e C0F81C28 		str	r2, [r0, #2076]
 542:Drivers/STM32F2xx_HAL_Driver/Src/stm32f2xx_ll_usb.c ****     {
 1264              		.loc 1 542 5 is_stmt 1 view .LVU376
 542:Drivers/STM32F2xx_HAL_Driver/Src/stm32f2xx_ll_usb.c ****     {
 1265              		.loc 1 542 10 is_stmt 0 view .LVU377
 1266 0062 00EB4310 		add	r0, r0, r3, lsl #5
ARM GAS  C:\Users\User\AppData\Local\Temp\ccY05dYU.s 			page 52


 1267              	.LVL106:
 542:Drivers/STM32F2xx_HAL_Driver/Src/stm32f2xx_ll_usb.c ****     {
 1268              		.loc 1 542 26 view .LVU378
 1269 0066 D0F80029 		ldr	r2, [r0, #2304]
 542:Drivers/STM32F2xx_HAL_Driver/Src/stm32f2xx_ll_usb.c ****     {
 1270              		.loc 1 542 8 view .LVU379
 1271 006a 12F4004F 		tst	r2, #32768
 1272 006e ECD1     		bne	.L98
 544:Drivers/STM32F2xx_HAL_Driver/Src/stm32f2xx_ll_usb.c ****                                    ((uint32_t)ep->type << 18) | (epnum << 22) |
 1273              		.loc 1 544 7 is_stmt 1 view .LVU380
 544:Drivers/STM32F2xx_HAL_Driver/Src/stm32f2xx_ll_usb.c ****                                    ((uint32_t)ep->type << 18) | (epnum << 22) |
 1274              		.loc 1 544 33 is_stmt 0 view .LVU381
 1275 0070 D0F80029 		ldr	r2, [r0, #2304]
 544:Drivers/STM32F2xx_HAL_Driver/Src/stm32f2xx_ll_usb.c ****                                    ((uint32_t)ep->type << 18) | (epnum << 22) |
 1276              		.loc 1 544 39 view .LVU382
 1277 0074 8C68     		ldr	r4, [r1, #8]
 544:Drivers/STM32F2xx_HAL_Driver/Src/stm32f2xx_ll_usb.c ****                                    ((uint32_t)ep->type << 18) | (epnum << 22) |
 1278              		.loc 1 544 51 view .LVU383
 1279 0076 C4F30A04 		ubfx	r4, r4, #0, #11
 545:Drivers/STM32F2xx_HAL_Driver/Src/stm32f2xx_ll_usb.c ****                                    USB_OTG_DIEPCTL_SD0PID_SEVNFRM |
 1280              		.loc 1 545 49 view .LVU384
 1281 007a C978     		ldrb	r1, [r1, #3]	@ zero_extendqisi2
 1282              	.LVL107:
 544:Drivers/STM32F2xx_HAL_Driver/Src/stm32f2xx_ll_usb.c ****                                    ((uint32_t)ep->type << 18) | (epnum << 22) |
 1283              		.loc 1 544 76 view .LVU385
 1284 007c 44EA8144 		orr	r4, r4, r1, lsl #18
 545:Drivers/STM32F2xx_HAL_Driver/Src/stm32f2xx_ll_usb.c ****                                    USB_OTG_DIEPCTL_SD0PID_SEVNFRM |
 1285              		.loc 1 545 63 view .LVU386
 1286 0080 44EA8353 		orr	r3, r4, r3, lsl #22
 1287              	.LVL108:
 544:Drivers/STM32F2xx_HAL_Driver/Src/stm32f2xx_ll_usb.c ****                                    ((uint32_t)ep->type << 18) | (epnum << 22) |
 1288              		.loc 1 544 33 view .LVU387
 1289 0084 1343     		orrs	r3, r3, r2
 1290 0086 43F08053 		orr	r3, r3, #268435456
 1291 008a 43F40043 		orr	r3, r3, #32768
 1292 008e C0F80039 		str	r3, [r0, #2304]
 1293 0092 DAE7     		b	.L98
 1294              		.cfi_endproc
 1295              	.LFE82:
 1297              		.section	.text.USB_ActivateDedicatedEndpoint,"ax",%progbits
 1298              		.align	1
 1299              		.global	USB_ActivateDedicatedEndpoint
 1300              		.syntax unified
 1301              		.thumb
 1302              		.thumb_func
 1303              		.fpu softvfp
 1305              	USB_ActivateDedicatedEndpoint:
 1306              	.LVL109:
 1307              	.LFB83:
 572:Drivers/STM32F2xx_HAL_Driver/Src/stm32f2xx_ll_usb.c ****   uint32_t USBx_BASE = (uint32_t)USBx;
 1308              		.loc 1 572 1 is_stmt 1 view -0
 1309              		.cfi_startproc
 1310              		@ args = 0, pretend = 0, frame = 0
 1311              		@ frame_needed = 0, uses_anonymous_args = 0
 1312              		@ link register save eliminated.
 572:Drivers/STM32F2xx_HAL_Driver/Src/stm32f2xx_ll_usb.c ****   uint32_t USBx_BASE = (uint32_t)USBx;
 1313              		.loc 1 572 1 is_stmt 0 view .LVU389
ARM GAS  C:\Users\User\AppData\Local\Temp\ccY05dYU.s 			page 53


 1314 0000 70B4     		push	{r4, r5, r6}
 1315              	.LCFI14:
 1316              		.cfi_def_cfa_offset 12
 1317              		.cfi_offset 4, -12
 1318              		.cfi_offset 5, -8
 1319              		.cfi_offset 6, -4
 573:Drivers/STM32F2xx_HAL_Driver/Src/stm32f2xx_ll_usb.c ****   uint32_t epnum = (uint32_t)ep->num;
 1320              		.loc 1 573 3 is_stmt 1 view .LVU390
 1321              	.LVL110:
 574:Drivers/STM32F2xx_HAL_Driver/Src/stm32f2xx_ll_usb.c **** 
 1322              		.loc 1 574 3 view .LVU391
 574:Drivers/STM32F2xx_HAL_Driver/Src/stm32f2xx_ll_usb.c **** 
 1323              		.loc 1 574 32 is_stmt 0 view .LVU392
 1324 0002 0A78     		ldrb	r2, [r1]	@ zero_extendqisi2
 1325              	.LVL111:
 577:Drivers/STM32F2xx_HAL_Driver/Src/stm32f2xx_ll_usb.c ****   {
 1326              		.loc 1 577 3 is_stmt 1 view .LVU393
 577:Drivers/STM32F2xx_HAL_Driver/Src/stm32f2xx_ll_usb.c ****   {
 1327              		.loc 1 577 9 is_stmt 0 view .LVU394
 1328 0004 4B78     		ldrb	r3, [r1, #1]	@ zero_extendqisi2
 577:Drivers/STM32F2xx_HAL_Driver/Src/stm32f2xx_ll_usb.c ****   {
 1329              		.loc 1 577 6 view .LVU395
 1330 0006 012B     		cmp	r3, #1
 1331 0008 23D0     		beq	.L107
 591:Drivers/STM32F2xx_HAL_Driver/Src/stm32f2xx_ll_usb.c ****     {
 1332              		.loc 1 591 5 is_stmt 1 view .LVU396
 591:Drivers/STM32F2xx_HAL_Driver/Src/stm32f2xx_ll_usb.c ****     {
 1333              		.loc 1 591 11 is_stmt 0 view .LVU397
 1334 000a 00EB4214 		add	r4, r0, r2, lsl #5
 591:Drivers/STM32F2xx_HAL_Driver/Src/stm32f2xx_ll_usb.c ****     {
 1335              		.loc 1 591 28 view .LVU398
 1336 000e D4F8003B 		ldr	r3, [r4, #2816]
 591:Drivers/STM32F2xx_HAL_Driver/Src/stm32f2xx_ll_usb.c ****     {
 1337              		.loc 1 591 8 view .LVU399
 1338 0012 13F4004F 		tst	r3, #32768
 1339 0016 0ED1     		bne	.L105
 593:Drivers/STM32F2xx_HAL_Driver/Src/stm32f2xx_ll_usb.c ****                                     ((uint32_t)ep->type << 18) | (epnum << 22) |
 1340              		.loc 1 593 7 is_stmt 1 view .LVU400
 593:Drivers/STM32F2xx_HAL_Driver/Src/stm32f2xx_ll_usb.c ****                                     ((uint32_t)ep->type << 18) | (epnum << 22) |
 1341              		.loc 1 593 34 is_stmt 0 view .LVU401
 1342 0018 D4F8005B 		ldr	r5, [r4, #2816]
 593:Drivers/STM32F2xx_HAL_Driver/Src/stm32f2xx_ll_usb.c ****                                     ((uint32_t)ep->type << 18) | (epnum << 22) |
 1343              		.loc 1 593 40 view .LVU402
 1344 001c 8B68     		ldr	r3, [r1, #8]
 593:Drivers/STM32F2xx_HAL_Driver/Src/stm32f2xx_ll_usb.c ****                                     ((uint32_t)ep->type << 18) | (epnum << 22) |
 1345              		.loc 1 593 52 view .LVU403
 1346 001e C3F30A03 		ubfx	r3, r3, #0, #11
 594:Drivers/STM32F2xx_HAL_Driver/Src/stm32f2xx_ll_usb.c ****                                     USB_OTG_DOEPCTL_USBAEP;
 1347              		.loc 1 594 50 view .LVU404
 1348 0022 CE78     		ldrb	r6, [r1, #3]	@ zero_extendqisi2
 593:Drivers/STM32F2xx_HAL_Driver/Src/stm32f2xx_ll_usb.c ****                                     ((uint32_t)ep->type << 18) | (epnum << 22) |
 1349              		.loc 1 593 77 view .LVU405
 1350 0024 43EA8643 		orr	r3, r3, r6, lsl #18
 594:Drivers/STM32F2xx_HAL_Driver/Src/stm32f2xx_ll_usb.c ****                                     USB_OTG_DOEPCTL_USBAEP;
 1351              		.loc 1 594 64 view .LVU406
 1352 0028 43EA8253 		orr	r3, r3, r2, lsl #22
 593:Drivers/STM32F2xx_HAL_Driver/Src/stm32f2xx_ll_usb.c ****                                     ((uint32_t)ep->type << 18) | (epnum << 22) |
ARM GAS  C:\Users\User\AppData\Local\Temp\ccY05dYU.s 			page 54


 1353              		.loc 1 593 34 view .LVU407
 1354 002c 2B43     		orrs	r3, r3, r5
 1355 002e 43F40043 		orr	r3, r3, #32768
 1356 0032 C4F8003B 		str	r3, [r4, #2816]
 1357              	.L105:
 598:Drivers/STM32F2xx_HAL_Driver/Src/stm32f2xx_ll_usb.c ****   }
 1358              		.loc 1 598 5 is_stmt 1 view .LVU408
 598:Drivers/STM32F2xx_HAL_Driver/Src/stm32f2xx_ll_usb.c ****   }
 1359              		.loc 1 598 27 is_stmt 0 view .LVU409
 1360 0036 D0F83C38 		ldr	r3, [r0, #2108]
 598:Drivers/STM32F2xx_HAL_Driver/Src/stm32f2xx_ll_usb.c ****   }
 1361              		.loc 1 598 76 view .LVU410
 1362 003a 0A78     		ldrb	r2, [r1]	@ zero_extendqisi2
 1363              	.LVL112:
 598:Drivers/STM32F2xx_HAL_Driver/Src/stm32f2xx_ll_usb.c ****   }
 1364              		.loc 1 598 82 view .LVU411
 1365 003c 02F00F01 		and	r1, r2, #15
 1366              	.LVL113:
 598:Drivers/STM32F2xx_HAL_Driver/Src/stm32f2xx_ll_usb.c ****   }
 1367              		.loc 1 598 55 view .LVU412
 1368 0040 0122     		movs	r2, #1
 1369 0042 8A40     		lsls	r2, r2, r1
 598:Drivers/STM32F2xx_HAL_Driver/Src/stm32f2xx_ll_usb.c ****   }
 1370              		.loc 1 598 27 view .LVU413
 1371 0044 43EA0243 		orr	r3, r3, r2, lsl #16
 1372 0048 C0F83C38 		str	r3, [r0, #2108]
 1373              	.L104:
 601:Drivers/STM32F2xx_HAL_Driver/Src/stm32f2xx_ll_usb.c **** }
 1374              		.loc 1 601 3 is_stmt 1 view .LVU414
 602:Drivers/STM32F2xx_HAL_Driver/Src/stm32f2xx_ll_usb.c **** 
 1375              		.loc 1 602 1 is_stmt 0 view .LVU415
 1376 004c 0020     		movs	r0, #0
 1377              	.LVL114:
 602:Drivers/STM32F2xx_HAL_Driver/Src/stm32f2xx_ll_usb.c **** 
 1378              		.loc 1 602 1 view .LVU416
 1379 004e 70BC     		pop	{r4, r5, r6}
 1380              	.LCFI15:
 1381              		.cfi_remember_state
 1382              		.cfi_restore 6
 1383              		.cfi_restore 5
 1384              		.cfi_restore 4
 1385              		.cfi_def_cfa_offset 0
 1386 0050 7047     		bx	lr
 1387              	.LVL115:
 1388              	.L107:
 1389              	.LCFI16:
 1390              		.cfi_restore_state
 579:Drivers/STM32F2xx_HAL_Driver/Src/stm32f2xx_ll_usb.c ****     {
 1391              		.loc 1 579 5 is_stmt 1 view .LVU417
 579:Drivers/STM32F2xx_HAL_Driver/Src/stm32f2xx_ll_usb.c ****     {
 1392              		.loc 1 579 11 is_stmt 0 view .LVU418
 1393 0052 00EB4215 		add	r5, r0, r2, lsl #5
 579:Drivers/STM32F2xx_HAL_Driver/Src/stm32f2xx_ll_usb.c ****     {
 1394              		.loc 1 579 27 view .LVU419
 1395 0056 D5F80039 		ldr	r3, [r5, #2304]
 579:Drivers/STM32F2xx_HAL_Driver/Src/stm32f2xx_ll_usb.c ****     {
 1396              		.loc 1 579 8 view .LVU420
ARM GAS  C:\Users\User\AppData\Local\Temp\ccY05dYU.s 			page 55


 1397 005a 13F4004F 		tst	r3, #32768
 1398 005e 10D1     		bne	.L103
 581:Drivers/STM32F2xx_HAL_Driver/Src/stm32f2xx_ll_usb.c ****                                    ((uint32_t)ep->type << 18) | (epnum << 22) |
 1399              		.loc 1 581 7 is_stmt 1 view .LVU421
 581:Drivers/STM32F2xx_HAL_Driver/Src/stm32f2xx_ll_usb.c ****                                    ((uint32_t)ep->type << 18) | (epnum << 22) |
 1400              		.loc 1 581 33 is_stmt 0 view .LVU422
 1401 0060 D5F80039 		ldr	r3, [r5, #2304]
 581:Drivers/STM32F2xx_HAL_Driver/Src/stm32f2xx_ll_usb.c ****                                    ((uint32_t)ep->type << 18) | (epnum << 22) |
 1402              		.loc 1 581 39 view .LVU423
 1403 0064 8C68     		ldr	r4, [r1, #8]
 581:Drivers/STM32F2xx_HAL_Driver/Src/stm32f2xx_ll_usb.c ****                                    ((uint32_t)ep->type << 18) | (epnum << 22) |
 1404              		.loc 1 581 51 view .LVU424
 1405 0066 C4F30A04 		ubfx	r4, r4, #0, #11
 582:Drivers/STM32F2xx_HAL_Driver/Src/stm32f2xx_ll_usb.c ****                                    USB_OTG_DIEPCTL_SD0PID_SEVNFRM |
 1406              		.loc 1 582 49 view .LVU425
 1407 006a CE78     		ldrb	r6, [r1, #3]	@ zero_extendqisi2
 581:Drivers/STM32F2xx_HAL_Driver/Src/stm32f2xx_ll_usb.c ****                                    ((uint32_t)ep->type << 18) | (epnum << 22) |
 1408              		.loc 1 581 76 view .LVU426
 1409 006c 44EA8644 		orr	r4, r4, r6, lsl #18
 582:Drivers/STM32F2xx_HAL_Driver/Src/stm32f2xx_ll_usb.c ****                                    USB_OTG_DIEPCTL_SD0PID_SEVNFRM |
 1410              		.loc 1 582 63 view .LVU427
 1411 0070 44EA8252 		orr	r2, r4, r2, lsl #22
 1412              	.LVL116:
 581:Drivers/STM32F2xx_HAL_Driver/Src/stm32f2xx_ll_usb.c ****                                    ((uint32_t)ep->type << 18) | (epnum << 22) |
 1413              		.loc 1 581 33 view .LVU428
 1414 0074 1343     		orrs	r3, r3, r2
 1415 0076 43F08053 		orr	r3, r3, #268435456
 1416 007a 43F40043 		orr	r3, r3, #32768
 1417 007e C5F80039 		str	r3, [r5, #2304]
 1418              	.LVL117:
 1419              	.L103:
 587:Drivers/STM32F2xx_HAL_Driver/Src/stm32f2xx_ll_usb.c ****   }
 1420              		.loc 1 587 5 is_stmt 1 view .LVU429
 587:Drivers/STM32F2xx_HAL_Driver/Src/stm32f2xx_ll_usb.c ****   }
 1421              		.loc 1 587 27 is_stmt 0 view .LVU430
 1422 0082 D0F83C28 		ldr	r2, [r0, #2108]
 587:Drivers/STM32F2xx_HAL_Driver/Src/stm32f2xx_ll_usb.c ****   }
 1423              		.loc 1 587 75 view .LVU431
 1424 0086 0B78     		ldrb	r3, [r1]	@ zero_extendqisi2
 587:Drivers/STM32F2xx_HAL_Driver/Src/stm32f2xx_ll_usb.c ****   }
 1425              		.loc 1 587 81 view .LVU432
 1426 0088 03F00F01 		and	r1, r3, #15
 1427              	.LVL118:
 587:Drivers/STM32F2xx_HAL_Driver/Src/stm32f2xx_ll_usb.c ****   }
 1428              		.loc 1 587 54 view .LVU433
 1429 008c 0123     		movs	r3, #1
 1430 008e 8B40     		lsls	r3, r3, r1
 587:Drivers/STM32F2xx_HAL_Driver/Src/stm32f2xx_ll_usb.c ****   }
 1431              		.loc 1 587 52 view .LVU434
 1432 0090 9BB2     		uxth	r3, r3
 587:Drivers/STM32F2xx_HAL_Driver/Src/stm32f2xx_ll_usb.c ****   }
 1433              		.loc 1 587 27 view .LVU435
 1434 0092 1343     		orrs	r3, r3, r2
 1435 0094 C0F83C38 		str	r3, [r0, #2108]
 1436 0098 D8E7     		b	.L104
 1437              		.cfi_endproc
 1438              	.LFE83:
ARM GAS  C:\Users\User\AppData\Local\Temp\ccY05dYU.s 			page 56


 1440              		.section	.text.USB_DeactivateEndpoint,"ax",%progbits
 1441              		.align	1
 1442              		.global	USB_DeactivateEndpoint
 1443              		.syntax unified
 1444              		.thumb
 1445              		.thumb_func
 1446              		.fpu softvfp
 1448              	USB_DeactivateEndpoint:
 1449              	.LVL119:
 1450              	.LFB84:
 611:Drivers/STM32F2xx_HAL_Driver/Src/stm32f2xx_ll_usb.c ****   uint32_t USBx_BASE = (uint32_t)USBx;
 1451              		.loc 1 611 1 is_stmt 1 view -0
 1452              		.cfi_startproc
 1453              		@ args = 0, pretend = 0, frame = 0
 1454              		@ frame_needed = 0, uses_anonymous_args = 0
 1455              		@ link register save eliminated.
 611:Drivers/STM32F2xx_HAL_Driver/Src/stm32f2xx_ll_usb.c ****   uint32_t USBx_BASE = (uint32_t)USBx;
 1456              		.loc 1 611 1 is_stmt 0 view .LVU437
 1457 0000 70B4     		push	{r4, r5, r6}
 1458              	.LCFI17:
 1459              		.cfi_def_cfa_offset 12
 1460              		.cfi_offset 4, -12
 1461              		.cfi_offset 5, -8
 1462              		.cfi_offset 6, -4
 612:Drivers/STM32F2xx_HAL_Driver/Src/stm32f2xx_ll_usb.c ****   uint32_t epnum = (uint32_t)ep->num;
 1463              		.loc 1 612 3 is_stmt 1 view .LVU438
 1464              	.LVL120:
 613:Drivers/STM32F2xx_HAL_Driver/Src/stm32f2xx_ll_usb.c **** 
 1465              		.loc 1 613 3 view .LVU439
 613:Drivers/STM32F2xx_HAL_Driver/Src/stm32f2xx_ll_usb.c **** 
 1466              		.loc 1 613 32 is_stmt 0 view .LVU440
 1467 0002 0B78     		ldrb	r3, [r1]	@ zero_extendqisi2
 1468              	.LVL121:
 616:Drivers/STM32F2xx_HAL_Driver/Src/stm32f2xx_ll_usb.c ****   {
 1469              		.loc 1 616 3 is_stmt 1 view .LVU441
 616:Drivers/STM32F2xx_HAL_Driver/Src/stm32f2xx_ll_usb.c ****   {
 1470              		.loc 1 616 9 is_stmt 0 view .LVU442
 1471 0004 4A78     		ldrb	r2, [r1, #1]	@ zero_extendqisi2
 616:Drivers/STM32F2xx_HAL_Driver/Src/stm32f2xx_ll_usb.c ****   {
 1472              		.loc 1 616 6 view .LVU443
 1473 0006 012A     		cmp	r2, #1
 1474 0008 1FD0     		beq	.L112
 628:Drivers/STM32F2xx_HAL_Driver/Src/stm32f2xx_ll_usb.c ****     USBx_DEVICE->DAINTMSK &= ~(USB_OTG_DAINTMSK_OEPM & ((uint32_t)(1UL << (ep->num & EP_ADDR_MSK)) 
 1475              		.loc 1 628 5 is_stmt 1 view .LVU444
 628:Drivers/STM32F2xx_HAL_Driver/Src/stm32f2xx_ll_usb.c ****     USBx_DEVICE->DAINTMSK &= ~(USB_OTG_DAINTMSK_OEPM & ((uint32_t)(1UL << (ep->num & EP_ADDR_MSK)) 
 1476              		.loc 1 628 27 is_stmt 0 view .LVU445
 1477 000a D0F83C58 		ldr	r5, [r0, #2108]
 628:Drivers/STM32F2xx_HAL_Driver/Src/stm32f2xx_ll_usb.c ****     USBx_DEVICE->DAINTMSK &= ~(USB_OTG_DAINTMSK_OEPM & ((uint32_t)(1UL << (ep->num & EP_ADDR_MSK)) 
 1478              		.loc 1 628 84 view .LVU446
 1479 000e 03F00F06 		and	r6, r3, #15
 628:Drivers/STM32F2xx_HAL_Driver/Src/stm32f2xx_ll_usb.c ****     USBx_DEVICE->DAINTMSK &= ~(USB_OTG_DAINTMSK_OEPM & ((uint32_t)(1UL << (ep->num & EP_ADDR_MSK)) 
 1480              		.loc 1 628 57 view .LVU447
 1481 0012 0124     		movs	r4, #1
 1482 0014 04FA06F6 		lsl	r6, r4, r6
 628:Drivers/STM32F2xx_HAL_Driver/Src/stm32f2xx_ll_usb.c ****     USBx_DEVICE->DAINTMSK &= ~(USB_OTG_DAINTMSK_OEPM & ((uint32_t)(1UL << (ep->num & EP_ADDR_MSK)) 
 1483              		.loc 1 628 27 view .LVU448
 1484 0018 25EA0645 		bic	r5, r5, r6, lsl #16
ARM GAS  C:\Users\User\AppData\Local\Temp\ccY05dYU.s 			page 57


 1485 001c C0F83C58 		str	r5, [r0, #2108]
 629:Drivers/STM32F2xx_HAL_Driver/Src/stm32f2xx_ll_usb.c ****     USBx_OUTEP(epnum)->DOEPCTL &= ~(USB_OTG_DOEPCTL_USBAEP |
 1486              		.loc 1 629 5 is_stmt 1 view .LVU449
 629:Drivers/STM32F2xx_HAL_Driver/Src/stm32f2xx_ll_usb.c ****     USBx_OUTEP(epnum)->DOEPCTL &= ~(USB_OTG_DOEPCTL_USBAEP |
 1487              		.loc 1 629 27 is_stmt 0 view .LVU450
 1488 0020 D0F81C58 		ldr	r5, [r0, #2076]
 629:Drivers/STM32F2xx_HAL_Driver/Src/stm32f2xx_ll_usb.c ****     USBx_OUTEP(epnum)->DOEPCTL &= ~(USB_OTG_DOEPCTL_USBAEP |
 1489              		.loc 1 629 78 view .LVU451
 1490 0024 0978     		ldrb	r1, [r1]	@ zero_extendqisi2
 1491              	.LVL122:
 629:Drivers/STM32F2xx_HAL_Driver/Src/stm32f2xx_ll_usb.c ****     USBx_OUTEP(epnum)->DOEPCTL &= ~(USB_OTG_DOEPCTL_USBAEP |
 1492              		.loc 1 629 84 view .LVU452
 1493 0026 01F00F01 		and	r1, r1, #15
 629:Drivers/STM32F2xx_HAL_Driver/Src/stm32f2xx_ll_usb.c ****     USBx_OUTEP(epnum)->DOEPCTL &= ~(USB_OTG_DOEPCTL_USBAEP |
 1494              		.loc 1 629 57 view .LVU453
 1495 002a 8C40     		lsls	r4, r4, r1
 629:Drivers/STM32F2xx_HAL_Driver/Src/stm32f2xx_ll_usb.c ****     USBx_OUTEP(epnum)->DOEPCTL &= ~(USB_OTG_DOEPCTL_USBAEP |
 1496              		.loc 1 629 27 view .LVU454
 1497 002c 25EA0444 		bic	r4, r5, r4, lsl #16
 1498 0030 C0F81C48 		str	r4, [r0, #2076]
 630:Drivers/STM32F2xx_HAL_Driver/Src/stm32f2xx_ll_usb.c ****                                     USB_OTG_DOEPCTL_MPSIZ |
 1499              		.loc 1 630 5 is_stmt 1 view .LVU455
 630:Drivers/STM32F2xx_HAL_Driver/Src/stm32f2xx_ll_usb.c ****                                     USB_OTG_DOEPCTL_MPSIZ |
 1500              		.loc 1 630 32 is_stmt 0 view .LVU456
 1501 0034 00EB4310 		add	r0, r0, r3, lsl #5
 1502              	.LVL123:
 630:Drivers/STM32F2xx_HAL_Driver/Src/stm32f2xx_ll_usb.c ****                                     USB_OTG_DOEPCTL_MPSIZ |
 1503              		.loc 1 630 32 view .LVU457
 1504 0038 D0F8002B 		ldr	r2, [r0, #2816]
 1505 003c 124B     		ldr	r3, .L113
 1506              	.LVL124:
 630:Drivers/STM32F2xx_HAL_Driver/Src/stm32f2xx_ll_usb.c ****                                     USB_OTG_DOEPCTL_MPSIZ |
 1507              		.loc 1 630 32 view .LVU458
 1508 003e 1340     		ands	r3, r3, r2
 1509 0040 C0F8003B 		str	r3, [r0, #2816]
 1510              	.L110:
 636:Drivers/STM32F2xx_HAL_Driver/Src/stm32f2xx_ll_usb.c **** }
 1511              		.loc 1 636 3 is_stmt 1 view .LVU459
 637:Drivers/STM32F2xx_HAL_Driver/Src/stm32f2xx_ll_usb.c **** 
 1512              		.loc 1 637 1 is_stmt 0 view .LVU460
 1513 0044 0020     		movs	r0, #0
 1514 0046 70BC     		pop	{r4, r5, r6}
 1515              	.LCFI18:
 1516              		.cfi_remember_state
 1517              		.cfi_restore 6
 1518              		.cfi_restore 5
 1519              		.cfi_restore 4
 1520              		.cfi_def_cfa_offset 0
 1521 0048 7047     		bx	lr
 1522              	.LVL125:
 1523              	.L112:
 1524              	.LCFI19:
 1525              		.cfi_restore_state
 618:Drivers/STM32F2xx_HAL_Driver/Src/stm32f2xx_ll_usb.c ****     USBx_DEVICE->DAINTMSK &= ~(USB_OTG_DAINTMSK_IEPM & (uint32_t)(1UL << (ep->num & EP_ADDR_MSK)));
 1526              		.loc 1 618 5 is_stmt 1 view .LVU461
 618:Drivers/STM32F2xx_HAL_Driver/Src/stm32f2xx_ll_usb.c ****     USBx_DEVICE->DAINTMSK &= ~(USB_OTG_DAINTMSK_IEPM & (uint32_t)(1UL << (ep->num & EP_ADDR_MSK)));
 1527              		.loc 1 618 27 is_stmt 0 view .LVU462
ARM GAS  C:\Users\User\AppData\Local\Temp\ccY05dYU.s 			page 58


 1528 004a D0F83C68 		ldr	r6, [r0, #2108]
 618:Drivers/STM32F2xx_HAL_Driver/Src/stm32f2xx_ll_usb.c ****     USBx_DEVICE->DAINTMSK &= ~(USB_OTG_DAINTMSK_IEPM & (uint32_t)(1UL << (ep->num & EP_ADDR_MSK)));
 1529              		.loc 1 618 83 view .LVU463
 1530 004e 03F00F04 		and	r4, r3, #15
 618:Drivers/STM32F2xx_HAL_Driver/Src/stm32f2xx_ll_usb.c ****     USBx_DEVICE->DAINTMSK &= ~(USB_OTG_DAINTMSK_IEPM & (uint32_t)(1UL << (ep->num & EP_ADDR_MSK)));
 1531              		.loc 1 618 56 view .LVU464
 1532 0052 02FA04F4 		lsl	r4, r2, r4
 618:Drivers/STM32F2xx_HAL_Driver/Src/stm32f2xx_ll_usb.c ****     USBx_DEVICE->DAINTMSK &= ~(USB_OTG_DAINTMSK_IEPM & (uint32_t)(1UL << (ep->num & EP_ADDR_MSK)));
 1533              		.loc 1 618 54 view .LVU465
 1534 0056 A4B2     		uxth	r4, r4
 618:Drivers/STM32F2xx_HAL_Driver/Src/stm32f2xx_ll_usb.c ****     USBx_DEVICE->DAINTMSK &= ~(USB_OTG_DAINTMSK_IEPM & (uint32_t)(1UL << (ep->num & EP_ADDR_MSK)));
 1535              		.loc 1 618 27 view .LVU466
 1536 0058 26EA0404 		bic	r4, r6, r4
 1537 005c C0F83C48 		str	r4, [r0, #2108]
 619:Drivers/STM32F2xx_HAL_Driver/Src/stm32f2xx_ll_usb.c ****     USBx_INEP(epnum)->DIEPCTL &= ~(USB_OTG_DIEPCTL_USBAEP |
 1538              		.loc 1 619 5 is_stmt 1 view .LVU467
 619:Drivers/STM32F2xx_HAL_Driver/Src/stm32f2xx_ll_usb.c ****     USBx_INEP(epnum)->DIEPCTL &= ~(USB_OTG_DIEPCTL_USBAEP |
 1539              		.loc 1 619 27 is_stmt 0 view .LVU468
 1540 0060 D0F81C48 		ldr	r4, [r0, #2076]
 619:Drivers/STM32F2xx_HAL_Driver/Src/stm32f2xx_ll_usb.c ****     USBx_INEP(epnum)->DIEPCTL &= ~(USB_OTG_DIEPCTL_USBAEP |
 1541              		.loc 1 619 77 view .LVU469
 1542 0064 0978     		ldrb	r1, [r1]	@ zero_extendqisi2
 1543              	.LVL126:
 619:Drivers/STM32F2xx_HAL_Driver/Src/stm32f2xx_ll_usb.c ****     USBx_INEP(epnum)->DIEPCTL &= ~(USB_OTG_DIEPCTL_USBAEP |
 1544              		.loc 1 619 83 view .LVU470
 1545 0066 01F00F01 		and	r1, r1, #15
 619:Drivers/STM32F2xx_HAL_Driver/Src/stm32f2xx_ll_usb.c ****     USBx_INEP(epnum)->DIEPCTL &= ~(USB_OTG_DIEPCTL_USBAEP |
 1546              		.loc 1 619 56 view .LVU471
 1547 006a 8A40     		lsls	r2, r2, r1
 619:Drivers/STM32F2xx_HAL_Driver/Src/stm32f2xx_ll_usb.c ****     USBx_INEP(epnum)->DIEPCTL &= ~(USB_OTG_DIEPCTL_USBAEP |
 1548              		.loc 1 619 54 view .LVU472
 1549 006c 92B2     		uxth	r2, r2
 619:Drivers/STM32F2xx_HAL_Driver/Src/stm32f2xx_ll_usb.c ****     USBx_INEP(epnum)->DIEPCTL &= ~(USB_OTG_DIEPCTL_USBAEP |
 1550              		.loc 1 619 27 view .LVU473
 1551 006e 24EA0202 		bic	r2, r4, r2
 1552 0072 C0F81C28 		str	r2, [r0, #2076]
 620:Drivers/STM32F2xx_HAL_Driver/Src/stm32f2xx_ll_usb.c ****                                    USB_OTG_DIEPCTL_MPSIZ |
 1553              		.loc 1 620 5 is_stmt 1 view .LVU474
 620:Drivers/STM32F2xx_HAL_Driver/Src/stm32f2xx_ll_usb.c ****                                    USB_OTG_DIEPCTL_MPSIZ |
 1554              		.loc 1 620 31 is_stmt 0 view .LVU475
 1555 0076 00EB4310 		add	r0, r0, r3, lsl #5
 1556              	.LVL127:
 620:Drivers/STM32F2xx_HAL_Driver/Src/stm32f2xx_ll_usb.c ****                                    USB_OTG_DIEPCTL_MPSIZ |
 1557              		.loc 1 620 31 view .LVU476
 1558 007a D0F80039 		ldr	r3, [r0, #2304]
 1559              	.LVL128:
 620:Drivers/STM32F2xx_HAL_Driver/Src/stm32f2xx_ll_usb.c ****                                    USB_OTG_DIEPCTL_MPSIZ |
 1560              		.loc 1 620 31 view .LVU477
 1561 007e 034A     		ldr	r2, .L113+4
 1562 0080 1A40     		ands	r2, r2, r3
 1563 0082 C0F80029 		str	r2, [r0, #2304]
 1564 0086 DDE7     		b	.L110
 1565              	.L114:
 1566              		.align	2
 1567              	.L113:
 1568 0088 0078F3EF 		.word	-269256704
 1569 008c 007833EC 		.word	-332171264
ARM GAS  C:\Users\User\AppData\Local\Temp\ccY05dYU.s 			page 59


 1570              		.cfi_endproc
 1571              	.LFE84:
 1573              		.section	.text.USB_DeactivateDedicatedEndpoint,"ax",%progbits
 1574              		.align	1
 1575              		.global	USB_DeactivateDedicatedEndpoint
 1576              		.syntax unified
 1577              		.thumb
 1578              		.thumb_func
 1579              		.fpu softvfp
 1581              	USB_DeactivateDedicatedEndpoint:
 1582              	.LVL129:
 1583              	.LFB85:
 646:Drivers/STM32F2xx_HAL_Driver/Src/stm32f2xx_ll_usb.c ****   uint32_t USBx_BASE = (uint32_t)USBx;
 1584              		.loc 1 646 1 is_stmt 1 view -0
 1585              		.cfi_startproc
 1586              		@ args = 0, pretend = 0, frame = 0
 1587              		@ frame_needed = 0, uses_anonymous_args = 0
 1588              		@ link register save eliminated.
 647:Drivers/STM32F2xx_HAL_Driver/Src/stm32f2xx_ll_usb.c ****   uint32_t epnum = (uint32_t)ep->num;
 1589              		.loc 1 647 3 view .LVU479
 648:Drivers/STM32F2xx_HAL_Driver/Src/stm32f2xx_ll_usb.c **** 
 1590              		.loc 1 648 3 view .LVU480
 648:Drivers/STM32F2xx_HAL_Driver/Src/stm32f2xx_ll_usb.c **** 
 1591              		.loc 1 648 32 is_stmt 0 view .LVU481
 1592 0000 0B78     		ldrb	r3, [r1]	@ zero_extendqisi2
 1593              	.LVL130:
 651:Drivers/STM32F2xx_HAL_Driver/Src/stm32f2xx_ll_usb.c ****   {
 1594              		.loc 1 651 3 is_stmt 1 view .LVU482
 651:Drivers/STM32F2xx_HAL_Driver/Src/stm32f2xx_ll_usb.c ****   {
 1595              		.loc 1 651 9 is_stmt 0 view .LVU483
 1596 0002 4A78     		ldrb	r2, [r1, #1]	@ zero_extendqisi2
 651:Drivers/STM32F2xx_HAL_Driver/Src/stm32f2xx_ll_usb.c ****   {
 1597              		.loc 1 651 6 view .LVU484
 1598 0004 012A     		cmp	r2, #1
 1599 0006 14D0     		beq	.L118
 658:Drivers/STM32F2xx_HAL_Driver/Src/stm32f2xx_ll_usb.c ****     USBx_DEVICE->DAINTMSK &= ~(USB_OTG_DAINTMSK_OEPM & ((uint32_t)(1UL << (ep->num & EP_ADDR_MSK)) 
 1600              		.loc 1 658 5 is_stmt 1 view .LVU485
 658:Drivers/STM32F2xx_HAL_Driver/Src/stm32f2xx_ll_usb.c ****     USBx_DEVICE->DAINTMSK &= ~(USB_OTG_DAINTMSK_OEPM & ((uint32_t)(1UL << (ep->num & EP_ADDR_MSK)) 
 1601              		.loc 1 658 32 is_stmt 0 view .LVU486
 1602 0008 00EB4313 		add	r3, r0, r3, lsl #5
 1603              	.LVL131:
 658:Drivers/STM32F2xx_HAL_Driver/Src/stm32f2xx_ll_usb.c ****     USBx_DEVICE->DAINTMSK &= ~(USB_OTG_DAINTMSK_OEPM & ((uint32_t)(1UL << (ep->num & EP_ADDR_MSK)) 
 1604              		.loc 1 658 32 view .LVU487
 1605 000c D3F8002B 		ldr	r2, [r3, #2816]
 1606 0010 22F40042 		bic	r2, r2, #32768
 1607 0014 C3F8002B 		str	r2, [r3, #2816]
 1608              	.LVL132:
 659:Drivers/STM32F2xx_HAL_Driver/Src/stm32f2xx_ll_usb.c ****   }
 1609              		.loc 1 659 5 is_stmt 1 view .LVU488
 659:Drivers/STM32F2xx_HAL_Driver/Src/stm32f2xx_ll_usb.c ****   }
 1610              		.loc 1 659 27 is_stmt 0 view .LVU489
 1611 0018 D0F81C38 		ldr	r3, [r0, #2076]
 659:Drivers/STM32F2xx_HAL_Driver/Src/stm32f2xx_ll_usb.c ****   }
 1612              		.loc 1 659 78 view .LVU490
 1613 001c 0A78     		ldrb	r2, [r1]	@ zero_extendqisi2
 659:Drivers/STM32F2xx_HAL_Driver/Src/stm32f2xx_ll_usb.c ****   }
 1614              		.loc 1 659 84 view .LVU491
ARM GAS  C:\Users\User\AppData\Local\Temp\ccY05dYU.s 			page 60


 1615 001e 02F00F01 		and	r1, r2, #15
 1616              	.LVL133:
 659:Drivers/STM32F2xx_HAL_Driver/Src/stm32f2xx_ll_usb.c ****   }
 1617              		.loc 1 659 57 view .LVU492
 1618 0022 0122     		movs	r2, #1
 1619 0024 8A40     		lsls	r2, r2, r1
 659:Drivers/STM32F2xx_HAL_Driver/Src/stm32f2xx_ll_usb.c ****   }
 1620              		.loc 1 659 27 view .LVU493
 1621 0026 23EA0243 		bic	r3, r3, r2, lsl #16
 1622 002a C0F81C38 		str	r3, [r0, #2076]
 1623              	.L117:
 662:Drivers/STM32F2xx_HAL_Driver/Src/stm32f2xx_ll_usb.c **** }
 1624              		.loc 1 662 3 is_stmt 1 view .LVU494
 663:Drivers/STM32F2xx_HAL_Driver/Src/stm32f2xx_ll_usb.c **** 
 1625              		.loc 1 663 1 is_stmt 0 view .LVU495
 1626 002e 0020     		movs	r0, #0
 1627              	.LVL134:
 663:Drivers/STM32F2xx_HAL_Driver/Src/stm32f2xx_ll_usb.c **** 
 1628              		.loc 1 663 1 view .LVU496
 1629 0030 7047     		bx	lr
 1630              	.LVL135:
 1631              	.L118:
 653:Drivers/STM32F2xx_HAL_Driver/Src/stm32f2xx_ll_usb.c ****     USBx_DEVICE->DAINTMSK &= ~(USB_OTG_DAINTMSK_IEPM & (uint32_t)(1UL << (ep->num & EP_ADDR_MSK)));
 1632              		.loc 1 653 5 is_stmt 1 view .LVU497
 653:Drivers/STM32F2xx_HAL_Driver/Src/stm32f2xx_ll_usb.c ****     USBx_DEVICE->DAINTMSK &= ~(USB_OTG_DAINTMSK_IEPM & (uint32_t)(1UL << (ep->num & EP_ADDR_MSK)));
 1633              		.loc 1 653 31 is_stmt 0 view .LVU498
 1634 0032 00EB4313 		add	r3, r0, r3, lsl #5
 1635              	.LVL136:
 653:Drivers/STM32F2xx_HAL_Driver/Src/stm32f2xx_ll_usb.c ****     USBx_DEVICE->DAINTMSK &= ~(USB_OTG_DAINTMSK_IEPM & (uint32_t)(1UL << (ep->num & EP_ADDR_MSK)));
 1636              		.loc 1 653 31 view .LVU499
 1637 0036 D3F80029 		ldr	r2, [r3, #2304]
 1638 003a 22F40042 		bic	r2, r2, #32768
 1639 003e C3F80029 		str	r2, [r3, #2304]
 1640              	.LVL137:
 654:Drivers/STM32F2xx_HAL_Driver/Src/stm32f2xx_ll_usb.c ****   }
 1641              		.loc 1 654 5 is_stmt 1 view .LVU500
 654:Drivers/STM32F2xx_HAL_Driver/Src/stm32f2xx_ll_usb.c ****   }
 1642              		.loc 1 654 27 is_stmt 0 view .LVU501
 1643 0042 D0F81C28 		ldr	r2, [r0, #2076]
 654:Drivers/STM32F2xx_HAL_Driver/Src/stm32f2xx_ll_usb.c ****   }
 1644              		.loc 1 654 77 view .LVU502
 1645 0046 0B78     		ldrb	r3, [r1]	@ zero_extendqisi2
 654:Drivers/STM32F2xx_HAL_Driver/Src/stm32f2xx_ll_usb.c ****   }
 1646              		.loc 1 654 83 view .LVU503
 1647 0048 03F00F01 		and	r1, r3, #15
 1648              	.LVL138:
 654:Drivers/STM32F2xx_HAL_Driver/Src/stm32f2xx_ll_usb.c ****   }
 1649              		.loc 1 654 56 view .LVU504
 1650 004c 0123     		movs	r3, #1
 1651 004e 8B40     		lsls	r3, r3, r1
 654:Drivers/STM32F2xx_HAL_Driver/Src/stm32f2xx_ll_usb.c ****   }
 1652              		.loc 1 654 54 view .LVU505
 1653 0050 9BB2     		uxth	r3, r3
 654:Drivers/STM32F2xx_HAL_Driver/Src/stm32f2xx_ll_usb.c ****   }
 1654              		.loc 1 654 27 view .LVU506
 1655 0052 22EA0303 		bic	r3, r2, r3
 1656 0056 C0F81C38 		str	r3, [r0, #2076]
ARM GAS  C:\Users\User\AppData\Local\Temp\ccY05dYU.s 			page 61


 1657 005a E8E7     		b	.L117
 1658              		.cfi_endproc
 1659              	.LFE85:
 1661              		.section	.text.USB_EP0StartXfer,"ax",%progbits
 1662              		.align	1
 1663              		.global	USB_EP0StartXfer
 1664              		.syntax unified
 1665              		.thumb
 1666              		.thumb_func
 1667              		.fpu softvfp
 1669              	USB_EP0StartXfer:
 1670              	.LVL139:
 1671              	.LFB87:
 818:Drivers/STM32F2xx_HAL_Driver/Src/stm32f2xx_ll_usb.c ****   uint32_t USBx_BASE = (uint32_t)USBx;
 1672              		.loc 1 818 1 is_stmt 1 view -0
 1673              		.cfi_startproc
 1674              		@ args = 0, pretend = 0, frame = 0
 1675              		@ frame_needed = 0, uses_anonymous_args = 0
 1676              		@ link register save eliminated.
 818:Drivers/STM32F2xx_HAL_Driver/Src/stm32f2xx_ll_usb.c ****   uint32_t USBx_BASE = (uint32_t)USBx;
 1677              		.loc 1 818 1 is_stmt 0 view .LVU508
 1678 0000 70B4     		push	{r4, r5, r6}
 1679              	.LCFI20:
 1680              		.cfi_def_cfa_offset 12
 1681              		.cfi_offset 4, -12
 1682              		.cfi_offset 5, -8
 1683              		.cfi_offset 6, -4
 819:Drivers/STM32F2xx_HAL_Driver/Src/stm32f2xx_ll_usb.c ****   uint32_t epnum = (uint32_t)ep->num;
 1684              		.loc 1 819 3 is_stmt 1 view .LVU509
 1685              	.LVL140:
 820:Drivers/STM32F2xx_HAL_Driver/Src/stm32f2xx_ll_usb.c **** 
 1686              		.loc 1 820 3 view .LVU510
 820:Drivers/STM32F2xx_HAL_Driver/Src/stm32f2xx_ll_usb.c **** 
 1687              		.loc 1 820 32 is_stmt 0 view .LVU511
 1688 0002 0B78     		ldrb	r3, [r1]	@ zero_extendqisi2
 1689              	.LVL141:
 823:Drivers/STM32F2xx_HAL_Driver/Src/stm32f2xx_ll_usb.c ****   {
 1690              		.loc 1 823 3 is_stmt 1 view .LVU512
 823:Drivers/STM32F2xx_HAL_Driver/Src/stm32f2xx_ll_usb.c ****   {
 1691              		.loc 1 823 9 is_stmt 0 view .LVU513
 1692 0004 4C78     		ldrb	r4, [r1, #1]	@ zero_extendqisi2
 823:Drivers/STM32F2xx_HAL_Driver/Src/stm32f2xx_ll_usb.c ****   {
 1693              		.loc 1 823 6 view .LVU514
 1694 0006 012C     		cmp	r4, #1
 1695 0008 26D0     		beq	.L130
 878:Drivers/STM32F2xx_HAL_Driver/Src/stm32f2xx_ll_usb.c ****     USBx_OUTEP(epnum)->DOEPTSIZ &= ~(USB_OTG_DOEPTSIZ_PKTCNT);
 1696              		.loc 1 878 5 is_stmt 1 view .LVU515
 878:Drivers/STM32F2xx_HAL_Driver/Src/stm32f2xx_ll_usb.c ****     USBx_OUTEP(epnum)->DOEPTSIZ &= ~(USB_OTG_DOEPTSIZ_PKTCNT);
 1697              		.loc 1 878 33 is_stmt 0 view .LVU516
 1698 000a 00EB4310 		add	r0, r0, r3, lsl #5
 1699              	.LVL142:
 878:Drivers/STM32F2xx_HAL_Driver/Src/stm32f2xx_ll_usb.c ****     USBx_OUTEP(epnum)->DOEPTSIZ &= ~(USB_OTG_DOEPTSIZ_PKTCNT);
 1700              		.loc 1 878 33 view .LVU517
 1701 000e 00F53063 		add	r3, r0, #2816
 1702              	.LVL143:
 878:Drivers/STM32F2xx_HAL_Driver/Src/stm32f2xx_ll_usb.c ****     USBx_OUTEP(epnum)->DOEPTSIZ &= ~(USB_OTG_DOEPTSIZ_PKTCNT);
 1703              		.loc 1 878 33 view .LVU518
ARM GAS  C:\Users\User\AppData\Local\Temp\ccY05dYU.s 			page 62


 1704 0012 1C69     		ldr	r4, [r3, #16]
 1705 0014 E40C     		lsrs	r4, r4, #19
 1706 0016 E404     		lsls	r4, r4, #19
 1707 0018 1C61     		str	r4, [r3, #16]
 1708              	.LVL144:
 879:Drivers/STM32F2xx_HAL_Driver/Src/stm32f2xx_ll_usb.c **** 
 1709              		.loc 1 879 5 is_stmt 1 view .LVU519
 879:Drivers/STM32F2xx_HAL_Driver/Src/stm32f2xx_ll_usb.c **** 
 1710              		.loc 1 879 33 is_stmt 0 view .LVU520
 1711 001a 1C69     		ldr	r4, [r3, #16]
 1712 001c 24F0FF54 		bic	r4, r4, #534773760
 1713 0020 24F4C014 		bic	r4, r4, #1572864
 1714 0024 1C61     		str	r4, [r3, #16]
 881:Drivers/STM32F2xx_HAL_Driver/Src/stm32f2xx_ll_usb.c ****     {
 1715              		.loc 1 881 5 is_stmt 1 view .LVU521
 881:Drivers/STM32F2xx_HAL_Driver/Src/stm32f2xx_ll_usb.c ****     {
 1716              		.loc 1 881 11 is_stmt 0 view .LVU522
 1717 0026 4C69     		ldr	r4, [r1, #20]
 881:Drivers/STM32F2xx_HAL_Driver/Src/stm32f2xx_ll_usb.c ****     {
 1718              		.loc 1 881 8 view .LVU523
 1719 0028 0CB1     		cbz	r4, .L127
 883:Drivers/STM32F2xx_HAL_Driver/Src/stm32f2xx_ll_usb.c ****     }
 1720              		.loc 1 883 7 is_stmt 1 view .LVU524
 883:Drivers/STM32F2xx_HAL_Driver/Src/stm32f2xx_ll_usb.c ****     }
 1721              		.loc 1 883 24 is_stmt 0 view .LVU525
 1722 002a 8C68     		ldr	r4, [r1, #8]
 883:Drivers/STM32F2xx_HAL_Driver/Src/stm32f2xx_ll_usb.c ****     }
 1723              		.loc 1 883 20 view .LVU526
 1724 002c 4C61     		str	r4, [r1, #20]
 1725              	.L127:
 886:Drivers/STM32F2xx_HAL_Driver/Src/stm32f2xx_ll_usb.c ****     USBx_OUTEP(epnum)->DOEPTSIZ |= (USB_OTG_DOEPTSIZ_XFRSIZ & (ep->maxpacket));
 1726              		.loc 1 886 5 is_stmt 1 view .LVU527
 886:Drivers/STM32F2xx_HAL_Driver/Src/stm32f2xx_ll_usb.c ****     USBx_OUTEP(epnum)->DOEPTSIZ |= (USB_OTG_DOEPTSIZ_XFRSIZ & (ep->maxpacket));
 1727              		.loc 1 886 33 is_stmt 0 view .LVU528
 1728 002e 1C69     		ldr	r4, [r3, #16]
 1729 0030 44F40024 		orr	r4, r4, #524288
 1730 0034 1C61     		str	r4, [r3, #16]
 887:Drivers/STM32F2xx_HAL_Driver/Src/stm32f2xx_ll_usb.c **** 
 1731              		.loc 1 887 5 is_stmt 1 view .LVU529
 887:Drivers/STM32F2xx_HAL_Driver/Src/stm32f2xx_ll_usb.c **** 
 1732              		.loc 1 887 33 is_stmt 0 view .LVU530
 1733 0036 1C69     		ldr	r4, [r3, #16]
 887:Drivers/STM32F2xx_HAL_Driver/Src/stm32f2xx_ll_usb.c **** 
 1734              		.loc 1 887 66 view .LVU531
 1735 0038 8D68     		ldr	r5, [r1, #8]
 887:Drivers/STM32F2xx_HAL_Driver/Src/stm32f2xx_ll_usb.c **** 
 1736              		.loc 1 887 61 view .LVU532
 1737 003a C5F31205 		ubfx	r5, r5, #0, #19
 887:Drivers/STM32F2xx_HAL_Driver/Src/stm32f2xx_ll_usb.c **** 
 1738              		.loc 1 887 33 view .LVU533
 1739 003e 2C43     		orrs	r4, r4, r5
 1740 0040 1C61     		str	r4, [r3, #16]
 889:Drivers/STM32F2xx_HAL_Driver/Src/stm32f2xx_ll_usb.c ****     {
 1741              		.loc 1 889 5 is_stmt 1 view .LVU534
 889:Drivers/STM32F2xx_HAL_Driver/Src/stm32f2xx_ll_usb.c ****     {
 1742              		.loc 1 889 8 is_stmt 0 view .LVU535
 1743 0042 012A     		cmp	r2, #1
ARM GAS  C:\Users\User\AppData\Local\Temp\ccY05dYU.s 			page 63


 1744 0044 65D0     		beq	.L131
 1745              	.LVL145:
 1746              	.L128:
 898:Drivers/STM32F2xx_HAL_Driver/Src/stm32f2xx_ll_usb.c ****   }
 1747              		.loc 1 898 5 is_stmt 1 view .LVU536
 898:Drivers/STM32F2xx_HAL_Driver/Src/stm32f2xx_ll_usb.c ****   }
 1748              		.loc 1 898 32 is_stmt 0 view .LVU537
 1749 0046 D0F8003B 		ldr	r3, [r0, #2816]
 1750 004a 43F00443 		orr	r3, r3, #-2080374784
 1751 004e C0F8003B 		str	r3, [r0, #2816]
 1752              	.LVL146:
 1753              	.L126:
 901:Drivers/STM32F2xx_HAL_Driver/Src/stm32f2xx_ll_usb.c **** }
 1754              		.loc 1 901 3 is_stmt 1 view .LVU538
 902:Drivers/STM32F2xx_HAL_Driver/Src/stm32f2xx_ll_usb.c **** 
 1755              		.loc 1 902 1 is_stmt 0 view .LVU539
 1756 0052 0020     		movs	r0, #0
 1757 0054 70BC     		pop	{r4, r5, r6}
 1758              	.LCFI21:
 1759              		.cfi_remember_state
 1760              		.cfi_restore 6
 1761              		.cfi_restore 5
 1762              		.cfi_restore 4
 1763              		.cfi_def_cfa_offset 0
 1764 0056 7047     		bx	lr
 1765              	.LVL147:
 1766              	.L130:
 1767              	.LCFI22:
 1768              		.cfi_restore_state
 826:Drivers/STM32F2xx_HAL_Driver/Src/stm32f2xx_ll_usb.c ****     {
 1769              		.loc 1 826 5 is_stmt 1 view .LVU540
 826:Drivers/STM32F2xx_HAL_Driver/Src/stm32f2xx_ll_usb.c ****     {
 1770              		.loc 1 826 11 is_stmt 0 view .LVU541
 1771 0058 4C69     		ldr	r4, [r1, #20]
 826:Drivers/STM32F2xx_HAL_Driver/Src/stm32f2xx_ll_usb.c ****     {
 1772              		.loc 1 826 8 view .LVU542
 1773 005a 6CBB     		cbnz	r4, .L121
 828:Drivers/STM32F2xx_HAL_Driver/Src/stm32f2xx_ll_usb.c ****       USBx_INEP(epnum)->DIEPTSIZ |= (USB_OTG_DIEPTSIZ_PKTCNT & (1U << 19));
 1774              		.loc 1 828 7 is_stmt 1 view .LVU543
 828:Drivers/STM32F2xx_HAL_Driver/Src/stm32f2xx_ll_usb.c ****       USBx_INEP(epnum)->DIEPTSIZ |= (USB_OTG_DIEPTSIZ_PKTCNT & (1U << 19));
 1775              		.loc 1 828 34 is_stmt 0 view .LVU544
 1776 005c 00EB4314 		add	r4, r0, r3, lsl #5
 1777 0060 D4F81059 		ldr	r5, [r4, #2320]
 1778 0064 25F0FF55 		bic	r5, r5, #534773760
 1779 0068 25F4C015 		bic	r5, r5, #1572864
 1780 006c C4F81059 		str	r5, [r4, #2320]
 829:Drivers/STM32F2xx_HAL_Driver/Src/stm32f2xx_ll_usb.c ****       USBx_INEP(epnum)->DIEPTSIZ &= ~(USB_OTG_DIEPTSIZ_XFRSIZ);
 1781              		.loc 1 829 7 is_stmt 1 view .LVU545
 829:Drivers/STM32F2xx_HAL_Driver/Src/stm32f2xx_ll_usb.c ****       USBx_INEP(epnum)->DIEPTSIZ &= ~(USB_OTG_DIEPTSIZ_XFRSIZ);
 1782              		.loc 1 829 34 is_stmt 0 view .LVU546
 1783 0070 D4F81059 		ldr	r5, [r4, #2320]
 1784 0074 45F40025 		orr	r5, r5, #524288
 1785 0078 C4F81059 		str	r5, [r4, #2320]
 830:Drivers/STM32F2xx_HAL_Driver/Src/stm32f2xx_ll_usb.c ****     }
 1786              		.loc 1 830 7 is_stmt 1 view .LVU547
 830:Drivers/STM32F2xx_HAL_Driver/Src/stm32f2xx_ll_usb.c ****     }
 1787              		.loc 1 830 34 is_stmt 0 view .LVU548
ARM GAS  C:\Users\User\AppData\Local\Temp\ccY05dYU.s 			page 64


 1788 007c D4F81059 		ldr	r5, [r4, #2320]
 1789 0080 ED0C     		lsrs	r5, r5, #19
 1790 0082 ED04     		lsls	r5, r5, #19
 1791 0084 C4F81059 		str	r5, [r4, #2320]
 1792              	.L122:
 850:Drivers/STM32F2xx_HAL_Driver/Src/stm32f2xx_ll_usb.c ****     {
 1793              		.loc 1 850 5 is_stmt 1 view .LVU549
 850:Drivers/STM32F2xx_HAL_Driver/Src/stm32f2xx_ll_usb.c ****     {
 1794              		.loc 1 850 8 is_stmt 0 view .LVU550
 1795 0088 012A     		cmp	r2, #1
 1796 008a 33D0     		beq	.L132
 863:Drivers/STM32F2xx_HAL_Driver/Src/stm32f2xx_ll_usb.c **** 
 1797              		.loc 1 863 7 is_stmt 1 view .LVU551
 863:Drivers/STM32F2xx_HAL_Driver/Src/stm32f2xx_ll_usb.c **** 
 1798              		.loc 1 863 33 is_stmt 0 view .LVU552
 1799 008c 00EB4313 		add	r3, r0, r3, lsl #5
 1800              	.LVL148:
 863:Drivers/STM32F2xx_HAL_Driver/Src/stm32f2xx_ll_usb.c **** 
 1801              		.loc 1 863 33 view .LVU553
 1802 0090 D3F80029 		ldr	r2, [r3, #2304]
 1803              	.LVL149:
 863:Drivers/STM32F2xx_HAL_Driver/Src/stm32f2xx_ll_usb.c **** 
 1804              		.loc 1 863 33 view .LVU554
 1805 0094 42F00442 		orr	r2, r2, #-2080374784
 1806 0098 C3F80029 		str	r2, [r3, #2304]
 866:Drivers/STM32F2xx_HAL_Driver/Src/stm32f2xx_ll_usb.c ****       {
 1807              		.loc 1 866 7 is_stmt 1 view .LVU555
 866:Drivers/STM32F2xx_HAL_Driver/Src/stm32f2xx_ll_usb.c ****       {
 1808              		.loc 1 866 13 is_stmt 0 view .LVU556
 1809 009c 4B69     		ldr	r3, [r1, #20]
 866:Drivers/STM32F2xx_HAL_Driver/Src/stm32f2xx_ll_usb.c ****       {
 1810              		.loc 1 866 10 view .LVU557
 1811 009e 002B     		cmp	r3, #0
 1812 00a0 D7D0     		beq	.L126
 868:Drivers/STM32F2xx_HAL_Driver/Src/stm32f2xx_ll_usb.c ****       }
 1813              		.loc 1 868 9 is_stmt 1 view .LVU558
 868:Drivers/STM32F2xx_HAL_Driver/Src/stm32f2xx_ll_usb.c ****       }
 1814              		.loc 1 868 33 is_stmt 0 view .LVU559
 1815 00a2 D0F83428 		ldr	r2, [r0, #2100]
 868:Drivers/STM32F2xx_HAL_Driver/Src/stm32f2xx_ll_usb.c ****       }
 1816              		.loc 1 868 46 view .LVU560
 1817 00a6 0978     		ldrb	r1, [r1]	@ zero_extendqisi2
 1818              	.LVL150:
 868:Drivers/STM32F2xx_HAL_Driver/Src/stm32f2xx_ll_usb.c ****       }
 1819              		.loc 1 868 52 view .LVU561
 1820 00a8 01F00F04 		and	r4, r1, #15
 868:Drivers/STM32F2xx_HAL_Driver/Src/stm32f2xx_ll_usb.c ****       }
 1821              		.loc 1 868 40 view .LVU562
 1822 00ac 0121     		movs	r1, #1
 1823 00ae A140     		lsls	r1, r1, r4
 868:Drivers/STM32F2xx_HAL_Driver/Src/stm32f2xx_ll_usb.c ****       }
 1824              		.loc 1 868 33 view .LVU563
 1825 00b0 0A43     		orrs	r2, r2, r1
 1826 00b2 C0F83428 		str	r2, [r0, #2100]
 1827 00b6 CCE7     		b	.L126
 1828              	.LVL151:
 1829              	.L121:
ARM GAS  C:\Users\User\AppData\Local\Temp\ccY05dYU.s 			page 65


 839:Drivers/STM32F2xx_HAL_Driver/Src/stm32f2xx_ll_usb.c ****       USBx_INEP(epnum)->DIEPTSIZ &= ~(USB_OTG_DIEPTSIZ_PKTCNT);
 1830              		.loc 1 839 7 is_stmt 1 view .LVU564
 839:Drivers/STM32F2xx_HAL_Driver/Src/stm32f2xx_ll_usb.c ****       USBx_INEP(epnum)->DIEPTSIZ &= ~(USB_OTG_DIEPTSIZ_PKTCNT);
 1831              		.loc 1 839 34 is_stmt 0 view .LVU565
 1832 00b8 00EB4314 		add	r4, r0, r3, lsl #5
 1833 00bc 04F51064 		add	r4, r4, #2304
 1834 00c0 2569     		ldr	r5, [r4, #16]
 1835 00c2 ED0C     		lsrs	r5, r5, #19
 1836 00c4 ED04     		lsls	r5, r5, #19
 1837 00c6 2561     		str	r5, [r4, #16]
 840:Drivers/STM32F2xx_HAL_Driver/Src/stm32f2xx_ll_usb.c **** 
 1838              		.loc 1 840 7 is_stmt 1 view .LVU566
 840:Drivers/STM32F2xx_HAL_Driver/Src/stm32f2xx_ll_usb.c **** 
 1839              		.loc 1 840 34 is_stmt 0 view .LVU567
 1840 00c8 2569     		ldr	r5, [r4, #16]
 1841 00ca 25F0FF55 		bic	r5, r5, #534773760
 1842 00ce 25F4C015 		bic	r5, r5, #1572864
 1843 00d2 2561     		str	r5, [r4, #16]
 842:Drivers/STM32F2xx_HAL_Driver/Src/stm32f2xx_ll_usb.c ****       {
 1844              		.loc 1 842 7 is_stmt 1 view .LVU568
 842:Drivers/STM32F2xx_HAL_Driver/Src/stm32f2xx_ll_usb.c ****       {
 1845              		.loc 1 842 13 is_stmt 0 view .LVU569
 1846 00d4 4E69     		ldr	r6, [r1, #20]
 842:Drivers/STM32F2xx_HAL_Driver/Src/stm32f2xx_ll_usb.c ****       {
 1847              		.loc 1 842 28 view .LVU570
 1848 00d6 8D68     		ldr	r5, [r1, #8]
 842:Drivers/STM32F2xx_HAL_Driver/Src/stm32f2xx_ll_usb.c ****       {
 1849              		.loc 1 842 10 view .LVU571
 1850 00d8 AE42     		cmp	r6, r5
 1851 00da 00D9     		bls	.L123
 844:Drivers/STM32F2xx_HAL_Driver/Src/stm32f2xx_ll_usb.c ****       }
 1852              		.loc 1 844 9 is_stmt 1 view .LVU572
 844:Drivers/STM32F2xx_HAL_Driver/Src/stm32f2xx_ll_usb.c ****       }
 1853              		.loc 1 844 22 is_stmt 0 view .LVU573
 1854 00dc 4D61     		str	r5, [r1, #20]
 1855              	.L123:
 846:Drivers/STM32F2xx_HAL_Driver/Src/stm32f2xx_ll_usb.c ****       USBx_INEP(epnum)->DIEPTSIZ |= (USB_OTG_DIEPTSIZ_XFRSIZ & ep->xfer_len);
 1856              		.loc 1 846 7 is_stmt 1 view .LVU574
 846:Drivers/STM32F2xx_HAL_Driver/Src/stm32f2xx_ll_usb.c ****       USBx_INEP(epnum)->DIEPTSIZ |= (USB_OTG_DIEPTSIZ_XFRSIZ & ep->xfer_len);
 1857              		.loc 1 846 34 is_stmt 0 view .LVU575
 1858 00de 2569     		ldr	r5, [r4, #16]
 1859 00e0 45F40025 		orr	r5, r5, #524288
 1860 00e4 2561     		str	r5, [r4, #16]
 847:Drivers/STM32F2xx_HAL_Driver/Src/stm32f2xx_ll_usb.c ****     }
 1861              		.loc 1 847 7 is_stmt 1 view .LVU576
 847:Drivers/STM32F2xx_HAL_Driver/Src/stm32f2xx_ll_usb.c ****     }
 1862              		.loc 1 847 34 is_stmt 0 view .LVU577
 1863 00e6 2569     		ldr	r5, [r4, #16]
 847:Drivers/STM32F2xx_HAL_Driver/Src/stm32f2xx_ll_usb.c ****     }
 1864              		.loc 1 847 66 view .LVU578
 1865 00e8 4E69     		ldr	r6, [r1, #20]
 847:Drivers/STM32F2xx_HAL_Driver/Src/stm32f2xx_ll_usb.c ****     }
 1866              		.loc 1 847 62 view .LVU579
 1867 00ea C6F31206 		ubfx	r6, r6, #0, #19
 847:Drivers/STM32F2xx_HAL_Driver/Src/stm32f2xx_ll_usb.c ****     }
 1868              		.loc 1 847 34 view .LVU580
 1869 00ee 3543     		orrs	r5, r5, r6
ARM GAS  C:\Users\User\AppData\Local\Temp\ccY05dYU.s 			page 66


 1870 00f0 2561     		str	r5, [r4, #16]
 1871 00f2 C9E7     		b	.L122
 1872              	.L132:
 852:Drivers/STM32F2xx_HAL_Driver/Src/stm32f2xx_ll_usb.c ****       {
 1873              		.loc 1 852 7 is_stmt 1 view .LVU581
 852:Drivers/STM32F2xx_HAL_Driver/Src/stm32f2xx_ll_usb.c ****       {
 1874              		.loc 1 852 23 is_stmt 0 view .LVU582
 1875 00f4 0A69     		ldr	r2, [r1, #16]
 1876              	.LVL152:
 852:Drivers/STM32F2xx_HAL_Driver/Src/stm32f2xx_ll_usb.c ****       {
 1877              		.loc 1 852 10 view .LVU583
 1878 00f6 1AB1     		cbz	r2, .L125
 854:Drivers/STM32F2xx_HAL_Driver/Src/stm32f2xx_ll_usb.c ****       }
 1879              		.loc 1 854 9 is_stmt 1 view .LVU584
 1880 00f8 00EB4311 		add	r1, r0, r3, lsl #5
 1881              	.LVL153:
 854:Drivers/STM32F2xx_HAL_Driver/Src/stm32f2xx_ll_usb.c ****       }
 1882              		.loc 1 854 35 is_stmt 0 view .LVU585
 1883 00fc C1F81429 		str	r2, [r1, #2324]
 1884              	.L125:
 858:Drivers/STM32F2xx_HAL_Driver/Src/stm32f2xx_ll_usb.c ****     }
 1885              		.loc 1 858 7 is_stmt 1 view .LVU586
 858:Drivers/STM32F2xx_HAL_Driver/Src/stm32f2xx_ll_usb.c ****     }
 1886              		.loc 1 858 33 is_stmt 0 view .LVU587
 1887 0100 00EB4310 		add	r0, r0, r3, lsl #5
 1888              	.LVL154:
 858:Drivers/STM32F2xx_HAL_Driver/Src/stm32f2xx_ll_usb.c ****     }
 1889              		.loc 1 858 33 view .LVU588
 1890 0104 D0F80029 		ldr	r2, [r0, #2304]
 1891 0108 42F00442 		orr	r2, r2, #-2080374784
 1892 010c C0F80029 		str	r2, [r0, #2304]
 1893 0110 9FE7     		b	.L126
 1894              	.LVL155:
 1895              	.L131:
 891:Drivers/STM32F2xx_HAL_Driver/Src/stm32f2xx_ll_usb.c ****       {
 1896              		.loc 1 891 7 is_stmt 1 view .LVU589
 891:Drivers/STM32F2xx_HAL_Driver/Src/stm32f2xx_ll_usb.c ****       {
 1897              		.loc 1 891 23 is_stmt 0 view .LVU590
 1898 0112 CA68     		ldr	r2, [r1, #12]
 1899              	.LVL156:
 891:Drivers/STM32F2xx_HAL_Driver/Src/stm32f2xx_ll_usb.c ****       {
 1900              		.loc 1 891 10 view .LVU591
 1901 0114 002A     		cmp	r2, #0
 1902 0116 96D0     		beq	.L128
 893:Drivers/STM32F2xx_HAL_Driver/Src/stm32f2xx_ll_usb.c ****       }
 1903              		.loc 1 893 9 is_stmt 1 view .LVU592
 893:Drivers/STM32F2xx_HAL_Driver/Src/stm32f2xx_ll_usb.c ****       }
 1904              		.loc 1 893 36 is_stmt 0 view .LVU593
 1905 0118 5A61     		str	r2, [r3, #20]
 1906 011a 94E7     		b	.L128
 1907              		.cfi_endproc
 1908              	.LFE87:
 1910              		.section	.text.USB_WritePacket,"ax",%progbits
 1911              		.align	1
 1912              		.global	USB_WritePacket
 1913              		.syntax unified
 1914              		.thumb
ARM GAS  C:\Users\User\AppData\Local\Temp\ccY05dYU.s 			page 67


 1915              		.thumb_func
 1916              		.fpu softvfp
 1918              	USB_WritePacket:
 1919              	.LVL157:
 1920              	.LFB88:
 918:Drivers/STM32F2xx_HAL_Driver/Src/stm32f2xx_ll_usb.c ****   uint32_t USBx_BASE = (uint32_t)USBx;
 1921              		.loc 1 918 1 is_stmt 1 view -0
 1922              		.cfi_startproc
 1923              		@ args = 4, pretend = 0, frame = 0
 1924              		@ frame_needed = 0, uses_anonymous_args = 0
 1925              		@ link register save eliminated.
 918:Drivers/STM32F2xx_HAL_Driver/Src/stm32f2xx_ll_usb.c ****   uint32_t USBx_BASE = (uint32_t)USBx;
 1926              		.loc 1 918 1 is_stmt 0 view .LVU595
 1927 0000 70B4     		push	{r4, r5, r6}
 1928              	.LCFI23:
 1929              		.cfi_def_cfa_offset 12
 1930              		.cfi_offset 4, -12
 1931              		.cfi_offset 5, -8
 1932              		.cfi_offset 6, -4
 1933 0002 9DF80C40 		ldrb	r4, [sp, #12]	@ zero_extendqisi2
 919:Drivers/STM32F2xx_HAL_Driver/Src/stm32f2xx_ll_usb.c ****   uint32_t *pSrc = (uint32_t *)src;
 1934              		.loc 1 919 3 is_stmt 1 view .LVU596
 1935              	.LVL158:
 920:Drivers/STM32F2xx_HAL_Driver/Src/stm32f2xx_ll_usb.c ****   uint32_t count32b, i;
 1936              		.loc 1 920 3 view .LVU597
 921:Drivers/STM32F2xx_HAL_Driver/Src/stm32f2xx_ll_usb.c **** 
 1937              		.loc 1 921 3 view .LVU598
 923:Drivers/STM32F2xx_HAL_Driver/Src/stm32f2xx_ll_usb.c ****   {
 1938              		.loc 1 923 3 view .LVU599
 923:Drivers/STM32F2xx_HAL_Driver/Src/stm32f2xx_ll_usb.c ****   {
 1939              		.loc 1 923 6 is_stmt 0 view .LVU600
 1940 0006 64B9     		cbnz	r4, .L134
 925:Drivers/STM32F2xx_HAL_Driver/Src/stm32f2xx_ll_usb.c ****     for (i = 0U; i < count32b; i++)
 1941              		.loc 1 925 5 is_stmt 1 view .LVU601
 925:Drivers/STM32F2xx_HAL_Driver/Src/stm32f2xx_ll_usb.c ****     for (i = 0U; i < count32b; i++)
 1942              		.loc 1 925 31 is_stmt 0 view .LVU602
 1943 0008 0333     		adds	r3, r3, #3
 1944              	.LVL159:
 925:Drivers/STM32F2xx_HAL_Driver/Src/stm32f2xx_ll_usb.c ****     for (i = 0U; i < count32b; i++)
 1945              		.loc 1 925 14 view .LVU603
 1946 000a 9E08     		lsrs	r6, r3, #2
 1947              	.LVL160:
 926:Drivers/STM32F2xx_HAL_Driver/Src/stm32f2xx_ll_usb.c ****     {
 1948              		.loc 1 926 5 is_stmt 1 view .LVU604
 1949              	.L135:
 926:Drivers/STM32F2xx_HAL_Driver/Src/stm32f2xx_ll_usb.c ****     {
 1950              		.loc 1 926 5 is_stmt 0 discriminator 1 view .LVU605
 1951 000c B442     		cmp	r4, r6
 1952 000e 08D2     		bcs	.L134
 928:Drivers/STM32F2xx_HAL_Driver/Src/stm32f2xx_ll_usb.c ****       pSrc++;
 1953              		.loc 1 928 7 is_stmt 1 discriminator 3 view .LVU606
 1954 0010 00EB0233 		add	r3, r0, r2, lsl #12
 1955 0014 03F58053 		add	r3, r3, #4096
 928:Drivers/STM32F2xx_HAL_Driver/Src/stm32f2xx_ll_usb.c ****       pSrc++;
 1956              		.loc 1 928 41 is_stmt 0 discriminator 3 view .LVU607
 1957 0018 51F8045B 		ldr	r5, [r1], #4	@ unaligned
 1958              	.LVL161:
ARM GAS  C:\Users\User\AppData\Local\Temp\ccY05dYU.s 			page 68


 928:Drivers/STM32F2xx_HAL_Driver/Src/stm32f2xx_ll_usb.c ****       pSrc++;
 1959              		.loc 1 928 39 discriminator 3 view .LVU608
 1960 001c 1D60     		str	r5, [r3]
 929:Drivers/STM32F2xx_HAL_Driver/Src/stm32f2xx_ll_usb.c ****     }
 1961              		.loc 1 929 7 is_stmt 1 discriminator 3 view .LVU609
 1962              	.LVL162:
 926:Drivers/STM32F2xx_HAL_Driver/Src/stm32f2xx_ll_usb.c ****     {
 1963              		.loc 1 926 33 is_stmt 0 discriminator 3 view .LVU610
 1964 001e 0134     		adds	r4, r4, #1
 1965              	.LVL163:
 926:Drivers/STM32F2xx_HAL_Driver/Src/stm32f2xx_ll_usb.c ****     {
 1966              		.loc 1 926 33 discriminator 3 view .LVU611
 1967 0020 F4E7     		b	.L135
 1968              	.LVL164:
 1969              	.L134:
 933:Drivers/STM32F2xx_HAL_Driver/Src/stm32f2xx_ll_usb.c **** }
 1970              		.loc 1 933 3 is_stmt 1 view .LVU612
 934:Drivers/STM32F2xx_HAL_Driver/Src/stm32f2xx_ll_usb.c **** 
 1971              		.loc 1 934 1 is_stmt 0 view .LVU613
 1972 0022 0020     		movs	r0, #0
 1973              	.LVL165:
 934:Drivers/STM32F2xx_HAL_Driver/Src/stm32f2xx_ll_usb.c **** 
 1974              		.loc 1 934 1 view .LVU614
 1975 0024 70BC     		pop	{r4, r5, r6}
 1976              	.LCFI24:
 1977              		.cfi_restore 6
 1978              		.cfi_restore 5
 1979              		.cfi_restore 4
 1980              		.cfi_def_cfa_offset 0
 1981              	.LVL166:
 934:Drivers/STM32F2xx_HAL_Driver/Src/stm32f2xx_ll_usb.c **** 
 1982              		.loc 1 934 1 view .LVU615
 1983 0026 7047     		bx	lr
 1984              		.cfi_endproc
 1985              	.LFE88:
 1987              		.section	.text.USB_EPStartXfer,"ax",%progbits
 1988              		.align	1
 1989              		.global	USB_EPStartXfer
 1990              		.syntax unified
 1991              		.thumb
 1992              		.thumb_func
 1993              		.fpu softvfp
 1995              	USB_EPStartXfer:
 1996              	.LVL167:
 1997              	.LFB86:
 676:Drivers/STM32F2xx_HAL_Driver/Src/stm32f2xx_ll_usb.c ****   uint32_t USBx_BASE = (uint32_t)USBx;
 1998              		.loc 1 676 1 is_stmt 1 view -0
 1999              		.cfi_startproc
 2000              		@ args = 0, pretend = 0, frame = 0
 2001              		@ frame_needed = 0, uses_anonymous_args = 0
 676:Drivers/STM32F2xx_HAL_Driver/Src/stm32f2xx_ll_usb.c ****   uint32_t USBx_BASE = (uint32_t)USBx;
 2002              		.loc 1 676 1 is_stmt 0 view .LVU617
 2003 0000 F0B5     		push	{r4, r5, r6, r7, lr}
 2004              	.LCFI25:
 2005              		.cfi_def_cfa_offset 20
 2006              		.cfi_offset 4, -20
 2007              		.cfi_offset 5, -16
ARM GAS  C:\Users\User\AppData\Local\Temp\ccY05dYU.s 			page 69


 2008              		.cfi_offset 6, -12
 2009              		.cfi_offset 7, -8
 2010              		.cfi_offset 14, -4
 2011 0002 83B0     		sub	sp, sp, #12
 2012              	.LCFI26:
 2013              		.cfi_def_cfa_offset 32
 677:Drivers/STM32F2xx_HAL_Driver/Src/stm32f2xx_ll_usb.c ****   uint32_t epnum = (uint32_t)ep->num;
 2014              		.loc 1 677 3 is_stmt 1 view .LVU618
 2015              	.LVL168:
 678:Drivers/STM32F2xx_HAL_Driver/Src/stm32f2xx_ll_usb.c ****   uint16_t pktcnt;
 2016              		.loc 1 678 3 view .LVU619
 678:Drivers/STM32F2xx_HAL_Driver/Src/stm32f2xx_ll_usb.c ****   uint16_t pktcnt;
 2017              		.loc 1 678 32 is_stmt 0 view .LVU620
 2018 0004 0B78     		ldrb	r3, [r1]	@ zero_extendqisi2
 2019              	.LVL169:
 679:Drivers/STM32F2xx_HAL_Driver/Src/stm32f2xx_ll_usb.c **** 
 2020              		.loc 1 679 3 is_stmt 1 view .LVU621
 682:Drivers/STM32F2xx_HAL_Driver/Src/stm32f2xx_ll_usb.c ****   {
 2021              		.loc 1 682 3 view .LVU622
 682:Drivers/STM32F2xx_HAL_Driver/Src/stm32f2xx_ll_usb.c ****   {
 2022              		.loc 1 682 9 is_stmt 0 view .LVU623
 2023 0006 4C78     		ldrb	r4, [r1, #1]	@ zero_extendqisi2
 682:Drivers/STM32F2xx_HAL_Driver/Src/stm32f2xx_ll_usb.c ****   {
 2024              		.loc 1 682 6 view .LVU624
 2025 0008 012C     		cmp	r4, #1
 2026 000a 2BD0     		beq	.L156
 766:Drivers/STM32F2xx_HAL_Driver/Src/stm32f2xx_ll_usb.c ****     USBx_OUTEP(epnum)->DOEPTSIZ &= ~(USB_OTG_DOEPTSIZ_PKTCNT);
 2027              		.loc 1 766 5 is_stmt 1 view .LVU625
 766:Drivers/STM32F2xx_HAL_Driver/Src/stm32f2xx_ll_usb.c ****     USBx_OUTEP(epnum)->DOEPTSIZ &= ~(USB_OTG_DOEPTSIZ_PKTCNT);
 2028              		.loc 1 766 33 is_stmt 0 view .LVU626
 2029 000c 00EB4313 		add	r3, r0, r3, lsl #5
 2030              	.LVL170:
 766:Drivers/STM32F2xx_HAL_Driver/Src/stm32f2xx_ll_usb.c ****     USBx_OUTEP(epnum)->DOEPTSIZ &= ~(USB_OTG_DOEPTSIZ_PKTCNT);
 2031              		.loc 1 766 33 view .LVU627
 2032 0010 03F53064 		add	r4, r3, #2816
 2033 0014 2569     		ldr	r5, [r4, #16]
 2034 0016 ED0C     		lsrs	r5, r5, #19
 2035 0018 ED04     		lsls	r5, r5, #19
 2036 001a 2561     		str	r5, [r4, #16]
 2037              	.LVL171:
 767:Drivers/STM32F2xx_HAL_Driver/Src/stm32f2xx_ll_usb.c **** 
 2038              		.loc 1 767 5 is_stmt 1 view .LVU628
 767:Drivers/STM32F2xx_HAL_Driver/Src/stm32f2xx_ll_usb.c **** 
 2039              		.loc 1 767 33 is_stmt 0 view .LVU629
 2040 001c 2569     		ldr	r5, [r4, #16]
 2041 001e 25F0FF55 		bic	r5, r5, #534773760
 2042 0022 25F4C015 		bic	r5, r5, #1572864
 2043 0026 2561     		str	r5, [r4, #16]
 769:Drivers/STM32F2xx_HAL_Driver/Src/stm32f2xx_ll_usb.c ****     {
 2044              		.loc 1 769 5 is_stmt 1 view .LVU630
 769:Drivers/STM32F2xx_HAL_Driver/Src/stm32f2xx_ll_usb.c ****     {
 2045              		.loc 1 769 11 is_stmt 0 view .LVU631
 2046 0028 4D69     		ldr	r5, [r1, #20]
 769:Drivers/STM32F2xx_HAL_Driver/Src/stm32f2xx_ll_usb.c ****     {
 2047              		.loc 1 769 8 view .LVU632
 2048 002a 002D     		cmp	r5, #0
 2049 002c 40F0C380 		bne	.L150
ARM GAS  C:\Users\User\AppData\Local\Temp\ccY05dYU.s 			page 70


 771:Drivers/STM32F2xx_HAL_Driver/Src/stm32f2xx_ll_usb.c ****       USBx_OUTEP(epnum)->DOEPTSIZ |= (USB_OTG_DOEPTSIZ_PKTCNT & (1U << 19));
 2050              		.loc 1 771 7 is_stmt 1 view .LVU633
 771:Drivers/STM32F2xx_HAL_Driver/Src/stm32f2xx_ll_usb.c ****       USBx_OUTEP(epnum)->DOEPTSIZ |= (USB_OTG_DOEPTSIZ_PKTCNT & (1U << 19));
 2051              		.loc 1 771 35 is_stmt 0 view .LVU634
 2052 0030 2569     		ldr	r5, [r4, #16]
 771:Drivers/STM32F2xx_HAL_Driver/Src/stm32f2xx_ll_usb.c ****       USBx_OUTEP(epnum)->DOEPTSIZ |= (USB_OTG_DOEPTSIZ_PKTCNT & (1U << 19));
 2053              		.loc 1 771 67 view .LVU635
 2054 0032 8E68     		ldr	r6, [r1, #8]
 771:Drivers/STM32F2xx_HAL_Driver/Src/stm32f2xx_ll_usb.c ****       USBx_OUTEP(epnum)->DOEPTSIZ |= (USB_OTG_DOEPTSIZ_PKTCNT & (1U << 19));
 2055              		.loc 1 771 63 view .LVU636
 2056 0034 C6F31206 		ubfx	r6, r6, #0, #19
 771:Drivers/STM32F2xx_HAL_Driver/Src/stm32f2xx_ll_usb.c ****       USBx_OUTEP(epnum)->DOEPTSIZ |= (USB_OTG_DOEPTSIZ_PKTCNT & (1U << 19));
 2057              		.loc 1 771 35 view .LVU637
 2058 0038 3543     		orrs	r5, r5, r6
 2059 003a 2561     		str	r5, [r4, #16]
 772:Drivers/STM32F2xx_HAL_Driver/Src/stm32f2xx_ll_usb.c ****     }
 2060              		.loc 1 772 7 is_stmt 1 view .LVU638
 772:Drivers/STM32F2xx_HAL_Driver/Src/stm32f2xx_ll_usb.c ****     }
 2061              		.loc 1 772 35 is_stmt 0 view .LVU639
 2062 003c 2569     		ldr	r5, [r4, #16]
 2063 003e 45F40025 		orr	r5, r5, #524288
 2064 0042 2561     		str	r5, [r4, #16]
 2065              	.L151:
 781:Drivers/STM32F2xx_HAL_Driver/Src/stm32f2xx_ll_usb.c ****     {
 2066              		.loc 1 781 5 is_stmt 1 view .LVU640
 781:Drivers/STM32F2xx_HAL_Driver/Src/stm32f2xx_ll_usb.c ****     {
 2067              		.loc 1 781 8 is_stmt 0 view .LVU641
 2068 0044 012A     		cmp	r2, #1
 2069 0046 00F0CB80 		beq	.L157
 2070              	.LVL172:
 2071              	.L152:
 789:Drivers/STM32F2xx_HAL_Driver/Src/stm32f2xx_ll_usb.c ****     {
 2072              		.loc 1 789 5 is_stmt 1 view .LVU642
 789:Drivers/STM32F2xx_HAL_Driver/Src/stm32f2xx_ll_usb.c ****     {
 2073              		.loc 1 789 11 is_stmt 0 view .LVU643
 2074 004a CA78     		ldrb	r2, [r1, #3]	@ zero_extendqisi2
 789:Drivers/STM32F2xx_HAL_Driver/Src/stm32f2xx_ll_usb.c ****     {
 2075              		.loc 1 789 8 view .LVU644
 2076 004c 012A     		cmp	r2, #1
 2077 004e 00F0CD80 		beq	.L158
 2078              	.L153:
 801:Drivers/STM32F2xx_HAL_Driver/Src/stm32f2xx_ll_usb.c ****   }
 2079              		.loc 1 801 5 is_stmt 1 view .LVU645
 801:Drivers/STM32F2xx_HAL_Driver/Src/stm32f2xx_ll_usb.c ****   }
 2080              		.loc 1 801 32 is_stmt 0 view .LVU646
 2081 0052 D3F8002B 		ldr	r2, [r3, #2816]
 2082 0056 42F00442 		orr	r2, r2, #-2080374784
 2083 005a C3F8002B 		str	r2, [r3, #2816]
 2084              	.LVL173:
 2085              	.L146:
 804:Drivers/STM32F2xx_HAL_Driver/Src/stm32f2xx_ll_usb.c **** }
 2086              		.loc 1 804 3 is_stmt 1 view .LVU647
 805:Drivers/STM32F2xx_HAL_Driver/Src/stm32f2xx_ll_usb.c **** 
 2087              		.loc 1 805 1 is_stmt 0 view .LVU648
 2088 005e 0020     		movs	r0, #0
 2089 0060 03B0     		add	sp, sp, #12
 2090              	.LCFI27:
ARM GAS  C:\Users\User\AppData\Local\Temp\ccY05dYU.s 			page 71


 2091              		.cfi_remember_state
 2092              		.cfi_def_cfa_offset 20
 2093              		@ sp needed
 2094 0062 F0BD     		pop	{r4, r5, r6, r7, pc}
 2095              	.LVL174:
 2096              	.L156:
 2097              	.LCFI28:
 2098              		.cfi_restore_state
 685:Drivers/STM32F2xx_HAL_Driver/Src/stm32f2xx_ll_usb.c ****     {
 2099              		.loc 1 685 5 is_stmt 1 view .LVU649
 685:Drivers/STM32F2xx_HAL_Driver/Src/stm32f2xx_ll_usb.c ****     {
 2100              		.loc 1 685 11 is_stmt 0 view .LVU650
 2101 0064 4C69     		ldr	r4, [r1, #20]
 685:Drivers/STM32F2xx_HAL_Driver/Src/stm32f2xx_ll_usb.c ****     {
 2102              		.loc 1 685 8 view .LVU651
 2103 0066 84BB     		cbnz	r4, .L140
 687:Drivers/STM32F2xx_HAL_Driver/Src/stm32f2xx_ll_usb.c ****       USBx_INEP(epnum)->DIEPTSIZ |= (USB_OTG_DIEPTSIZ_PKTCNT & (1U << 19));
 2104              		.loc 1 687 7 is_stmt 1 view .LVU652
 687:Drivers/STM32F2xx_HAL_Driver/Src/stm32f2xx_ll_usb.c ****       USBx_INEP(epnum)->DIEPTSIZ |= (USB_OTG_DIEPTSIZ_PKTCNT & (1U << 19));
 2105              		.loc 1 687 34 is_stmt 0 view .LVU653
 2106 0068 00EB4314 		add	r4, r0, r3, lsl #5
 2107 006c D4F81059 		ldr	r5, [r4, #2320]
 2108 0070 25F0FF55 		bic	r5, r5, #534773760
 2109 0074 25F4C015 		bic	r5, r5, #1572864
 2110 0078 C4F81059 		str	r5, [r4, #2320]
 688:Drivers/STM32F2xx_HAL_Driver/Src/stm32f2xx_ll_usb.c ****       USBx_INEP(epnum)->DIEPTSIZ &= ~(USB_OTG_DIEPTSIZ_XFRSIZ);
 2111              		.loc 1 688 7 is_stmt 1 view .LVU654
 688:Drivers/STM32F2xx_HAL_Driver/Src/stm32f2xx_ll_usb.c ****       USBx_INEP(epnum)->DIEPTSIZ &= ~(USB_OTG_DIEPTSIZ_XFRSIZ);
 2112              		.loc 1 688 34 is_stmt 0 view .LVU655
 2113 007c D4F81059 		ldr	r5, [r4, #2320]
 2114 0080 45F40025 		orr	r5, r5, #524288
 2115 0084 C4F81059 		str	r5, [r4, #2320]
 689:Drivers/STM32F2xx_HAL_Driver/Src/stm32f2xx_ll_usb.c ****     }
 2116              		.loc 1 689 7 is_stmt 1 view .LVU656
 689:Drivers/STM32F2xx_HAL_Driver/Src/stm32f2xx_ll_usb.c ****     }
 2117              		.loc 1 689 34 is_stmt 0 view .LVU657
 2118 0088 D4F81059 		ldr	r5, [r4, #2320]
 2119 008c ED0C     		lsrs	r5, r5, #19
 2120 008e ED04     		lsls	r5, r5, #19
 2121 0090 C4F81059 		str	r5, [r4, #2320]
 2122              	.L141:
 710:Drivers/STM32F2xx_HAL_Driver/Src/stm32f2xx_ll_usb.c ****     {
 2123              		.loc 1 710 5 is_stmt 1 view .LVU658
 710:Drivers/STM32F2xx_HAL_Driver/Src/stm32f2xx_ll_usb.c ****     {
 2124              		.loc 1 710 8 is_stmt 0 view .LVU659
 2125 0094 012A     		cmp	r2, #1
 2126 0096 4CD0     		beq	.L159
 735:Drivers/STM32F2xx_HAL_Driver/Src/stm32f2xx_ll_usb.c **** 
 2127              		.loc 1 735 7 is_stmt 1 view .LVU660
 735:Drivers/STM32F2xx_HAL_Driver/Src/stm32f2xx_ll_usb.c **** 
 2128              		.loc 1 735 33 is_stmt 0 view .LVU661
 2129 0098 00EB4313 		add	r3, r0, r3, lsl #5
 2130              	.LVL175:
 735:Drivers/STM32F2xx_HAL_Driver/Src/stm32f2xx_ll_usb.c **** 
 2131              		.loc 1 735 33 view .LVU662
 2132 009c D3F80049 		ldr	r4, [r3, #2304]
 2133 00a0 44F00444 		orr	r4, r4, #-2080374784
ARM GAS  C:\Users\User\AppData\Local\Temp\ccY05dYU.s 			page 72


 2134 00a4 C3F80049 		str	r4, [r3, #2304]
 737:Drivers/STM32F2xx_HAL_Driver/Src/stm32f2xx_ll_usb.c ****       {
 2135              		.loc 1 737 7 is_stmt 1 view .LVU663
 737:Drivers/STM32F2xx_HAL_Driver/Src/stm32f2xx_ll_usb.c ****       {
 2136              		.loc 1 737 13 is_stmt 0 view .LVU664
 2137 00a8 CC78     		ldrb	r4, [r1, #3]	@ zero_extendqisi2
 737:Drivers/STM32F2xx_HAL_Driver/Src/stm32f2xx_ll_usb.c ****       {
 2138              		.loc 1 737 10 view .LVU665
 2139 00aa 012C     		cmp	r4, #1
 2140 00ac 6AD0     		beq	.L147
 740:Drivers/STM32F2xx_HAL_Driver/Src/stm32f2xx_ll_usb.c ****         {
 2141              		.loc 1 740 9 is_stmt 1 view .LVU666
 740:Drivers/STM32F2xx_HAL_Driver/Src/stm32f2xx_ll_usb.c ****         {
 2142              		.loc 1 740 15 is_stmt 0 view .LVU667
 2143 00ae 4B69     		ldr	r3, [r1, #20]
 740:Drivers/STM32F2xx_HAL_Driver/Src/stm32f2xx_ll_usb.c ****         {
 2144              		.loc 1 740 12 view .LVU668
 2145 00b0 002B     		cmp	r3, #0
 2146 00b2 D4D0     		beq	.L146
 742:Drivers/STM32F2xx_HAL_Driver/Src/stm32f2xx_ll_usb.c ****         }
 2147              		.loc 1 742 11 is_stmt 1 view .LVU669
 742:Drivers/STM32F2xx_HAL_Driver/Src/stm32f2xx_ll_usb.c ****         }
 2148              		.loc 1 742 35 is_stmt 0 view .LVU670
 2149 00b4 D0F83428 		ldr	r2, [r0, #2100]
 2150              	.LVL176:
 742:Drivers/STM32F2xx_HAL_Driver/Src/stm32f2xx_ll_usb.c ****         }
 2151              		.loc 1 742 48 view .LVU671
 2152 00b8 0978     		ldrb	r1, [r1]	@ zero_extendqisi2
 2153              	.LVL177:
 742:Drivers/STM32F2xx_HAL_Driver/Src/stm32f2xx_ll_usb.c ****         }
 2154              		.loc 1 742 54 view .LVU672
 2155 00ba 01F00F04 		and	r4, r1, #15
 742:Drivers/STM32F2xx_HAL_Driver/Src/stm32f2xx_ll_usb.c ****         }
 2156              		.loc 1 742 42 view .LVU673
 2157 00be 0121     		movs	r1, #1
 2158 00c0 A140     		lsls	r1, r1, r4
 742:Drivers/STM32F2xx_HAL_Driver/Src/stm32f2xx_ll_usb.c ****         }
 2159              		.loc 1 742 35 view .LVU674
 2160 00c2 0A43     		orrs	r2, r2, r1
 2161 00c4 C0F83428 		str	r2, [r0, #2100]
 2162 00c8 C9E7     		b	.L146
 2163              	.LVL178:
 2164              	.L140:
 698:Drivers/STM32F2xx_HAL_Driver/Src/stm32f2xx_ll_usb.c ****       USBx_INEP(epnum)->DIEPTSIZ &= ~(USB_OTG_DIEPTSIZ_PKTCNT);
 2165              		.loc 1 698 7 is_stmt 1 view .LVU675
 698:Drivers/STM32F2xx_HAL_Driver/Src/stm32f2xx_ll_usb.c ****       USBx_INEP(epnum)->DIEPTSIZ &= ~(USB_OTG_DIEPTSIZ_PKTCNT);
 2166              		.loc 1 698 34 is_stmt 0 view .LVU676
 2167 00ca 00EB4314 		add	r4, r0, r3, lsl #5
 2168 00ce D4F81059 		ldr	r5, [r4, #2320]
 2169 00d2 ED0C     		lsrs	r5, r5, #19
 2170 00d4 ED04     		lsls	r5, r5, #19
 2171 00d6 C4F81059 		str	r5, [r4, #2320]
 699:Drivers/STM32F2xx_HAL_Driver/Src/stm32f2xx_ll_usb.c ****       USBx_INEP(epnum)->DIEPTSIZ |= (USB_OTG_DIEPTSIZ_PKTCNT & (((ep->xfer_len + ep->maxpacket - 1U
 2172              		.loc 1 699 7 is_stmt 1 view .LVU677
 699:Drivers/STM32F2xx_HAL_Driver/Src/stm32f2xx_ll_usb.c ****       USBx_INEP(epnum)->DIEPTSIZ |= (USB_OTG_DIEPTSIZ_PKTCNT & (((ep->xfer_len + ep->maxpacket - 1U
 2173              		.loc 1 699 34 is_stmt 0 view .LVU678
 2174 00da D4F81059 		ldr	r5, [r4, #2320]
ARM GAS  C:\Users\User\AppData\Local\Temp\ccY05dYU.s 			page 73


 2175 00de 25F0FF55 		bic	r5, r5, #534773760
 2176 00e2 25F4C015 		bic	r5, r5, #1572864
 2177 00e6 C4F81059 		str	r5, [r4, #2320]
 700:Drivers/STM32F2xx_HAL_Driver/Src/stm32f2xx_ll_usb.c ****       USBx_INEP(epnum)->DIEPTSIZ |= (USB_OTG_DIEPTSIZ_XFRSIZ & ep->xfer_len);
 2178              		.loc 1 700 7 is_stmt 1 view .LVU679
 700:Drivers/STM32F2xx_HAL_Driver/Src/stm32f2xx_ll_usb.c ****       USBx_INEP(epnum)->DIEPTSIZ |= (USB_OTG_DIEPTSIZ_XFRSIZ & ep->xfer_len);
 2179              		.loc 1 700 34 is_stmt 0 view .LVU680
 2180 00ea D4F81069 		ldr	r6, [r4, #2320]
 700:Drivers/STM32F2xx_HAL_Driver/Src/stm32f2xx_ll_usb.c ****       USBx_INEP(epnum)->DIEPTSIZ |= (USB_OTG_DIEPTSIZ_XFRSIZ & ep->xfer_len);
 2181              		.loc 1 700 69 view .LVU681
 2182 00ee 4D69     		ldr	r5, [r1, #20]
 700:Drivers/STM32F2xx_HAL_Driver/Src/stm32f2xx_ll_usb.c ****       USBx_INEP(epnum)->DIEPTSIZ |= (USB_OTG_DIEPTSIZ_XFRSIZ & ep->xfer_len);
 2183              		.loc 1 700 84 view .LVU682
 2184 00f0 8F68     		ldr	r7, [r1, #8]
 700:Drivers/STM32F2xx_HAL_Driver/Src/stm32f2xx_ll_usb.c ****       USBx_INEP(epnum)->DIEPTSIZ |= (USB_OTG_DIEPTSIZ_XFRSIZ & ep->xfer_len);
 2185              		.loc 1 700 80 view .LVU683
 2186 00f2 3D44     		add	r5, r5, r7
 700:Drivers/STM32F2xx_HAL_Driver/Src/stm32f2xx_ll_usb.c ****       USBx_INEP(epnum)->DIEPTSIZ |= (USB_OTG_DIEPTSIZ_XFRSIZ & ep->xfer_len);
 2187              		.loc 1 700 96 view .LVU684
 2188 00f4 013D     		subs	r5, r5, #1
 700:Drivers/STM32F2xx_HAL_Driver/Src/stm32f2xx_ll_usb.c ****       USBx_INEP(epnum)->DIEPTSIZ |= (USB_OTG_DIEPTSIZ_XFRSIZ & ep->xfer_len);
 2189              		.loc 1 700 102 view .LVU685
 2190 00f6 B5FBF7F5 		udiv	r5, r5, r7
 700:Drivers/STM32F2xx_HAL_Driver/Src/stm32f2xx_ll_usb.c ****       USBx_INEP(epnum)->DIEPTSIZ |= (USB_OTG_DIEPTSIZ_XFRSIZ & ep->xfer_len);
 2191              		.loc 1 700 62 view .LVU686
 2192 00fa 464F     		ldr	r7, .L161
 2193 00fc 07EAC545 		and	r5, r7, r5, lsl #19
 700:Drivers/STM32F2xx_HAL_Driver/Src/stm32f2xx_ll_usb.c ****       USBx_INEP(epnum)->DIEPTSIZ |= (USB_OTG_DIEPTSIZ_XFRSIZ & ep->xfer_len);
 2194              		.loc 1 700 34 view .LVU687
 2195 0100 3543     		orrs	r5, r5, r6
 2196 0102 C4F81059 		str	r5, [r4, #2320]
 701:Drivers/STM32F2xx_HAL_Driver/Src/stm32f2xx_ll_usb.c **** 
 2197              		.loc 1 701 7 is_stmt 1 view .LVU688
 701:Drivers/STM32F2xx_HAL_Driver/Src/stm32f2xx_ll_usb.c **** 
 2198              		.loc 1 701 34 is_stmt 0 view .LVU689
 2199 0106 D4F81059 		ldr	r5, [r4, #2320]
 701:Drivers/STM32F2xx_HAL_Driver/Src/stm32f2xx_ll_usb.c **** 
 2200              		.loc 1 701 66 view .LVU690
 2201 010a 4E69     		ldr	r6, [r1, #20]
 701:Drivers/STM32F2xx_HAL_Driver/Src/stm32f2xx_ll_usb.c **** 
 2202              		.loc 1 701 62 view .LVU691
 2203 010c C6F31206 		ubfx	r6, r6, #0, #19
 701:Drivers/STM32F2xx_HAL_Driver/Src/stm32f2xx_ll_usb.c **** 
 2204              		.loc 1 701 34 view .LVU692
 2205 0110 3543     		orrs	r5, r5, r6
 2206 0112 C4F81059 		str	r5, [r4, #2320]
 698:Drivers/STM32F2xx_HAL_Driver/Src/stm32f2xx_ll_usb.c ****       USBx_INEP(epnum)->DIEPTSIZ &= ~(USB_OTG_DIEPTSIZ_PKTCNT);
 2207              		.loc 1 698 34 view .LVU693
 2208 0116 04F51064 		add	r4, r4, #2304
 703:Drivers/STM32F2xx_HAL_Driver/Src/stm32f2xx_ll_usb.c ****       {
 2209              		.loc 1 703 7 is_stmt 1 view .LVU694
 703:Drivers/STM32F2xx_HAL_Driver/Src/stm32f2xx_ll_usb.c ****       {
 2210              		.loc 1 703 13 is_stmt 0 view .LVU695
 2211 011a CD78     		ldrb	r5, [r1, #3]	@ zero_extendqisi2
 703:Drivers/STM32F2xx_HAL_Driver/Src/stm32f2xx_ll_usb.c ****       {
 2212              		.loc 1 703 10 view .LVU696
 2213 011c 012D     		cmp	r5, #1
ARM GAS  C:\Users\User\AppData\Local\Temp\ccY05dYU.s 			page 74


 2214 011e B9D1     		bne	.L141
 705:Drivers/STM32F2xx_HAL_Driver/Src/stm32f2xx_ll_usb.c ****         USBx_INEP(epnum)->DIEPTSIZ |= (USB_OTG_DIEPTSIZ_MULCNT & (1U << 29));
 2215              		.loc 1 705 9 is_stmt 1 view .LVU697
 705:Drivers/STM32F2xx_HAL_Driver/Src/stm32f2xx_ll_usb.c ****         USBx_INEP(epnum)->DIEPTSIZ |= (USB_OTG_DIEPTSIZ_MULCNT & (1U << 29));
 2216              		.loc 1 705 36 is_stmt 0 view .LVU698
 2217 0120 2569     		ldr	r5, [r4, #16]
 2218 0122 25F0C045 		bic	r5, r5, #1610612736
 2219 0126 2561     		str	r5, [r4, #16]
 706:Drivers/STM32F2xx_HAL_Driver/Src/stm32f2xx_ll_usb.c ****       }
 2220              		.loc 1 706 9 is_stmt 1 view .LVU699
 706:Drivers/STM32F2xx_HAL_Driver/Src/stm32f2xx_ll_usb.c ****       }
 2221              		.loc 1 706 36 is_stmt 0 view .LVU700
 2222 0128 2569     		ldr	r5, [r4, #16]
 2223 012a 45F00055 		orr	r5, r5, #536870912
 2224 012e 2561     		str	r5, [r4, #16]
 2225 0130 B0E7     		b	.L141
 2226              	.L159:
 712:Drivers/STM32F2xx_HAL_Driver/Src/stm32f2xx_ll_usb.c ****       {
 2227              		.loc 1 712 7 is_stmt 1 view .LVU701
 712:Drivers/STM32F2xx_HAL_Driver/Src/stm32f2xx_ll_usb.c ****       {
 2228              		.loc 1 712 23 is_stmt 0 view .LVU702
 2229 0132 0A69     		ldr	r2, [r1, #16]
 2230              	.LVL179:
 712:Drivers/STM32F2xx_HAL_Driver/Src/stm32f2xx_ll_usb.c ****       {
 2231              		.loc 1 712 10 view .LVU703
 2232 0134 1AB1     		cbz	r2, .L143
 714:Drivers/STM32F2xx_HAL_Driver/Src/stm32f2xx_ll_usb.c ****       }
 2233              		.loc 1 714 9 is_stmt 1 view .LVU704
 2234 0136 00EB4314 		add	r4, r0, r3, lsl #5
 714:Drivers/STM32F2xx_HAL_Driver/Src/stm32f2xx_ll_usb.c ****       }
 2235              		.loc 1 714 35 is_stmt 0 view .LVU705
 2236 013a C4F81429 		str	r2, [r4, #2324]
 2237              	.L143:
 717:Drivers/STM32F2xx_HAL_Driver/Src/stm32f2xx_ll_usb.c ****       {
 2238              		.loc 1 717 7 is_stmt 1 view .LVU706
 717:Drivers/STM32F2xx_HAL_Driver/Src/stm32f2xx_ll_usb.c ****       {
 2239              		.loc 1 717 13 is_stmt 0 view .LVU707
 2240 013e CA78     		ldrb	r2, [r1, #3]	@ zero_extendqisi2
 717:Drivers/STM32F2xx_HAL_Driver/Src/stm32f2xx_ll_usb.c ****       {
 2241              		.loc 1 717 10 view .LVU708
 2242 0140 012A     		cmp	r2, #1
 2243 0142 08D0     		beq	.L160
 2244              	.LVL180:
 2245              	.L144:
 730:Drivers/STM32F2xx_HAL_Driver/Src/stm32f2xx_ll_usb.c ****     }
 2246              		.loc 1 730 7 is_stmt 1 view .LVU709
 730:Drivers/STM32F2xx_HAL_Driver/Src/stm32f2xx_ll_usb.c ****     }
 2247              		.loc 1 730 33 is_stmt 0 view .LVU710
 2248 0144 00EB4313 		add	r3, r0, r3, lsl #5
 2249              	.LVL181:
 730:Drivers/STM32F2xx_HAL_Driver/Src/stm32f2xx_ll_usb.c ****     }
 2250              		.loc 1 730 33 view .LVU711
 2251 0148 D3F80029 		ldr	r2, [r3, #2304]
 2252 014c 42F00442 		orr	r2, r2, #-2080374784
 2253 0150 C3F80029 		str	r2, [r3, #2304]
 2254 0154 83E7     		b	.L146
 2255              	.LVL182:
ARM GAS  C:\Users\User\AppData\Local\Temp\ccY05dYU.s 			page 75


 2256              	.L160:
 719:Drivers/STM32F2xx_HAL_Driver/Src/stm32f2xx_ll_usb.c ****         {
 2257              		.loc 1 719 9 is_stmt 1 view .LVU712
 719:Drivers/STM32F2xx_HAL_Driver/Src/stm32f2xx_ll_usb.c ****         {
 2258              		.loc 1 719 25 is_stmt 0 view .LVU713
 2259 0156 D0F80828 		ldr	r2, [r0, #2056]
 719:Drivers/STM32F2xx_HAL_Driver/Src/stm32f2xx_ll_usb.c ****         {
 2260              		.loc 1 719 12 view .LVU714
 2261 015a 12F4807F 		tst	r2, #256
 2262 015e 08D1     		bne	.L145
 721:Drivers/STM32F2xx_HAL_Driver/Src/stm32f2xx_ll_usb.c ****         }
 2263              		.loc 1 721 11 is_stmt 1 view .LVU715
 721:Drivers/STM32F2xx_HAL_Driver/Src/stm32f2xx_ll_usb.c ****         }
 2264              		.loc 1 721 37 is_stmt 0 view .LVU716
 2265 0160 00EB4311 		add	r1, r0, r3, lsl #5
 2266              	.LVL183:
 721:Drivers/STM32F2xx_HAL_Driver/Src/stm32f2xx_ll_usb.c ****         }
 2267              		.loc 1 721 37 view .LVU717
 2268 0164 D1F80029 		ldr	r2, [r1, #2304]
 2269 0168 42F00052 		orr	r2, r2, #536870912
 2270 016c C1F80029 		str	r2, [r1, #2304]
 2271 0170 E8E7     		b	.L144
 2272              	.LVL184:
 2273              	.L145:
 725:Drivers/STM32F2xx_HAL_Driver/Src/stm32f2xx_ll_usb.c ****         }
 2274              		.loc 1 725 11 is_stmt 1 view .LVU718
 725:Drivers/STM32F2xx_HAL_Driver/Src/stm32f2xx_ll_usb.c ****         }
 2275              		.loc 1 725 37 is_stmt 0 view .LVU719
 2276 0172 00EB4311 		add	r1, r0, r3, lsl #5
 2277              	.LVL185:
 725:Drivers/STM32F2xx_HAL_Driver/Src/stm32f2xx_ll_usb.c ****         }
 2278              		.loc 1 725 37 view .LVU720
 2279 0176 D1F80029 		ldr	r2, [r1, #2304]
 2280 017a 42F08052 		orr	r2, r2, #268435456
 2281 017e C1F80029 		str	r2, [r1, #2304]
 2282 0182 DFE7     		b	.L144
 2283              	.LVL186:
 2284              	.L147:
 747:Drivers/STM32F2xx_HAL_Driver/Src/stm32f2xx_ll_usb.c ****         {
 2285              		.loc 1 747 9 is_stmt 1 view .LVU721
 747:Drivers/STM32F2xx_HAL_Driver/Src/stm32f2xx_ll_usb.c ****         {
 2286              		.loc 1 747 25 is_stmt 0 view .LVU722
 2287 0184 D0F80848 		ldr	r4, [r0, #2056]
 747:Drivers/STM32F2xx_HAL_Driver/Src/stm32f2xx_ll_usb.c ****         {
 2288              		.loc 1 747 12 view .LVU723
 2289 0188 14F4807F 		tst	r4, #256
 2290 018c 0CD1     		bne	.L148
 749:Drivers/STM32F2xx_HAL_Driver/Src/stm32f2xx_ll_usb.c ****         }
 2291              		.loc 1 749 11 is_stmt 1 view .LVU724
 749:Drivers/STM32F2xx_HAL_Driver/Src/stm32f2xx_ll_usb.c ****         }
 2292              		.loc 1 749 37 is_stmt 0 view .LVU725
 2293 018e D3F80049 		ldr	r4, [r3, #2304]
 2294 0192 44F00054 		orr	r4, r4, #536870912
 2295 0196 C3F80049 		str	r4, [r3, #2304]
 2296              	.L149:
 756:Drivers/STM32F2xx_HAL_Driver/Src/stm32f2xx_ll_usb.c ****       }
 2297              		.loc 1 756 9 is_stmt 1 view .LVU726
ARM GAS  C:\Users\User\AppData\Local\Temp\ccY05dYU.s 			page 76


 756:Drivers/STM32F2xx_HAL_Driver/Src/stm32f2xx_ll_usb.c ****       }
 2298              		.loc 1 756 15 is_stmt 0 view .LVU727
 2299 019a 0092     		str	r2, [sp]
 2300 019c 8B8A     		ldrh	r3, [r1, #20]
 2301 019e 0A78     		ldrb	r2, [r1]	@ zero_extendqisi2
 2302              	.LVL187:
 756:Drivers/STM32F2xx_HAL_Driver/Src/stm32f2xx_ll_usb.c ****       }
 2303              		.loc 1 756 15 view .LVU728
 2304 01a0 C968     		ldr	r1, [r1, #12]
 2305              	.LVL188:
 756:Drivers/STM32F2xx_HAL_Driver/Src/stm32f2xx_ll_usb.c ****       }
 2306              		.loc 1 756 15 view .LVU729
 2307 01a2 FFF7FEFF 		bl	USB_WritePacket
 2308              	.LVL189:
 756:Drivers/STM32F2xx_HAL_Driver/Src/stm32f2xx_ll_usb.c ****       }
 2309              		.loc 1 756 15 view .LVU730
 2310 01a6 5AE7     		b	.L146
 2311              	.LVL190:
 2312              	.L148:
 753:Drivers/STM32F2xx_HAL_Driver/Src/stm32f2xx_ll_usb.c ****         }
 2313              		.loc 1 753 11 is_stmt 1 view .LVU731
 753:Drivers/STM32F2xx_HAL_Driver/Src/stm32f2xx_ll_usb.c ****         }
 2314              		.loc 1 753 37 is_stmt 0 view .LVU732
 2315 01a8 D3F80049 		ldr	r4, [r3, #2304]
 2316 01ac 44F08054 		orr	r4, r4, #268435456
 2317 01b0 C3F80049 		str	r4, [r3, #2304]
 2318 01b4 F1E7     		b	.L149
 2319              	.L150:
 776:Drivers/STM32F2xx_HAL_Driver/Src/stm32f2xx_ll_usb.c ****       USBx_OUTEP(epnum)->DOEPTSIZ |= USB_OTG_DOEPTSIZ_PKTCNT & ((uint32_t)pktcnt << 19);
 2320              		.loc 1 776 7 is_stmt 1 view .LVU733
 776:Drivers/STM32F2xx_HAL_Driver/Src/stm32f2xx_ll_usb.c ****       USBx_OUTEP(epnum)->DOEPTSIZ |= USB_OTG_DOEPTSIZ_PKTCNT & ((uint32_t)pktcnt << 19);
 2321              		.loc 1 776 45 is_stmt 0 view .LVU734
 2322 01b6 8E68     		ldr	r6, [r1, #8]
 776:Drivers/STM32F2xx_HAL_Driver/Src/stm32f2xx_ll_usb.c ****       USBx_OUTEP(epnum)->DOEPTSIZ |= USB_OTG_DOEPTSIZ_PKTCNT & ((uint32_t)pktcnt << 19);
 2323              		.loc 1 776 41 view .LVU735
 2324 01b8 3544     		add	r5, r5, r6
 776:Drivers/STM32F2xx_HAL_Driver/Src/stm32f2xx_ll_usb.c ****       USBx_OUTEP(epnum)->DOEPTSIZ |= USB_OTG_DOEPTSIZ_PKTCNT & ((uint32_t)pktcnt << 19);
 2325              		.loc 1 776 57 view .LVU736
 2326 01ba 013D     		subs	r5, r5, #1
 776:Drivers/STM32F2xx_HAL_Driver/Src/stm32f2xx_ll_usb.c ****       USBx_OUTEP(epnum)->DOEPTSIZ |= USB_OTG_DOEPTSIZ_PKTCNT & ((uint32_t)pktcnt << 19);
 2327              		.loc 1 776 63 view .LVU737
 2328 01bc B5FBF6F5 		udiv	r5, r5, r6
 2329              	.LVL191:
 777:Drivers/STM32F2xx_HAL_Driver/Src/stm32f2xx_ll_usb.c ****       USBx_OUTEP(epnum)->DOEPTSIZ |= USB_OTG_DOEPTSIZ_XFRSIZ & (ep->maxpacket * pktcnt);
 2330              		.loc 1 777 7 is_stmt 1 view .LVU738
 777:Drivers/STM32F2xx_HAL_Driver/Src/stm32f2xx_ll_usb.c ****       USBx_OUTEP(epnum)->DOEPTSIZ |= USB_OTG_DOEPTSIZ_XFRSIZ & (ep->maxpacket * pktcnt);
 2331              		.loc 1 777 35 is_stmt 0 view .LVU739
 2332 01c0 2669     		ldr	r6, [r4, #16]
 777:Drivers/STM32F2xx_HAL_Driver/Src/stm32f2xx_ll_usb.c ****       USBx_OUTEP(epnum)->DOEPTSIZ |= USB_OTG_DOEPTSIZ_XFRSIZ & (ep->maxpacket * pktcnt);
 2333              		.loc 1 777 62 view .LVU740
 2334 01c2 144F     		ldr	r7, .L161
 2335 01c4 07EAC547 		and	r7, r7, r5, lsl #19
 777:Drivers/STM32F2xx_HAL_Driver/Src/stm32f2xx_ll_usb.c ****       USBx_OUTEP(epnum)->DOEPTSIZ |= USB_OTG_DOEPTSIZ_XFRSIZ & (ep->maxpacket * pktcnt);
 2336              		.loc 1 777 35 view .LVU741
 2337 01c8 3E43     		orrs	r6, r6, r7
 2338 01ca 2661     		str	r6, [r4, #16]
 778:Drivers/STM32F2xx_HAL_Driver/Src/stm32f2xx_ll_usb.c ****     }
ARM GAS  C:\Users\User\AppData\Local\Temp\ccY05dYU.s 			page 77


 2339              		.loc 1 778 7 is_stmt 1 view .LVU742
 778:Drivers/STM32F2xx_HAL_Driver/Src/stm32f2xx_ll_usb.c ****     }
 2340              		.loc 1 778 35 is_stmt 0 view .LVU743
 2341 01cc 2769     		ldr	r7, [r4, #16]
 778:Drivers/STM32F2xx_HAL_Driver/Src/stm32f2xx_ll_usb.c ****     }
 2342              		.loc 1 778 67 view .LVU744
 2343 01ce 8E68     		ldr	r6, [r1, #8]
 778:Drivers/STM32F2xx_HAL_Driver/Src/stm32f2xx_ll_usb.c ****     }
 2344              		.loc 1 778 79 view .LVU745
 2345 01d0 ADB2     		uxth	r5, r5
 778:Drivers/STM32F2xx_HAL_Driver/Src/stm32f2xx_ll_usb.c ****     }
 2346              		.loc 1 778 79 view .LVU746
 2347 01d2 06FB05F5 		mul	r5, r6, r5
 2348              	.LVL192:
 778:Drivers/STM32F2xx_HAL_Driver/Src/stm32f2xx_ll_usb.c ****     }
 2349              		.loc 1 778 62 view .LVU747
 2350 01d6 C5F31205 		ubfx	r5, r5, #0, #19
 778:Drivers/STM32F2xx_HAL_Driver/Src/stm32f2xx_ll_usb.c ****     }
 2351              		.loc 1 778 35 view .LVU748
 2352 01da 3D43     		orrs	r5, r5, r7
 2353 01dc 2561     		str	r5, [r4, #16]
 2354 01de 31E7     		b	.L151
 2355              	.L157:
 783:Drivers/STM32F2xx_HAL_Driver/Src/stm32f2xx_ll_usb.c ****       {
 2356              		.loc 1 783 7 is_stmt 1 view .LVU749
 783:Drivers/STM32F2xx_HAL_Driver/Src/stm32f2xx_ll_usb.c ****       {
 2357              		.loc 1 783 23 is_stmt 0 view .LVU750
 2358 01e0 CA68     		ldr	r2, [r1, #12]
 2359              	.LVL193:
 783:Drivers/STM32F2xx_HAL_Driver/Src/stm32f2xx_ll_usb.c ****       {
 2360              		.loc 1 783 10 view .LVU751
 2361 01e2 002A     		cmp	r2, #0
 2362 01e4 3FF431AF 		beq	.L152
 785:Drivers/STM32F2xx_HAL_Driver/Src/stm32f2xx_ll_usb.c ****       }
 2363              		.loc 1 785 9 is_stmt 1 view .LVU752
 785:Drivers/STM32F2xx_HAL_Driver/Src/stm32f2xx_ll_usb.c ****       }
 2364              		.loc 1 785 36 is_stmt 0 view .LVU753
 2365 01e8 6261     		str	r2, [r4, #20]
 2366 01ea 2EE7     		b	.L152
 2367              	.L158:
 791:Drivers/STM32F2xx_HAL_Driver/Src/stm32f2xx_ll_usb.c ****       {
 2368              		.loc 1 791 7 is_stmt 1 view .LVU754
 791:Drivers/STM32F2xx_HAL_Driver/Src/stm32f2xx_ll_usb.c ****       {
 2369              		.loc 1 791 23 is_stmt 0 view .LVU755
 2370 01ec D0F80828 		ldr	r2, [r0, #2056]
 791:Drivers/STM32F2xx_HAL_Driver/Src/stm32f2xx_ll_usb.c ****       {
 2371              		.loc 1 791 10 view .LVU756
 2372 01f0 12F4807F 		tst	r2, #256
 2373 01f4 06D1     		bne	.L154
 793:Drivers/STM32F2xx_HAL_Driver/Src/stm32f2xx_ll_usb.c ****       }
 2374              		.loc 1 793 9 is_stmt 1 view .LVU757
 793:Drivers/STM32F2xx_HAL_Driver/Src/stm32f2xx_ll_usb.c ****       }
 2375              		.loc 1 793 36 is_stmt 0 view .LVU758
 2376 01f6 D3F8002B 		ldr	r2, [r3, #2816]
 2377 01fa 42F00052 		orr	r2, r2, #536870912
 2378 01fe C3F8002B 		str	r2, [r3, #2816]
 2379 0202 26E7     		b	.L153
ARM GAS  C:\Users\User\AppData\Local\Temp\ccY05dYU.s 			page 78


 2380              	.L154:
 797:Drivers/STM32F2xx_HAL_Driver/Src/stm32f2xx_ll_usb.c ****       }
 2381              		.loc 1 797 9 is_stmt 1 view .LVU759
 797:Drivers/STM32F2xx_HAL_Driver/Src/stm32f2xx_ll_usb.c ****       }
 2382              		.loc 1 797 36 is_stmt 0 view .LVU760
 2383 0204 D3F8002B 		ldr	r2, [r3, #2816]
 2384 0208 42F08052 		orr	r2, r2, #268435456
 2385 020c C3F8002B 		str	r2, [r3, #2816]
 2386 0210 1FE7     		b	.L153
 2387              	.L162:
 2388 0212 00BF     		.align	2
 2389              	.L161:
 2390 0214 0000F81F 		.word	536346624
 2391              		.cfi_endproc
 2392              	.LFE86:
 2394              		.section	.text.USB_ReadPacket,"ax",%progbits
 2395              		.align	1
 2396              		.global	USB_ReadPacket
 2397              		.syntax unified
 2398              		.thumb
 2399              		.thumb_func
 2400              		.fpu softvfp
 2402              	USB_ReadPacket:
 2403              	.LVL194:
 2404              	.LFB89:
 944:Drivers/STM32F2xx_HAL_Driver/Src/stm32f2xx_ll_usb.c ****   uint32_t USBx_BASE = (uint32_t)USBx;
 2405              		.loc 1 944 1 is_stmt 1 view -0
 2406              		.cfi_startproc
 2407              		@ args = 0, pretend = 0, frame = 0
 2408              		@ frame_needed = 0, uses_anonymous_args = 0
 2409              		@ link register save eliminated.
 945:Drivers/STM32F2xx_HAL_Driver/Src/stm32f2xx_ll_usb.c ****   uint32_t *pDest = (uint32_t *)dest;
 2410              		.loc 1 945 3 view .LVU762
 946:Drivers/STM32F2xx_HAL_Driver/Src/stm32f2xx_ll_usb.c ****   uint32_t i;
 2411              		.loc 1 946 3 view .LVU763
 947:Drivers/STM32F2xx_HAL_Driver/Src/stm32f2xx_ll_usb.c ****   uint32_t count32b = ((uint32_t)len + 3U) / 4U;
 2412              		.loc 1 947 3 view .LVU764
 948:Drivers/STM32F2xx_HAL_Driver/Src/stm32f2xx_ll_usb.c **** 
 2413              		.loc 1 948 3 view .LVU765
 948:Drivers/STM32F2xx_HAL_Driver/Src/stm32f2xx_ll_usb.c **** 
 2414              		.loc 1 948 38 is_stmt 0 view .LVU766
 2415 0000 0332     		adds	r2, r2, #3
 2416              	.LVL195:
 948:Drivers/STM32F2xx_HAL_Driver/Src/stm32f2xx_ll_usb.c **** 
 2417              		.loc 1 948 12 view .LVU767
 2418 0002 9208     		lsrs	r2, r2, #2
 2419              	.LVL196:
 950:Drivers/STM32F2xx_HAL_Driver/Src/stm32f2xx_ll_usb.c ****   {
 2420              		.loc 1 950 3 is_stmt 1 view .LVU768
 950:Drivers/STM32F2xx_HAL_Driver/Src/stm32f2xx_ll_usb.c ****   {
 2421              		.loc 1 950 10 is_stmt 0 view .LVU769
 2422 0004 0023     		movs	r3, #0
 2423              	.LVL197:
 950:Drivers/STM32F2xx_HAL_Driver/Src/stm32f2xx_ll_usb.c ****   {
 2424              		.loc 1 950 3 view .LVU770
 2425 0006 9342     		cmp	r3, r2
 2426 0008 0BD2     		bcs	.L170
ARM GAS  C:\Users\User\AppData\Local\Temp\ccY05dYU.s 			page 79


 944:Drivers/STM32F2xx_HAL_Driver/Src/stm32f2xx_ll_usb.c ****   uint32_t USBx_BASE = (uint32_t)USBx;
 2427              		.loc 1 944 1 view .LVU771
 2428 000a 10B4     		push	{r4}
 2429              	.LCFI29:
 2430              		.cfi_def_cfa_offset 4
 2431              		.cfi_offset 4, -4
 2432              	.LVL198:
 2433              	.L165:
 952:Drivers/STM32F2xx_HAL_Driver/Src/stm32f2xx_ll_usb.c ****     pDest++;
 2434              		.loc 1 952 5 is_stmt 1 discriminator 3 view .LVU772
 2435 000c 00F58054 		add	r4, r0, #4096
 2436 0010 2468     		ldr	r4, [r4]
 2437 0012 41F8044B 		str	r4, [r1], #4	@ unaligned
 2438              	.LVL199:
 953:Drivers/STM32F2xx_HAL_Driver/Src/stm32f2xx_ll_usb.c ****   }
 2439              		.loc 1 953 5 discriminator 3 view .LVU773
 950:Drivers/STM32F2xx_HAL_Driver/Src/stm32f2xx_ll_usb.c ****   {
 2440              		.loc 1 950 31 is_stmt 0 discriminator 3 view .LVU774
 2441 0016 0133     		adds	r3, r3, #1
 2442              	.LVL200:
 950:Drivers/STM32F2xx_HAL_Driver/Src/stm32f2xx_ll_usb.c ****   {
 2443              		.loc 1 950 3 discriminator 3 view .LVU775
 2444 0018 9342     		cmp	r3, r2
 2445 001a F7D3     		bcc	.L165
 956:Drivers/STM32F2xx_HAL_Driver/Src/stm32f2xx_ll_usb.c **** }
 2446              		.loc 1 956 3 is_stmt 1 view .LVU776
 957:Drivers/STM32F2xx_HAL_Driver/Src/stm32f2xx_ll_usb.c **** 
 2447              		.loc 1 957 1 is_stmt 0 view .LVU777
 2448 001c 0846     		mov	r0, r1
 2449              	.LVL201:
 957:Drivers/STM32F2xx_HAL_Driver/Src/stm32f2xx_ll_usb.c **** 
 2450              		.loc 1 957 1 view .LVU778
 2451 001e 10BC     		pop	{r4}
 2452              	.LCFI30:
 2453              		.cfi_restore 4
 2454              		.cfi_def_cfa_offset 0
 2455 0020 7047     		bx	lr
 2456              	.LVL202:
 2457              	.L170:
 956:Drivers/STM32F2xx_HAL_Driver/Src/stm32f2xx_ll_usb.c **** }
 2458              		.loc 1 956 3 is_stmt 1 view .LVU779
 957:Drivers/STM32F2xx_HAL_Driver/Src/stm32f2xx_ll_usb.c **** 
 2459              		.loc 1 957 1 is_stmt 0 view .LVU780
 2460 0022 0846     		mov	r0, r1
 2461              	.LVL203:
 957:Drivers/STM32F2xx_HAL_Driver/Src/stm32f2xx_ll_usb.c **** 
 2462              		.loc 1 957 1 view .LVU781
 2463 0024 7047     		bx	lr
 2464              		.cfi_endproc
 2465              	.LFE89:
 2467              		.section	.text.USB_EPSetStall,"ax",%progbits
 2468              		.align	1
 2469              		.global	USB_EPSetStall
 2470              		.syntax unified
 2471              		.thumb
 2472              		.thumb_func
 2473              		.fpu softvfp
ARM GAS  C:\Users\User\AppData\Local\Temp\ccY05dYU.s 			page 80


 2475              	USB_EPSetStall:
 2476              	.LVL204:
 2477              	.LFB90:
 966:Drivers/STM32F2xx_HAL_Driver/Src/stm32f2xx_ll_usb.c ****   uint32_t USBx_BASE = (uint32_t)USBx;
 2478              		.loc 1 966 1 is_stmt 1 view -0
 2479              		.cfi_startproc
 2480              		@ args = 0, pretend = 0, frame = 0
 2481              		@ frame_needed = 0, uses_anonymous_args = 0
 2482              		@ link register save eliminated.
 967:Drivers/STM32F2xx_HAL_Driver/Src/stm32f2xx_ll_usb.c ****   uint32_t epnum = (uint32_t)ep->num;
 2483              		.loc 1 967 3 view .LVU783
 968:Drivers/STM32F2xx_HAL_Driver/Src/stm32f2xx_ll_usb.c **** 
 2484              		.loc 1 968 3 view .LVU784
 968:Drivers/STM32F2xx_HAL_Driver/Src/stm32f2xx_ll_usb.c **** 
 2485              		.loc 1 968 32 is_stmt 0 view .LVU785
 2486 0000 0B78     		ldrb	r3, [r1]	@ zero_extendqisi2
 2487              	.LVL205:
 970:Drivers/STM32F2xx_HAL_Driver/Src/stm32f2xx_ll_usb.c ****   {
 2488              		.loc 1 970 3 is_stmt 1 view .LVU786
 970:Drivers/STM32F2xx_HAL_Driver/Src/stm32f2xx_ll_usb.c ****   {
 2489              		.loc 1 970 9 is_stmt 0 view .LVU787
 2490 0002 4A78     		ldrb	r2, [r1, #1]	@ zero_extendqisi2
 970:Drivers/STM32F2xx_HAL_Driver/Src/stm32f2xx_ll_usb.c ****   {
 2491              		.loc 1 970 6 view .LVU788
 2492 0004 012A     		cmp	r2, #1
 2493 0006 14D0     		beq	.L176
 980:Drivers/STM32F2xx_HAL_Driver/Src/stm32f2xx_ll_usb.c ****     {
 2494              		.loc 1 980 5 is_stmt 1 view .LVU789
 980:Drivers/STM32F2xx_HAL_Driver/Src/stm32f2xx_ll_usb.c ****     {
 2495              		.loc 1 980 11 is_stmt 0 view .LVU790
 2496 0008 00EB4310 		add	r0, r0, r3, lsl #5
 2497              	.LVL206:
 980:Drivers/STM32F2xx_HAL_Driver/Src/stm32f2xx_ll_usb.c ****     {
 2498              		.loc 1 980 28 view .LVU791
 2499 000c D0F8002B 		ldr	r2, [r0, #2816]
 980:Drivers/STM32F2xx_HAL_Driver/Src/stm32f2xx_ll_usb.c ****     {
 2500              		.loc 1 980 8 view .LVU792
 2501 0010 002A     		cmp	r2, #0
 2502 0012 06DB     		blt	.L175
 980:Drivers/STM32F2xx_HAL_Driver/Src/stm32f2xx_ll_usb.c ****     {
 2503              		.loc 1 980 70 discriminator 1 view .LVU793
 2504 0014 2BB1     		cbz	r3, .L175
 982:Drivers/STM32F2xx_HAL_Driver/Src/stm32f2xx_ll_usb.c ****     }
 2505              		.loc 1 982 7 is_stmt 1 view .LVU794
 982:Drivers/STM32F2xx_HAL_Driver/Src/stm32f2xx_ll_usb.c ****     }
 2506              		.loc 1 982 34 is_stmt 0 view .LVU795
 2507 0016 D0F8003B 		ldr	r3, [r0, #2816]
 2508              	.LVL207:
 982:Drivers/STM32F2xx_HAL_Driver/Src/stm32f2xx_ll_usb.c ****     }
 2509              		.loc 1 982 34 view .LVU796
 2510 001a 23F08043 		bic	r3, r3, #1073741824
 2511 001e C0F8003B 		str	r3, [r0, #2816]
 2512              	.LVL208:
 2513              	.L175:
 984:Drivers/STM32F2xx_HAL_Driver/Src/stm32f2xx_ll_usb.c ****   }
 2514              		.loc 1 984 5 is_stmt 1 view .LVU797
 984:Drivers/STM32F2xx_HAL_Driver/Src/stm32f2xx_ll_usb.c ****   }
ARM GAS  C:\Users\User\AppData\Local\Temp\ccY05dYU.s 			page 81


 2515              		.loc 1 984 32 is_stmt 0 view .LVU798
 2516 0022 D0F8003B 		ldr	r3, [r0, #2816]
 2517 0026 43F40013 		orr	r3, r3, #2097152
 2518 002a C0F8003B 		str	r3, [r0, #2816]
 2519              	.L174:
 987:Drivers/STM32F2xx_HAL_Driver/Src/stm32f2xx_ll_usb.c **** }
 2520              		.loc 1 987 3 is_stmt 1 view .LVU799
 988:Drivers/STM32F2xx_HAL_Driver/Src/stm32f2xx_ll_usb.c **** 
 2521              		.loc 1 988 1 is_stmt 0 view .LVU800
 2522 002e 0020     		movs	r0, #0
 2523 0030 7047     		bx	lr
 2524              	.LVL209:
 2525              	.L176:
 972:Drivers/STM32F2xx_HAL_Driver/Src/stm32f2xx_ll_usb.c ****     {
 2526              		.loc 1 972 5 is_stmt 1 view .LVU801
 972:Drivers/STM32F2xx_HAL_Driver/Src/stm32f2xx_ll_usb.c ****     {
 2527              		.loc 1 972 11 is_stmt 0 view .LVU802
 2528 0032 00EB4310 		add	r0, r0, r3, lsl #5
 2529              	.LVL210:
 972:Drivers/STM32F2xx_HAL_Driver/Src/stm32f2xx_ll_usb.c ****     {
 2530              		.loc 1 972 27 view .LVU803
 2531 0036 D0F80029 		ldr	r2, [r0, #2304]
 972:Drivers/STM32F2xx_HAL_Driver/Src/stm32f2xx_ll_usb.c ****     {
 2532              		.loc 1 972 8 view .LVU804
 2533 003a 002A     		cmp	r2, #0
 2534 003c 06DB     		blt	.L173
 972:Drivers/STM32F2xx_HAL_Driver/Src/stm32f2xx_ll_usb.c ****     {
 2535              		.loc 1 972 69 discriminator 1 view .LVU805
 2536 003e 2BB1     		cbz	r3, .L173
 974:Drivers/STM32F2xx_HAL_Driver/Src/stm32f2xx_ll_usb.c ****     }
 2537              		.loc 1 974 7 is_stmt 1 view .LVU806
 974:Drivers/STM32F2xx_HAL_Driver/Src/stm32f2xx_ll_usb.c ****     }
 2538              		.loc 1 974 33 is_stmt 0 view .LVU807
 2539 0040 D0F80039 		ldr	r3, [r0, #2304]
 2540              	.LVL211:
 974:Drivers/STM32F2xx_HAL_Driver/Src/stm32f2xx_ll_usb.c ****     }
 2541              		.loc 1 974 33 view .LVU808
 2542 0044 23F08043 		bic	r3, r3, #1073741824
 2543 0048 C0F80039 		str	r3, [r0, #2304]
 2544              	.LVL212:
 2545              	.L173:
 976:Drivers/STM32F2xx_HAL_Driver/Src/stm32f2xx_ll_usb.c ****   }
 2546              		.loc 1 976 5 is_stmt 1 view .LVU809
 976:Drivers/STM32F2xx_HAL_Driver/Src/stm32f2xx_ll_usb.c ****   }
 2547              		.loc 1 976 31 is_stmt 0 view .LVU810
 2548 004c D0F80039 		ldr	r3, [r0, #2304]
 2549 0050 43F40013 		orr	r3, r3, #2097152
 2550 0054 C0F80039 		str	r3, [r0, #2304]
 2551 0058 E9E7     		b	.L174
 2552              		.cfi_endproc
 2553              	.LFE90:
 2555              		.section	.text.USB_EPClearStall,"ax",%progbits
 2556              		.align	1
 2557              		.global	USB_EPClearStall
 2558              		.syntax unified
 2559              		.thumb
 2560              		.thumb_func
ARM GAS  C:\Users\User\AppData\Local\Temp\ccY05dYU.s 			page 82


 2561              		.fpu softvfp
 2563              	USB_EPClearStall:
 2564              	.LVL213:
 2565              	.LFB91:
 997:Drivers/STM32F2xx_HAL_Driver/Src/stm32f2xx_ll_usb.c ****   uint32_t USBx_BASE = (uint32_t)USBx;
 2566              		.loc 1 997 1 is_stmt 1 view -0
 2567              		.cfi_startproc
 2568              		@ args = 0, pretend = 0, frame = 0
 2569              		@ frame_needed = 0, uses_anonymous_args = 0
 2570              		@ link register save eliminated.
 998:Drivers/STM32F2xx_HAL_Driver/Src/stm32f2xx_ll_usb.c ****   uint32_t epnum = (uint32_t)ep->num;
 2571              		.loc 1 998 3 view .LVU812
 999:Drivers/STM32F2xx_HAL_Driver/Src/stm32f2xx_ll_usb.c **** 
 2572              		.loc 1 999 3 view .LVU813
 999:Drivers/STM32F2xx_HAL_Driver/Src/stm32f2xx_ll_usb.c **** 
 2573              		.loc 1 999 32 is_stmt 0 view .LVU814
 2574 0000 0B78     		ldrb	r3, [r1]	@ zero_extendqisi2
 2575              	.LVL214:
1001:Drivers/STM32F2xx_HAL_Driver/Src/stm32f2xx_ll_usb.c ****   {
 2576              		.loc 1 1001 3 is_stmt 1 view .LVU815
1001:Drivers/STM32F2xx_HAL_Driver/Src/stm32f2xx_ll_usb.c ****   {
 2577              		.loc 1 1001 9 is_stmt 0 view .LVU816
 2578 0002 4A78     		ldrb	r2, [r1, #1]	@ zero_extendqisi2
1001:Drivers/STM32F2xx_HAL_Driver/Src/stm32f2xx_ll_usb.c ****   {
 2579              		.loc 1 1001 6 view .LVU817
 2580 0004 012A     		cmp	r2, #1
 2581 0006 0ED0     		beq	.L180
1011:Drivers/STM32F2xx_HAL_Driver/Src/stm32f2xx_ll_usb.c ****     if ((ep->type == EP_TYPE_INTR) || (ep->type == EP_TYPE_BULK))
 2582              		.loc 1 1011 5 is_stmt 1 view .LVU818
1011:Drivers/STM32F2xx_HAL_Driver/Src/stm32f2xx_ll_usb.c ****     if ((ep->type == EP_TYPE_INTR) || (ep->type == EP_TYPE_BULK))
 2583              		.loc 1 1011 32 is_stmt 0 view .LVU819
 2584 0008 00EB4310 		add	r0, r0, r3, lsl #5
 2585              	.LVL215:
1011:Drivers/STM32F2xx_HAL_Driver/Src/stm32f2xx_ll_usb.c ****     if ((ep->type == EP_TYPE_INTR) || (ep->type == EP_TYPE_BULK))
 2586              		.loc 1 1011 32 view .LVU820
 2587 000c D0F8003B 		ldr	r3, [r0, #2816]
 2588              	.LVL216:
1011:Drivers/STM32F2xx_HAL_Driver/Src/stm32f2xx_ll_usb.c ****     if ((ep->type == EP_TYPE_INTR) || (ep->type == EP_TYPE_BULK))
 2589              		.loc 1 1011 32 view .LVU821
 2590 0010 23F40013 		bic	r3, r3, #2097152
 2591 0014 C0F8003B 		str	r3, [r0, #2816]
 2592              	.LVL217:
1012:Drivers/STM32F2xx_HAL_Driver/Src/stm32f2xx_ll_usb.c ****     {
 2593              		.loc 1 1012 5 is_stmt 1 view .LVU822
1012:Drivers/STM32F2xx_HAL_Driver/Src/stm32f2xx_ll_usb.c ****     {
 2594              		.loc 1 1012 12 is_stmt 0 view .LVU823
 2595 0018 CB78     		ldrb	r3, [r1, #3]	@ zero_extendqisi2
1012:Drivers/STM32F2xx_HAL_Driver/Src/stm32f2xx_ll_usb.c ****     {
 2596              		.loc 1 1012 36 view .LVU824
 2597 001a 023B     		subs	r3, r3, #2
 2598 001c DBB2     		uxtb	r3, r3
1012:Drivers/STM32F2xx_HAL_Driver/Src/stm32f2xx_ll_usb.c ****     {
 2599              		.loc 1 1012 8 view .LVU825
 2600 001e 012B     		cmp	r3, #1
 2601 0020 15D9     		bls	.L181
 2602              	.L179:
1017:Drivers/STM32F2xx_HAL_Driver/Src/stm32f2xx_ll_usb.c **** }
ARM GAS  C:\Users\User\AppData\Local\Temp\ccY05dYU.s 			page 83


 2603              		.loc 1 1017 3 is_stmt 1 view .LVU826
1018:Drivers/STM32F2xx_HAL_Driver/Src/stm32f2xx_ll_usb.c **** 
 2604              		.loc 1 1018 1 is_stmt 0 view .LVU827
 2605 0022 0020     		movs	r0, #0
 2606 0024 7047     		bx	lr
 2607              	.LVL218:
 2608              	.L180:
1003:Drivers/STM32F2xx_HAL_Driver/Src/stm32f2xx_ll_usb.c ****     if ((ep->type == EP_TYPE_INTR) || (ep->type == EP_TYPE_BULK))
 2609              		.loc 1 1003 5 is_stmt 1 view .LVU828
1003:Drivers/STM32F2xx_HAL_Driver/Src/stm32f2xx_ll_usb.c ****     if ((ep->type == EP_TYPE_INTR) || (ep->type == EP_TYPE_BULK))
 2610              		.loc 1 1003 31 is_stmt 0 view .LVU829
 2611 0026 00EB4310 		add	r0, r0, r3, lsl #5
 2612              	.LVL219:
1003:Drivers/STM32F2xx_HAL_Driver/Src/stm32f2xx_ll_usb.c ****     if ((ep->type == EP_TYPE_INTR) || (ep->type == EP_TYPE_BULK))
 2613              		.loc 1 1003 31 view .LVU830
 2614 002a D0F80039 		ldr	r3, [r0, #2304]
 2615              	.LVL220:
1003:Drivers/STM32F2xx_HAL_Driver/Src/stm32f2xx_ll_usb.c ****     if ((ep->type == EP_TYPE_INTR) || (ep->type == EP_TYPE_BULK))
 2616              		.loc 1 1003 31 view .LVU831
 2617 002e 23F40013 		bic	r3, r3, #2097152
 2618 0032 C0F80039 		str	r3, [r0, #2304]
 2619              	.LVL221:
1004:Drivers/STM32F2xx_HAL_Driver/Src/stm32f2xx_ll_usb.c ****     {
 2620              		.loc 1 1004 5 is_stmt 1 view .LVU832
1004:Drivers/STM32F2xx_HAL_Driver/Src/stm32f2xx_ll_usb.c ****     {
 2621              		.loc 1 1004 12 is_stmt 0 view .LVU833
 2622 0036 CB78     		ldrb	r3, [r1, #3]	@ zero_extendqisi2
1004:Drivers/STM32F2xx_HAL_Driver/Src/stm32f2xx_ll_usb.c ****     {
 2623              		.loc 1 1004 36 view .LVU834
 2624 0038 023B     		subs	r3, r3, #2
 2625 003a DBB2     		uxtb	r3, r3
1004:Drivers/STM32F2xx_HAL_Driver/Src/stm32f2xx_ll_usb.c ****     {
 2626              		.loc 1 1004 8 view .LVU835
 2627 003c 012B     		cmp	r3, #1
 2628 003e F0D8     		bhi	.L179
1006:Drivers/STM32F2xx_HAL_Driver/Src/stm32f2xx_ll_usb.c ****     }
 2629              		.loc 1 1006 7 is_stmt 1 view .LVU836
1006:Drivers/STM32F2xx_HAL_Driver/Src/stm32f2xx_ll_usb.c ****     }
 2630              		.loc 1 1006 33 is_stmt 0 view .LVU837
 2631 0040 D0F80039 		ldr	r3, [r0, #2304]
 2632 0044 43F08053 		orr	r3, r3, #268435456
 2633 0048 C0F80039 		str	r3, [r0, #2304]
 2634 004c E9E7     		b	.L179
 2635              	.L181:
1014:Drivers/STM32F2xx_HAL_Driver/Src/stm32f2xx_ll_usb.c ****     }
 2636              		.loc 1 1014 7 is_stmt 1 view .LVU838
1014:Drivers/STM32F2xx_HAL_Driver/Src/stm32f2xx_ll_usb.c ****     }
 2637              		.loc 1 1014 34 is_stmt 0 view .LVU839
 2638 004e D0F8003B 		ldr	r3, [r0, #2816]
 2639 0052 43F08053 		orr	r3, r3, #268435456
 2640 0056 C0F8003B 		str	r3, [r0, #2816]
 2641 005a E2E7     		b	.L179
 2642              		.cfi_endproc
 2643              	.LFE91:
 2645              		.section	.text.USB_StopDevice,"ax",%progbits
 2646              		.align	1
 2647              		.global	USB_StopDevice
ARM GAS  C:\Users\User\AppData\Local\Temp\ccY05dYU.s 			page 84


 2648              		.syntax unified
 2649              		.thumb
 2650              		.thumb_func
 2651              		.fpu softvfp
 2653              	USB_StopDevice:
 2654              	.LVL222:
 2655              	.LFB92:
1026:Drivers/STM32F2xx_HAL_Driver/Src/stm32f2xx_ll_usb.c ****   HAL_StatusTypeDef ret;
 2656              		.loc 1 1026 1 is_stmt 1 view -0
 2657              		.cfi_startproc
 2658              		@ args = 0, pretend = 0, frame = 0
 2659              		@ frame_needed = 0, uses_anonymous_args = 0
1026:Drivers/STM32F2xx_HAL_Driver/Src/stm32f2xx_ll_usb.c ****   HAL_StatusTypeDef ret;
 2660              		.loc 1 1026 1 is_stmt 0 view .LVU841
 2661 0000 38B5     		push	{r3, r4, r5, lr}
 2662              	.LCFI31:
 2663              		.cfi_def_cfa_offset 16
 2664              		.cfi_offset 3, -16
 2665              		.cfi_offset 4, -12
 2666              		.cfi_offset 5, -8
 2667              		.cfi_offset 14, -4
 2668 0002 0546     		mov	r5, r0
1027:Drivers/STM32F2xx_HAL_Driver/Src/stm32f2xx_ll_usb.c ****   uint32_t USBx_BASE = (uint32_t)USBx;
 2669              		.loc 1 1027 3 is_stmt 1 view .LVU842
1028:Drivers/STM32F2xx_HAL_Driver/Src/stm32f2xx_ll_usb.c ****   uint32_t i;
 2670              		.loc 1 1028 3 view .LVU843
1028:Drivers/STM32F2xx_HAL_Driver/Src/stm32f2xx_ll_usb.c ****   uint32_t i;
 2671              		.loc 1 1028 12 is_stmt 0 view .LVU844
 2672 0004 0446     		mov	r4, r0
 2673              	.LVL223:
1029:Drivers/STM32F2xx_HAL_Driver/Src/stm32f2xx_ll_usb.c **** 
 2674              		.loc 1 1029 3 is_stmt 1 view .LVU845
1032:Drivers/STM32F2xx_HAL_Driver/Src/stm32f2xx_ll_usb.c ****   {
 2675              		.loc 1 1032 3 view .LVU846
1032:Drivers/STM32F2xx_HAL_Driver/Src/stm32f2xx_ll_usb.c ****   {
 2676              		.loc 1 1032 10 is_stmt 0 view .LVU847
 2677 0006 0022     		movs	r2, #0
 2678              	.LVL224:
 2679              	.L183:
1032:Drivers/STM32F2xx_HAL_Driver/Src/stm32f2xx_ll_usb.c ****   {
 2680              		.loc 1 1032 3 discriminator 1 view .LVU848
 2681 0008 0E2A     		cmp	r2, #14
 2682 000a 09D8     		bhi	.L187
1034:Drivers/STM32F2xx_HAL_Driver/Src/stm32f2xx_ll_usb.c ****     USBx_OUTEP(i)->DOEPINT = 0xFB7FU;
 2683              		.loc 1 1034 5 is_stmt 1 discriminator 3 view .LVU849
 2684 000c 04EB4213 		add	r3, r4, r2, lsl #5
1034:Drivers/STM32F2xx_HAL_Driver/Src/stm32f2xx_ll_usb.c ****     USBx_OUTEP(i)->DOEPINT = 0xFB7FU;
 2685              		.loc 1 1034 27 is_stmt 0 discriminator 3 view .LVU850
 2686 0010 4FF67F31 		movw	r1, #64383
 2687 0014 C3F80819 		str	r1, [r3, #2312]
1035:Drivers/STM32F2xx_HAL_Driver/Src/stm32f2xx_ll_usb.c ****   }
 2688              		.loc 1 1035 5 is_stmt 1 discriminator 3 view .LVU851
1035:Drivers/STM32F2xx_HAL_Driver/Src/stm32f2xx_ll_usb.c ****   }
 2689              		.loc 1 1035 28 is_stmt 0 discriminator 3 view .LVU852
 2690 0018 C3F8081B 		str	r1, [r3, #2824]
1032:Drivers/STM32F2xx_HAL_Driver/Src/stm32f2xx_ll_usb.c ****   {
 2691              		.loc 1 1032 26 discriminator 3 view .LVU853
ARM GAS  C:\Users\User\AppData\Local\Temp\ccY05dYU.s 			page 85


 2692 001c 0132     		adds	r2, r2, #1
 2693              	.LVL225:
1032:Drivers/STM32F2xx_HAL_Driver/Src/stm32f2xx_ll_usb.c ****   {
 2694              		.loc 1 1032 26 discriminator 3 view .LVU854
 2695 001e F3E7     		b	.L183
 2696              	.L187:
1039:Drivers/STM32F2xx_HAL_Driver/Src/stm32f2xx_ll_usb.c ****   USBx_DEVICE->DOEPMSK  = 0U;
 2697              		.loc 1 1039 3 is_stmt 1 view .LVU855
1039:Drivers/STM32F2xx_HAL_Driver/Src/stm32f2xx_ll_usb.c ****   USBx_DEVICE->DOEPMSK  = 0U;
 2698              		.loc 1 1039 25 is_stmt 0 view .LVU856
 2699 0020 0022     		movs	r2, #0
 2700              	.LVL226:
1039:Drivers/STM32F2xx_HAL_Driver/Src/stm32f2xx_ll_usb.c ****   USBx_DEVICE->DOEPMSK  = 0U;
 2701              		.loc 1 1039 25 view .LVU857
 2702 0022 C5F81028 		str	r2, [r5, #2064]
1040:Drivers/STM32F2xx_HAL_Driver/Src/stm32f2xx_ll_usb.c ****   USBx_DEVICE->DAINTMSK = 0U;
 2703              		.loc 1 1040 3 is_stmt 1 view .LVU858
1040:Drivers/STM32F2xx_HAL_Driver/Src/stm32f2xx_ll_usb.c ****   USBx_DEVICE->DAINTMSK = 0U;
 2704              		.loc 1 1040 25 is_stmt 0 view .LVU859
 2705 0026 C5F81428 		str	r2, [r5, #2068]
1041:Drivers/STM32F2xx_HAL_Driver/Src/stm32f2xx_ll_usb.c **** 
 2706              		.loc 1 1041 3 is_stmt 1 view .LVU860
1041:Drivers/STM32F2xx_HAL_Driver/Src/stm32f2xx_ll_usb.c **** 
 2707              		.loc 1 1041 25 is_stmt 0 view .LVU861
 2708 002a C5F81C28 		str	r2, [r5, #2076]
1044:Drivers/STM32F2xx_HAL_Driver/Src/stm32f2xx_ll_usb.c ****   if (ret != HAL_OK)
 2709              		.loc 1 1044 3 is_stmt 1 view .LVU862
1044:Drivers/STM32F2xx_HAL_Driver/Src/stm32f2xx_ll_usb.c ****   if (ret != HAL_OK)
 2710              		.loc 1 1044 9 is_stmt 0 view .LVU863
 2711 002e 2846     		mov	r0, r5
 2712              	.LVL227:
1044:Drivers/STM32F2xx_HAL_Driver/Src/stm32f2xx_ll_usb.c ****   if (ret != HAL_OK)
 2713              		.loc 1 1044 9 view .LVU864
 2714 0030 FFF7FEFF 		bl	USB_FlushRxFifo
 2715              	.LVL228:
1045:Drivers/STM32F2xx_HAL_Driver/Src/stm32f2xx_ll_usb.c ****   {
 2716              		.loc 1 1045 3 is_stmt 1 view .LVU865
1045:Drivers/STM32F2xx_HAL_Driver/Src/stm32f2xx_ll_usb.c ****   {
 2717              		.loc 1 1045 6 is_stmt 0 view .LVU866
 2718 0034 0346     		mov	r3, r0
 2719 0036 08B1     		cbz	r0, .L188
 2720              	.LVL229:
 2721              	.L185:
1057:Drivers/STM32F2xx_HAL_Driver/Src/stm32f2xx_ll_usb.c **** 
 2722              		.loc 1 1057 1 view .LVU867
 2723 0038 1846     		mov	r0, r3
 2724 003a 38BD     		pop	{r3, r4, r5, pc}
 2725              	.LVL230:
 2726              	.L188:
1050:Drivers/STM32F2xx_HAL_Driver/Src/stm32f2xx_ll_usb.c ****   if (ret != HAL_OK)
 2727              		.loc 1 1050 3 is_stmt 1 view .LVU868
1050:Drivers/STM32F2xx_HAL_Driver/Src/stm32f2xx_ll_usb.c ****   if (ret != HAL_OK)
 2728              		.loc 1 1050 9 is_stmt 0 view .LVU869
 2729 003c 1021     		movs	r1, #16
 2730 003e 2846     		mov	r0, r5
 2731              	.LVL231:
1050:Drivers/STM32F2xx_HAL_Driver/Src/stm32f2xx_ll_usb.c ****   if (ret != HAL_OK)
ARM GAS  C:\Users\User\AppData\Local\Temp\ccY05dYU.s 			page 86


 2732              		.loc 1 1050 9 view .LVU870
 2733 0040 FFF7FEFF 		bl	USB_FlushTxFifo
 2734              	.LVL232:
 2735 0044 0346     		mov	r3, r0
 2736              	.LVL233:
1051:Drivers/STM32F2xx_HAL_Driver/Src/stm32f2xx_ll_usb.c ****   {
 2737              		.loc 1 1051 3 is_stmt 1 view .LVU871
 2738 0046 F7E7     		b	.L185
 2739              		.cfi_endproc
 2740              	.LFE92:
 2742              		.section	.text.USB_SetDevAddress,"ax",%progbits
 2743              		.align	1
 2744              		.global	USB_SetDevAddress
 2745              		.syntax unified
 2746              		.thumb
 2747              		.thumb_func
 2748              		.fpu softvfp
 2750              	USB_SetDevAddress:
 2751              	.LVL234:
 2752              	.LFB93:
1067:Drivers/STM32F2xx_HAL_Driver/Src/stm32f2xx_ll_usb.c ****   uint32_t USBx_BASE = (uint32_t)USBx;
 2753              		.loc 1 1067 1 view -0
 2754              		.cfi_startproc
 2755              		@ args = 0, pretend = 0, frame = 0
 2756              		@ frame_needed = 0, uses_anonymous_args = 0
 2757              		@ link register save eliminated.
1068:Drivers/STM32F2xx_HAL_Driver/Src/stm32f2xx_ll_usb.c **** 
 2758              		.loc 1 1068 3 view .LVU873
1070:Drivers/STM32F2xx_HAL_Driver/Src/stm32f2xx_ll_usb.c ****   USBx_DEVICE->DCFG |= ((uint32_t)address << 4) & USB_OTG_DCFG_DAD;
 2759              		.loc 1 1070 3 view .LVU874
1070:Drivers/STM32F2xx_HAL_Driver/Src/stm32f2xx_ll_usb.c ****   USBx_DEVICE->DCFG |= ((uint32_t)address << 4) & USB_OTG_DCFG_DAD;
 2760              		.loc 1 1070 21 is_stmt 0 view .LVU875
 2761 0000 D0F80038 		ldr	r3, [r0, #2048]
 2762 0004 23F4FE63 		bic	r3, r3, #2032
 2763 0008 C0F80038 		str	r3, [r0, #2048]
1071:Drivers/STM32F2xx_HAL_Driver/Src/stm32f2xx_ll_usb.c **** 
 2764              		.loc 1 1071 3 is_stmt 1 view .LVU876
1071:Drivers/STM32F2xx_HAL_Driver/Src/stm32f2xx_ll_usb.c **** 
 2765              		.loc 1 1071 21 is_stmt 0 view .LVU877
 2766 000c D0F80038 		ldr	r3, [r0, #2048]
1071:Drivers/STM32F2xx_HAL_Driver/Src/stm32f2xx_ll_usb.c **** 
 2767              		.loc 1 1071 43 view .LVU878
 2768 0010 0901     		lsls	r1, r1, #4
 2769              	.LVL235:
1071:Drivers/STM32F2xx_HAL_Driver/Src/stm32f2xx_ll_usb.c **** 
 2770              		.loc 1 1071 49 view .LVU879
 2771 0012 01F4FE61 		and	r1, r1, #2032
1071:Drivers/STM32F2xx_HAL_Driver/Src/stm32f2xx_ll_usb.c **** 
 2772              		.loc 1 1071 21 view .LVU880
 2773 0016 0B43     		orrs	r3, r3, r1
 2774 0018 C0F80038 		str	r3, [r0, #2048]
1073:Drivers/STM32F2xx_HAL_Driver/Src/stm32f2xx_ll_usb.c **** }
 2775              		.loc 1 1073 3 is_stmt 1 view .LVU881
1074:Drivers/STM32F2xx_HAL_Driver/Src/stm32f2xx_ll_usb.c **** 
 2776              		.loc 1 1074 1 is_stmt 0 view .LVU882
 2777 001c 0020     		movs	r0, #0
 2778              	.LVL236:
ARM GAS  C:\Users\User\AppData\Local\Temp\ccY05dYU.s 			page 87


1074:Drivers/STM32F2xx_HAL_Driver/Src/stm32f2xx_ll_usb.c **** 
 2779              		.loc 1 1074 1 view .LVU883
 2780 001e 7047     		bx	lr
 2781              		.cfi_endproc
 2782              	.LFE93:
 2784              		.section	.text.USB_DevConnect,"ax",%progbits
 2785              		.align	1
 2786              		.global	USB_DevConnect
 2787              		.syntax unified
 2788              		.thumb
 2789              		.thumb_func
 2790              		.fpu softvfp
 2792              	USB_DevConnect:
 2793              	.LVL237:
 2794              	.LFB94:
1082:Drivers/STM32F2xx_HAL_Driver/Src/stm32f2xx_ll_usb.c ****   uint32_t USBx_BASE = (uint32_t)USBx;
 2795              		.loc 1 1082 1 is_stmt 1 view -0
 2796              		.cfi_startproc
 2797              		@ args = 0, pretend = 0, frame = 0
 2798              		@ frame_needed = 0, uses_anonymous_args = 0
1082:Drivers/STM32F2xx_HAL_Driver/Src/stm32f2xx_ll_usb.c ****   uint32_t USBx_BASE = (uint32_t)USBx;
 2799              		.loc 1 1082 1 is_stmt 0 view .LVU885
 2800 0000 08B5     		push	{r3, lr}
 2801              	.LCFI32:
 2802              		.cfi_def_cfa_offset 8
 2803              		.cfi_offset 3, -8
 2804              		.cfi_offset 14, -4
1083:Drivers/STM32F2xx_HAL_Driver/Src/stm32f2xx_ll_usb.c **** 
 2805              		.loc 1 1083 3 is_stmt 1 view .LVU886
 2806              	.LVL238:
1085:Drivers/STM32F2xx_HAL_Driver/Src/stm32f2xx_ll_usb.c ****   HAL_Delay(3U);
 2807              		.loc 1 1085 3 view .LVU887
1085:Drivers/STM32F2xx_HAL_Driver/Src/stm32f2xx_ll_usb.c ****   HAL_Delay(3U);
 2808              		.loc 1 1085 21 is_stmt 0 view .LVU888
 2809 0002 D0F80438 		ldr	r3, [r0, #2052]
 2810 0006 23F00203 		bic	r3, r3, #2
 2811 000a C0F80438 		str	r3, [r0, #2052]
1086:Drivers/STM32F2xx_HAL_Driver/Src/stm32f2xx_ll_usb.c **** 
 2812              		.loc 1 1086 3 is_stmt 1 view .LVU889
 2813 000e 0320     		movs	r0, #3
 2814              	.LVL239:
1086:Drivers/STM32F2xx_HAL_Driver/Src/stm32f2xx_ll_usb.c **** 
 2815              		.loc 1 1086 3 is_stmt 0 view .LVU890
 2816 0010 FFF7FEFF 		bl	HAL_Delay
 2817              	.LVL240:
1088:Drivers/STM32F2xx_HAL_Driver/Src/stm32f2xx_ll_usb.c **** }
 2818              		.loc 1 1088 3 is_stmt 1 view .LVU891
1089:Drivers/STM32F2xx_HAL_Driver/Src/stm32f2xx_ll_usb.c **** 
 2819              		.loc 1 1089 1 is_stmt 0 view .LVU892
 2820 0014 0020     		movs	r0, #0
 2821 0016 08BD     		pop	{r3, pc}
 2822              		.cfi_endproc
 2823              	.LFE94:
 2825              		.section	.text.USB_DevDisconnect,"ax",%progbits
 2826              		.align	1
 2827              		.global	USB_DevDisconnect
 2828              		.syntax unified
ARM GAS  C:\Users\User\AppData\Local\Temp\ccY05dYU.s 			page 88


 2829              		.thumb
 2830              		.thumb_func
 2831              		.fpu softvfp
 2833              	USB_DevDisconnect:
 2834              	.LVL241:
 2835              	.LFB95:
1097:Drivers/STM32F2xx_HAL_Driver/Src/stm32f2xx_ll_usb.c ****   uint32_t USBx_BASE = (uint32_t)USBx;
 2836              		.loc 1 1097 1 is_stmt 1 view -0
 2837              		.cfi_startproc
 2838              		@ args = 0, pretend = 0, frame = 0
 2839              		@ frame_needed = 0, uses_anonymous_args = 0
1097:Drivers/STM32F2xx_HAL_Driver/Src/stm32f2xx_ll_usb.c ****   uint32_t USBx_BASE = (uint32_t)USBx;
 2840              		.loc 1 1097 1 is_stmt 0 view .LVU894
 2841 0000 08B5     		push	{r3, lr}
 2842              	.LCFI33:
 2843              		.cfi_def_cfa_offset 8
 2844              		.cfi_offset 3, -8
 2845              		.cfi_offset 14, -4
1098:Drivers/STM32F2xx_HAL_Driver/Src/stm32f2xx_ll_usb.c **** 
 2846              		.loc 1 1098 3 is_stmt 1 view .LVU895
 2847              	.LVL242:
1100:Drivers/STM32F2xx_HAL_Driver/Src/stm32f2xx_ll_usb.c ****   HAL_Delay(3U);
 2848              		.loc 1 1100 3 view .LVU896
1100:Drivers/STM32F2xx_HAL_Driver/Src/stm32f2xx_ll_usb.c ****   HAL_Delay(3U);
 2849              		.loc 1 1100 21 is_stmt 0 view .LVU897
 2850 0002 D0F80438 		ldr	r3, [r0, #2052]
 2851 0006 43F00203 		orr	r3, r3, #2
 2852 000a C0F80438 		str	r3, [r0, #2052]
1101:Drivers/STM32F2xx_HAL_Driver/Src/stm32f2xx_ll_usb.c **** 
 2853              		.loc 1 1101 3 is_stmt 1 view .LVU898
 2854 000e 0320     		movs	r0, #3
 2855              	.LVL243:
1101:Drivers/STM32F2xx_HAL_Driver/Src/stm32f2xx_ll_usb.c **** 
 2856              		.loc 1 1101 3 is_stmt 0 view .LVU899
 2857 0010 FFF7FEFF 		bl	HAL_Delay
 2858              	.LVL244:
1103:Drivers/STM32F2xx_HAL_Driver/Src/stm32f2xx_ll_usb.c **** }
 2859              		.loc 1 1103 3 is_stmt 1 view .LVU900
1104:Drivers/STM32F2xx_HAL_Driver/Src/stm32f2xx_ll_usb.c **** 
 2860              		.loc 1 1104 1 is_stmt 0 view .LVU901
 2861 0014 0020     		movs	r0, #0
 2862 0016 08BD     		pop	{r3, pc}
 2863              		.cfi_endproc
 2864              	.LFE95:
 2866              		.section	.text.USB_ReadInterrupts,"ax",%progbits
 2867              		.align	1
 2868              		.global	USB_ReadInterrupts
 2869              		.syntax unified
 2870              		.thumb
 2871              		.thumb_func
 2872              		.fpu softvfp
 2874              	USB_ReadInterrupts:
 2875              	.LVL245:
 2876              	.LFB96:
1112:Drivers/STM32F2xx_HAL_Driver/Src/stm32f2xx_ll_usb.c ****   uint32_t tmpreg;
 2877              		.loc 1 1112 1 is_stmt 1 view -0
 2878              		.cfi_startproc
ARM GAS  C:\Users\User\AppData\Local\Temp\ccY05dYU.s 			page 89


 2879              		@ args = 0, pretend = 0, frame = 0
 2880              		@ frame_needed = 0, uses_anonymous_args = 0
 2881              		@ link register save eliminated.
1113:Drivers/STM32F2xx_HAL_Driver/Src/stm32f2xx_ll_usb.c **** 
 2882              		.loc 1 1113 3 view .LVU903
1115:Drivers/STM32F2xx_HAL_Driver/Src/stm32f2xx_ll_usb.c ****   tmpreg &= USBx->GINTMSK;
 2883              		.loc 1 1115 3 view .LVU904
1115:Drivers/STM32F2xx_HAL_Driver/Src/stm32f2xx_ll_usb.c ****   tmpreg &= USBx->GINTMSK;
 2884              		.loc 1 1115 10 is_stmt 0 view .LVU905
 2885 0000 4269     		ldr	r2, [r0, #20]
 2886              	.LVL246:
1116:Drivers/STM32F2xx_HAL_Driver/Src/stm32f2xx_ll_usb.c **** 
 2887              		.loc 1 1116 3 is_stmt 1 view .LVU906
1116:Drivers/STM32F2xx_HAL_Driver/Src/stm32f2xx_ll_usb.c **** 
 2888              		.loc 1 1116 17 is_stmt 0 view .LVU907
 2889 0002 8069     		ldr	r0, [r0, #24]
 2890              	.LVL247:
1118:Drivers/STM32F2xx_HAL_Driver/Src/stm32f2xx_ll_usb.c **** }
 2891              		.loc 1 1118 3 is_stmt 1 view .LVU908
1119:Drivers/STM32F2xx_HAL_Driver/Src/stm32f2xx_ll_usb.c **** 
 2892              		.loc 1 1119 1 is_stmt 0 view .LVU909
 2893 0004 1040     		ands	r0, r0, r2
 2894              	.LVL248:
1119:Drivers/STM32F2xx_HAL_Driver/Src/stm32f2xx_ll_usb.c **** 
 2895              		.loc 1 1119 1 view .LVU910
 2896 0006 7047     		bx	lr
 2897              		.cfi_endproc
 2898              	.LFE96:
 2900              		.section	.text.USB_ReadDevAllOutEpInterrupt,"ax",%progbits
 2901              		.align	1
 2902              		.global	USB_ReadDevAllOutEpInterrupt
 2903              		.syntax unified
 2904              		.thumb
 2905              		.thumb_func
 2906              		.fpu softvfp
 2908              	USB_ReadDevAllOutEpInterrupt:
 2909              	.LVL249:
 2910              	.LFB97:
1127:Drivers/STM32F2xx_HAL_Driver/Src/stm32f2xx_ll_usb.c ****   uint32_t USBx_BASE = (uint32_t)USBx;
 2911              		.loc 1 1127 1 is_stmt 1 view -0
 2912              		.cfi_startproc
 2913              		@ args = 0, pretend = 0, frame = 0
 2914              		@ frame_needed = 0, uses_anonymous_args = 0
 2915              		@ link register save eliminated.
1128:Drivers/STM32F2xx_HAL_Driver/Src/stm32f2xx_ll_usb.c ****   uint32_t tmpreg;
 2916              		.loc 1 1128 3 view .LVU912
1129:Drivers/STM32F2xx_HAL_Driver/Src/stm32f2xx_ll_usb.c **** 
 2917              		.loc 1 1129 3 view .LVU913
1131:Drivers/STM32F2xx_HAL_Driver/Src/stm32f2xx_ll_usb.c ****   tmpreg &= USBx_DEVICE->DAINTMSK;
 2918              		.loc 1 1131 3 view .LVU914
1131:Drivers/STM32F2xx_HAL_Driver/Src/stm32f2xx_ll_usb.c ****   tmpreg &= USBx_DEVICE->DAINTMSK;
 2919              		.loc 1 1131 11 is_stmt 0 view .LVU915
 2920 0000 D0F81838 		ldr	r3, [r0, #2072]
1131:Drivers/STM32F2xx_HAL_Driver/Src/stm32f2xx_ll_usb.c ****   tmpreg &= USBx_DEVICE->DAINTMSK;
 2921              		.loc 1 1131 13 view .LVU916
 2922 0004 00F50060 		add	r0, r0, #2048
 2923              	.LVL250:
ARM GAS  C:\Users\User\AppData\Local\Temp\ccY05dYU.s 			page 90


1132:Drivers/STM32F2xx_HAL_Driver/Src/stm32f2xx_ll_usb.c **** 
 2924              		.loc 1 1132 3 is_stmt 1 view .LVU917
1132:Drivers/STM32F2xx_HAL_Driver/Src/stm32f2xx_ll_usb.c **** 
 2925              		.loc 1 1132 24 is_stmt 0 view .LVU918
 2926 0008 C069     		ldr	r0, [r0, #28]
 2927              	.LVL251:
1132:Drivers/STM32F2xx_HAL_Driver/Src/stm32f2xx_ll_usb.c **** 
 2928              		.loc 1 1132 10 view .LVU919
 2929 000a 1840     		ands	r0, r0, r3
 2930              	.LVL252:
1134:Drivers/STM32F2xx_HAL_Driver/Src/stm32f2xx_ll_usb.c **** }
 2931              		.loc 1 1134 3 is_stmt 1 view .LVU920
1135:Drivers/STM32F2xx_HAL_Driver/Src/stm32f2xx_ll_usb.c **** 
 2932              		.loc 1 1135 1 is_stmt 0 view .LVU921
 2933 000c 000C     		lsrs	r0, r0, #16
 2934              	.LVL253:
1135:Drivers/STM32F2xx_HAL_Driver/Src/stm32f2xx_ll_usb.c **** 
 2935              		.loc 1 1135 1 view .LVU922
 2936 000e 7047     		bx	lr
 2937              		.cfi_endproc
 2938              	.LFE97:
 2940              		.section	.text.USB_ReadDevAllInEpInterrupt,"ax",%progbits
 2941              		.align	1
 2942              		.global	USB_ReadDevAllInEpInterrupt
 2943              		.syntax unified
 2944              		.thumb
 2945              		.thumb_func
 2946              		.fpu softvfp
 2948              	USB_ReadDevAllInEpInterrupt:
 2949              	.LVL254:
 2950              	.LFB98:
1143:Drivers/STM32F2xx_HAL_Driver/Src/stm32f2xx_ll_usb.c ****   uint32_t USBx_BASE = (uint32_t)USBx;
 2951              		.loc 1 1143 1 is_stmt 1 view -0
 2952              		.cfi_startproc
 2953              		@ args = 0, pretend = 0, frame = 0
 2954              		@ frame_needed = 0, uses_anonymous_args = 0
 2955              		@ link register save eliminated.
1144:Drivers/STM32F2xx_HAL_Driver/Src/stm32f2xx_ll_usb.c ****   uint32_t tmpreg;
 2956              		.loc 1 1144 3 view .LVU924
1145:Drivers/STM32F2xx_HAL_Driver/Src/stm32f2xx_ll_usb.c **** 
 2957              		.loc 1 1145 3 view .LVU925
1147:Drivers/STM32F2xx_HAL_Driver/Src/stm32f2xx_ll_usb.c ****   tmpreg &= USBx_DEVICE->DAINTMSK;
 2958              		.loc 1 1147 3 view .LVU926
1147:Drivers/STM32F2xx_HAL_Driver/Src/stm32f2xx_ll_usb.c ****   tmpreg &= USBx_DEVICE->DAINTMSK;
 2959              		.loc 1 1147 11 is_stmt 0 view .LVU927
 2960 0000 D0F81838 		ldr	r3, [r0, #2072]
1147:Drivers/STM32F2xx_HAL_Driver/Src/stm32f2xx_ll_usb.c ****   tmpreg &= USBx_DEVICE->DAINTMSK;
 2961              		.loc 1 1147 13 view .LVU928
 2962 0004 00F50060 		add	r0, r0, #2048
 2963              	.LVL255:
1148:Drivers/STM32F2xx_HAL_Driver/Src/stm32f2xx_ll_usb.c **** 
 2964              		.loc 1 1148 3 is_stmt 1 view .LVU929
1148:Drivers/STM32F2xx_HAL_Driver/Src/stm32f2xx_ll_usb.c **** 
 2965              		.loc 1 1148 24 is_stmt 0 view .LVU930
 2966 0008 C069     		ldr	r0, [r0, #28]
 2967              	.LVL256:
1148:Drivers/STM32F2xx_HAL_Driver/Src/stm32f2xx_ll_usb.c **** 
ARM GAS  C:\Users\User\AppData\Local\Temp\ccY05dYU.s 			page 91


 2968              		.loc 1 1148 10 view .LVU931
 2969 000a 1840     		ands	r0, r0, r3
 2970              	.LVL257:
1150:Drivers/STM32F2xx_HAL_Driver/Src/stm32f2xx_ll_usb.c **** }
 2971              		.loc 1 1150 3 is_stmt 1 view .LVU932
1151:Drivers/STM32F2xx_HAL_Driver/Src/stm32f2xx_ll_usb.c **** 
 2972              		.loc 1 1151 1 is_stmt 0 view .LVU933
 2973 000c 80B2     		uxth	r0, r0
 2974              	.LVL258:
1151:Drivers/STM32F2xx_HAL_Driver/Src/stm32f2xx_ll_usb.c **** 
 2975              		.loc 1 1151 1 view .LVU934
 2976 000e 7047     		bx	lr
 2977              		.cfi_endproc
 2978              	.LFE98:
 2980              		.section	.text.USB_ReadDevOutEPInterrupt,"ax",%progbits
 2981              		.align	1
 2982              		.global	USB_ReadDevOutEPInterrupt
 2983              		.syntax unified
 2984              		.thumb
 2985              		.thumb_func
 2986              		.fpu softvfp
 2988              	USB_ReadDevOutEPInterrupt:
 2989              	.LVL259:
 2990              	.LFB99:
1161:Drivers/STM32F2xx_HAL_Driver/Src/stm32f2xx_ll_usb.c ****   uint32_t USBx_BASE = (uint32_t)USBx;
 2991              		.loc 1 1161 1 is_stmt 1 view -0
 2992              		.cfi_startproc
 2993              		@ args = 0, pretend = 0, frame = 0
 2994              		@ frame_needed = 0, uses_anonymous_args = 0
 2995              		@ link register save eliminated.
1162:Drivers/STM32F2xx_HAL_Driver/Src/stm32f2xx_ll_usb.c ****   uint32_t tmpreg;
 2996              		.loc 1 1162 3 view .LVU936
1163:Drivers/STM32F2xx_HAL_Driver/Src/stm32f2xx_ll_usb.c **** 
 2997              		.loc 1 1163 3 view .LVU937
1165:Drivers/STM32F2xx_HAL_Driver/Src/stm32f2xx_ll_usb.c ****   tmpreg &= USBx_DEVICE->DOEPMSK;
 2998              		.loc 1 1165 3 view .LVU938
1165:Drivers/STM32F2xx_HAL_Driver/Src/stm32f2xx_ll_usb.c ****   tmpreg &= USBx_DEVICE->DOEPMSK;
 2999              		.loc 1 1165 13 is_stmt 0 view .LVU939
 3000 0000 00EB4111 		add	r1, r0, r1, lsl #5
 3001              	.LVL260:
1165:Drivers/STM32F2xx_HAL_Driver/Src/stm32f2xx_ll_usb.c ****   tmpreg &= USBx_DEVICE->DOEPMSK;
 3002              		.loc 1 1165 11 view .LVU940
 3003 0004 D1F8082B 		ldr	r2, [r1, #2824]
 3004              	.LVL261:
1166:Drivers/STM32F2xx_HAL_Driver/Src/stm32f2xx_ll_usb.c **** 
 3005              		.loc 1 1166 3 is_stmt 1 view .LVU941
1166:Drivers/STM32F2xx_HAL_Driver/Src/stm32f2xx_ll_usb.c **** 
 3006              		.loc 1 1166 13 is_stmt 0 view .LVU942
 3007 0008 00F50060 		add	r0, r0, #2048
 3008              	.LVL262:
1166:Drivers/STM32F2xx_HAL_Driver/Src/stm32f2xx_ll_usb.c **** 
 3009              		.loc 1 1166 24 view .LVU943
 3010 000c 4069     		ldr	r0, [r0, #20]
 3011              	.LVL263:
1168:Drivers/STM32F2xx_HAL_Driver/Src/stm32f2xx_ll_usb.c **** }
 3012              		.loc 1 1168 3 is_stmt 1 view .LVU944
1169:Drivers/STM32F2xx_HAL_Driver/Src/stm32f2xx_ll_usb.c **** 
ARM GAS  C:\Users\User\AppData\Local\Temp\ccY05dYU.s 			page 92


 3013              		.loc 1 1169 1 is_stmt 0 view .LVU945
 3014 000e 1040     		ands	r0, r0, r2
 3015              	.LVL264:
1169:Drivers/STM32F2xx_HAL_Driver/Src/stm32f2xx_ll_usb.c **** 
 3016              		.loc 1 1169 1 view .LVU946
 3017 0010 7047     		bx	lr
 3018              		.cfi_endproc
 3019              	.LFE99:
 3021              		.section	.text.USB_ReadDevInEPInterrupt,"ax",%progbits
 3022              		.align	1
 3023              		.global	USB_ReadDevInEPInterrupt
 3024              		.syntax unified
 3025              		.thumb
 3026              		.thumb_func
 3027              		.fpu softvfp
 3029              	USB_ReadDevInEPInterrupt:
 3030              	.LVL265:
 3031              	.LFB100:
1179:Drivers/STM32F2xx_HAL_Driver/Src/stm32f2xx_ll_usb.c ****   uint32_t USBx_BASE = (uint32_t)USBx;
 3032              		.loc 1 1179 1 is_stmt 1 view -0
 3033              		.cfi_startproc
 3034              		@ args = 0, pretend = 0, frame = 0
 3035              		@ frame_needed = 0, uses_anonymous_args = 0
 3036              		@ link register save eliminated.
1179:Drivers/STM32F2xx_HAL_Driver/Src/stm32f2xx_ll_usb.c ****   uint32_t USBx_BASE = (uint32_t)USBx;
 3037              		.loc 1 1179 1 is_stmt 0 view .LVU948
 3038 0000 10B4     		push	{r4}
 3039              	.LCFI34:
 3040              		.cfi_def_cfa_offset 4
 3041              		.cfi_offset 4, -4
1180:Drivers/STM32F2xx_HAL_Driver/Src/stm32f2xx_ll_usb.c ****   uint32_t tmpreg, msk, emp;
 3042              		.loc 1 1180 3 is_stmt 1 view .LVU949
 3043              	.LVL266:
1181:Drivers/STM32F2xx_HAL_Driver/Src/stm32f2xx_ll_usb.c **** 
 3044              		.loc 1 1181 3 view .LVU950
1183:Drivers/STM32F2xx_HAL_Driver/Src/stm32f2xx_ll_usb.c ****   emp = USBx_DEVICE->DIEPEMPMSK;
 3045              		.loc 1 1183 3 view .LVU951
1183:Drivers/STM32F2xx_HAL_Driver/Src/stm32f2xx_ll_usb.c ****   emp = USBx_DEVICE->DIEPEMPMSK;
 3046              		.loc 1 1183 7 is_stmt 0 view .LVU952
 3047 0002 D0F81048 		ldr	r4, [r0, #2064]
 3048              	.LVL267:
1184:Drivers/STM32F2xx_HAL_Driver/Src/stm32f2xx_ll_usb.c ****   msk |= ((emp >> (epnum & EP_ADDR_MSK)) & 0x1U) << 7;
 3049              		.loc 1 1184 3 is_stmt 1 view .LVU953
1184:Drivers/STM32F2xx_HAL_Driver/Src/stm32f2xx_ll_usb.c ****   msk |= ((emp >> (epnum & EP_ADDR_MSK)) & 0x1U) << 7;
 3050              		.loc 1 1184 7 is_stmt 0 view .LVU954
 3051 0006 D0F83438 		ldr	r3, [r0, #2100]
 3052              	.LVL268:
1185:Drivers/STM32F2xx_HAL_Driver/Src/stm32f2xx_ll_usb.c ****   tmpreg = USBx_INEP((uint32_t)epnum)->DIEPINT & msk;
 3053              		.loc 1 1185 3 is_stmt 1 view .LVU955
1185:Drivers/STM32F2xx_HAL_Driver/Src/stm32f2xx_ll_usb.c ****   tmpreg = USBx_INEP((uint32_t)epnum)->DIEPINT & msk;
 3054              		.loc 1 1185 26 is_stmt 0 view .LVU956
 3055 000a 01F00F02 		and	r2, r1, #15
1185:Drivers/STM32F2xx_HAL_Driver/Src/stm32f2xx_ll_usb.c ****   tmpreg = USBx_INEP((uint32_t)epnum)->DIEPINT & msk;
 3056              		.loc 1 1185 16 view .LVU957
 3057 000e D340     		lsrs	r3, r3, r2
 3058              	.LVL269:
1185:Drivers/STM32F2xx_HAL_Driver/Src/stm32f2xx_ll_usb.c ****   tmpreg = USBx_INEP((uint32_t)epnum)->DIEPINT & msk;
ARM GAS  C:\Users\User\AppData\Local\Temp\ccY05dYU.s 			page 93


 3059              		.loc 1 1185 50 view .LVU958
 3060 0010 DB01     		lsls	r3, r3, #7
 3061 0012 DBB2     		uxtb	r3, r3
1185:Drivers/STM32F2xx_HAL_Driver/Src/stm32f2xx_ll_usb.c ****   tmpreg = USBx_INEP((uint32_t)epnum)->DIEPINT & msk;
 3062              		.loc 1 1185 7 view .LVU959
 3063 0014 2343     		orrs	r3, r3, r4
 3064              	.LVL270:
1186:Drivers/STM32F2xx_HAL_Driver/Src/stm32f2xx_ll_usb.c **** 
 3065              		.loc 1 1186 3 is_stmt 1 view .LVU960
1186:Drivers/STM32F2xx_HAL_Driver/Src/stm32f2xx_ll_usb.c **** 
 3066              		.loc 1 1186 12 is_stmt 0 view .LVU961
 3067 0016 00EB4110 		add	r0, r0, r1, lsl #5
 3068              	.LVL271:
1186:Drivers/STM32F2xx_HAL_Driver/Src/stm32f2xx_ll_usb.c **** 
 3069              		.loc 1 1186 12 view .LVU962
 3070 001a 00F51060 		add	r0, r0, #2304
1186:Drivers/STM32F2xx_HAL_Driver/Src/stm32f2xx_ll_usb.c **** 
 3071              		.loc 1 1186 38 view .LVU963
 3072 001e 8068     		ldr	r0, [r0, #8]
 3073              	.LVL272:
1188:Drivers/STM32F2xx_HAL_Driver/Src/stm32f2xx_ll_usb.c **** }
 3074              		.loc 1 1188 3 is_stmt 1 view .LVU964
1189:Drivers/STM32F2xx_HAL_Driver/Src/stm32f2xx_ll_usb.c **** 
 3075              		.loc 1 1189 1 is_stmt 0 view .LVU965
 3076 0020 1840     		ands	r0, r0, r3
 3077              	.LVL273:
1189:Drivers/STM32F2xx_HAL_Driver/Src/stm32f2xx_ll_usb.c **** 
 3078              		.loc 1 1189 1 view .LVU966
 3079 0022 10BC     		pop	{r4}
 3080              	.LCFI35:
 3081              		.cfi_restore 4
 3082              		.cfi_def_cfa_offset 0
 3083 0024 7047     		bx	lr
 3084              		.cfi_endproc
 3085              	.LFE100:
 3087              		.section	.text.USB_ClearInterrupts,"ax",%progbits
 3088              		.align	1
 3089              		.global	USB_ClearInterrupts
 3090              		.syntax unified
 3091              		.thumb
 3092              		.thumb_func
 3093              		.fpu softvfp
 3095              	USB_ClearInterrupts:
 3096              	.LVL274:
 3097              	.LFB101:
1198:Drivers/STM32F2xx_HAL_Driver/Src/stm32f2xx_ll_usb.c ****   USBx->GINTSTS |= interrupt;
 3098              		.loc 1 1198 1 is_stmt 1 view -0
 3099              		.cfi_startproc
 3100              		@ args = 0, pretend = 0, frame = 0
 3101              		@ frame_needed = 0, uses_anonymous_args = 0
 3102              		@ link register save eliminated.
1199:Drivers/STM32F2xx_HAL_Driver/Src/stm32f2xx_ll_usb.c **** }
 3103              		.loc 1 1199 3 view .LVU968
1199:Drivers/STM32F2xx_HAL_Driver/Src/stm32f2xx_ll_usb.c **** }
 3104              		.loc 1 1199 17 is_stmt 0 view .LVU969
 3105 0000 4369     		ldr	r3, [r0, #20]
 3106 0002 1943     		orrs	r1, r1, r3
ARM GAS  C:\Users\User\AppData\Local\Temp\ccY05dYU.s 			page 94


 3107              	.LVL275:
1199:Drivers/STM32F2xx_HAL_Driver/Src/stm32f2xx_ll_usb.c **** }
 3108              		.loc 1 1199 17 view .LVU970
 3109 0004 4161     		str	r1, [r0, #20]
1200:Drivers/STM32F2xx_HAL_Driver/Src/stm32f2xx_ll_usb.c **** 
 3110              		.loc 1 1200 1 view .LVU971
 3111 0006 7047     		bx	lr
 3112              		.cfi_endproc
 3113              	.LFE101:
 3115              		.section	.text.USB_GetMode,"ax",%progbits
 3116              		.align	1
 3117              		.global	USB_GetMode
 3118              		.syntax unified
 3119              		.thumb
 3120              		.thumb_func
 3121              		.fpu softvfp
 3123              	USB_GetMode:
 3124              	.LVL276:
 3125              	.LFB102:
1211:Drivers/STM32F2xx_HAL_Driver/Src/stm32f2xx_ll_usb.c ****   return ((USBx->GINTSTS) & 0x1U);
 3126              		.loc 1 1211 1 is_stmt 1 view -0
 3127              		.cfi_startproc
 3128              		@ args = 0, pretend = 0, frame = 0
 3129              		@ frame_needed = 0, uses_anonymous_args = 0
 3130              		@ link register save eliminated.
1212:Drivers/STM32F2xx_HAL_Driver/Src/stm32f2xx_ll_usb.c **** }
 3131              		.loc 1 1212 3 view .LVU973
1212:Drivers/STM32F2xx_HAL_Driver/Src/stm32f2xx_ll_usb.c **** }
 3132              		.loc 1 1212 16 is_stmt 0 view .LVU974
 3133 0000 4069     		ldr	r0, [r0, #20]
 3134              	.LVL277:
1213:Drivers/STM32F2xx_HAL_Driver/Src/stm32f2xx_ll_usb.c **** 
 3135              		.loc 1 1213 1 view .LVU975
 3136 0002 00F00100 		and	r0, r0, #1
 3137 0006 7047     		bx	lr
 3138              		.cfi_endproc
 3139              	.LFE102:
 3141              		.section	.text.USB_ActivateSetup,"ax",%progbits
 3142              		.align	1
 3143              		.global	USB_ActivateSetup
 3144              		.syntax unified
 3145              		.thumb
 3146              		.thumb_func
 3147              		.fpu softvfp
 3149              	USB_ActivateSetup:
 3150              	.LVL278:
 3151              	.LFB103:
1221:Drivers/STM32F2xx_HAL_Driver/Src/stm32f2xx_ll_usb.c ****   uint32_t USBx_BASE = (uint32_t)USBx;
 3152              		.loc 1 1221 1 is_stmt 1 view -0
 3153              		.cfi_startproc
 3154              		@ args = 0, pretend = 0, frame = 0
 3155              		@ frame_needed = 0, uses_anonymous_args = 0
 3156              		@ link register save eliminated.
1222:Drivers/STM32F2xx_HAL_Driver/Src/stm32f2xx_ll_usb.c **** 
 3157              		.loc 1 1222 3 view .LVU977
1225:Drivers/STM32F2xx_HAL_Driver/Src/stm32f2xx_ll_usb.c **** 
 3158              		.loc 1 1225 3 view .LVU978
ARM GAS  C:\Users\User\AppData\Local\Temp\ccY05dYU.s 			page 95


1225:Drivers/STM32F2xx_HAL_Driver/Src/stm32f2xx_ll_usb.c **** 
 3159              		.loc 1 1225 26 is_stmt 0 view .LVU979
 3160 0000 D0F80039 		ldr	r3, [r0, #2304]
 3161 0004 23F4FF63 		bic	r3, r3, #2040
 3162 0008 23F00703 		bic	r3, r3, #7
 3163 000c C0F80039 		str	r3, [r0, #2304]
1227:Drivers/STM32F2xx_HAL_Driver/Src/stm32f2xx_ll_usb.c ****   {
 3164              		.loc 1 1227 3 is_stmt 1 view .LVU980
1227:Drivers/STM32F2xx_HAL_Driver/Src/stm32f2xx_ll_usb.c ****   {
 3165              		.loc 1 1227 8 is_stmt 0 view .LVU981
 3166 0010 00F50063 		add	r3, r0, #2048
1227:Drivers/STM32F2xx_HAL_Driver/Src/stm32f2xx_ll_usb.c ****   {
 3167              		.loc 1 1227 19 view .LVU982
 3168 0014 9A68     		ldr	r2, [r3, #8]
1227:Drivers/STM32F2xx_HAL_Driver/Src/stm32f2xx_ll_usb.c ****   {
 3169              		.loc 1 1227 26 view .LVU983
 3170 0016 02F00602 		and	r2, r2, #6
1227:Drivers/STM32F2xx_HAL_Driver/Src/stm32f2xx_ll_usb.c ****   {
 3171              		.loc 1 1227 6 view .LVU984
 3172 001a 042A     		cmp	r2, #4
 3173 001c 05D0     		beq	.L204
 3174              	.L203:
1231:Drivers/STM32F2xx_HAL_Driver/Src/stm32f2xx_ll_usb.c **** 
 3175              		.loc 1 1231 3 is_stmt 1 view .LVU985
1231:Drivers/STM32F2xx_HAL_Driver/Src/stm32f2xx_ll_usb.c **** 
 3176              		.loc 1 1231 21 is_stmt 0 view .LVU986
 3177 001e 5A68     		ldr	r2, [r3, #4]
 3178 0020 42F48072 		orr	r2, r2, #256
 3179 0024 5A60     		str	r2, [r3, #4]
1233:Drivers/STM32F2xx_HAL_Driver/Src/stm32f2xx_ll_usb.c **** }
 3180              		.loc 1 1233 3 is_stmt 1 view .LVU987
1234:Drivers/STM32F2xx_HAL_Driver/Src/stm32f2xx_ll_usb.c **** 
 3181              		.loc 1 1234 1 is_stmt 0 view .LVU988
 3182 0026 0020     		movs	r0, #0
 3183              	.LVL279:
1234:Drivers/STM32F2xx_HAL_Driver/Src/stm32f2xx_ll_usb.c **** 
 3184              		.loc 1 1234 1 view .LVU989
 3185 0028 7047     		bx	lr
 3186              	.LVL280:
 3187              	.L204:
1229:Drivers/STM32F2xx_HAL_Driver/Src/stm32f2xx_ll_usb.c ****   }
 3188              		.loc 1 1229 5 is_stmt 1 view .LVU990
1229:Drivers/STM32F2xx_HAL_Driver/Src/stm32f2xx_ll_usb.c ****   }
 3189              		.loc 1 1229 28 is_stmt 0 view .LVU991
 3190 002a D0F80029 		ldr	r2, [r0, #2304]
 3191 002e 42F00302 		orr	r2, r2, #3
 3192 0032 C0F80029 		str	r2, [r0, #2304]
 3193 0036 F2E7     		b	.L203
 3194              		.cfi_endproc
 3195              	.LFE103:
 3197              		.section	.text.USB_EP0_OutStart,"ax",%progbits
 3198              		.align	1
 3199              		.global	USB_EP0_OutStart
 3200              		.syntax unified
 3201              		.thumb
 3202              		.thumb_func
 3203              		.fpu softvfp
ARM GAS  C:\Users\User\AppData\Local\Temp\ccY05dYU.s 			page 96


 3205              	USB_EP0_OutStart:
 3206              	.LVL281:
 3207              	.LFB104:
1247:Drivers/STM32F2xx_HAL_Driver/Src/stm32f2xx_ll_usb.c ****   uint32_t USBx_BASE = (uint32_t)USBx;
 3208              		.loc 1 1247 1 is_stmt 1 view -0
 3209              		.cfi_startproc
 3210              		@ args = 0, pretend = 0, frame = 0
 3211              		@ frame_needed = 0, uses_anonymous_args = 0
 3212              		@ link register save eliminated.
1247:Drivers/STM32F2xx_HAL_Driver/Src/stm32f2xx_ll_usb.c ****   uint32_t USBx_BASE = (uint32_t)USBx;
 3213              		.loc 1 1247 1 is_stmt 0 view .LVU993
 3214 0000 10B4     		push	{r4}
 3215              	.LCFI36:
 3216              		.cfi_def_cfa_offset 4
 3217              		.cfi_offset 4, -4
1248:Drivers/STM32F2xx_HAL_Driver/Src/stm32f2xx_ll_usb.c ****   uint32_t gSNPSiD = *(__IO uint32_t *)(&USBx->CID + 0x1U);
 3218              		.loc 1 1248 3 is_stmt 1 view .LVU994
 3219              	.LVL282:
1249:Drivers/STM32F2xx_HAL_Driver/Src/stm32f2xx_ll_usb.c **** 
 3220              		.loc 1 1249 3 view .LVU995
1249:Drivers/STM32F2xx_HAL_Driver/Src/stm32f2xx_ll_usb.c **** 
 3221              		.loc 1 1249 12 is_stmt 0 view .LVU996
 3222 0002 046C     		ldr	r4, [r0, #64]
 3223              	.LVL283:
1251:Drivers/STM32F2xx_HAL_Driver/Src/stm32f2xx_ll_usb.c ****   {
 3224              		.loc 1 1251 3 is_stmt 1 view .LVU997
1251:Drivers/STM32F2xx_HAL_Driver/Src/stm32f2xx_ll_usb.c ****   {
 3225              		.loc 1 1251 6 is_stmt 0 view .LVU998
 3226 0004 144B     		ldr	r3, .L210
 3227 0006 9C42     		cmp	r4, r3
 3228 0008 03D9     		bls	.L206
1253:Drivers/STM32F2xx_HAL_Driver/Src/stm32f2xx_ll_usb.c ****     {
 3229              		.loc 1 1253 5 is_stmt 1 view .LVU999
1253:Drivers/STM32F2xx_HAL_Driver/Src/stm32f2xx_ll_usb.c ****     {
 3230              		.loc 1 1253 24 is_stmt 0 view .LVU1000
 3231 000a D0F8003B 		ldr	r3, [r0, #2816]
1253:Drivers/STM32F2xx_HAL_Driver/Src/stm32f2xx_ll_usb.c ****     {
 3232              		.loc 1 1253 8 view .LVU1001
 3233 000e 002B     		cmp	r3, #0
 3234 0010 16DB     		blt	.L207
 3235              	.L206:
1259:Drivers/STM32F2xx_HAL_Driver/Src/stm32f2xx_ll_usb.c ****   USBx_OUTEP(0U)->DOEPTSIZ |= (USB_OTG_DOEPTSIZ_PKTCNT & (1U << 19));
 3236              		.loc 1 1259 3 is_stmt 1 view .LVU1002
1259:Drivers/STM32F2xx_HAL_Driver/Src/stm32f2xx_ll_usb.c ****   USBx_OUTEP(0U)->DOEPTSIZ |= (USB_OTG_DOEPTSIZ_PKTCNT & (1U << 19));
 3237              		.loc 1 1259 28 is_stmt 0 view .LVU1003
 3238 0012 0024     		movs	r4, #0
 3239              	.LVL284:
1259:Drivers/STM32F2xx_HAL_Driver/Src/stm32f2xx_ll_usb.c ****   USBx_OUTEP(0U)->DOEPTSIZ |= (USB_OTG_DOEPTSIZ_PKTCNT & (1U << 19));
 3240              		.loc 1 1259 28 view .LVU1004
 3241 0014 C0F8104B 		str	r4, [r0, #2832]
1260:Drivers/STM32F2xx_HAL_Driver/Src/stm32f2xx_ll_usb.c ****   USBx_OUTEP(0U)->DOEPTSIZ |= (3U * 8U);
 3242              		.loc 1 1260 3 is_stmt 1 view .LVU1005
1260:Drivers/STM32F2xx_HAL_Driver/Src/stm32f2xx_ll_usb.c ****   USBx_OUTEP(0U)->DOEPTSIZ |= (3U * 8U);
 3243              		.loc 1 1260 28 is_stmt 0 view .LVU1006
 3244 0018 D0F8104B 		ldr	r4, [r0, #2832]
 3245 001c 44F40024 		orr	r4, r4, #524288
 3246 0020 C0F8104B 		str	r4, [r0, #2832]
ARM GAS  C:\Users\User\AppData\Local\Temp\ccY05dYU.s 			page 97


1261:Drivers/STM32F2xx_HAL_Driver/Src/stm32f2xx_ll_usb.c ****   USBx_OUTEP(0U)->DOEPTSIZ |=  USB_OTG_DOEPTSIZ_STUPCNT;
 3247              		.loc 1 1261 3 is_stmt 1 view .LVU1007
1261:Drivers/STM32F2xx_HAL_Driver/Src/stm32f2xx_ll_usb.c ****   USBx_OUTEP(0U)->DOEPTSIZ |=  USB_OTG_DOEPTSIZ_STUPCNT;
 3248              		.loc 1 1261 28 is_stmt 0 view .LVU1008
 3249 0024 D0F8104B 		ldr	r4, [r0, #2832]
 3250 0028 44F01804 		orr	r4, r4, #24
 3251 002c C0F8104B 		str	r4, [r0, #2832]
1262:Drivers/STM32F2xx_HAL_Driver/Src/stm32f2xx_ll_usb.c **** 
 3252              		.loc 1 1262 3 is_stmt 1 view .LVU1009
1262:Drivers/STM32F2xx_HAL_Driver/Src/stm32f2xx_ll_usb.c **** 
 3253              		.loc 1 1262 28 is_stmt 0 view .LVU1010
 3254 0030 D0F8104B 		ldr	r4, [r0, #2832]
 3255 0034 44F0C044 		orr	r4, r4, #1610612736
 3256 0038 C0F8104B 		str	r4, [r0, #2832]
1264:Drivers/STM32F2xx_HAL_Driver/Src/stm32f2xx_ll_usb.c ****   {
 3257              		.loc 1 1264 3 is_stmt 1 view .LVU1011
1264:Drivers/STM32F2xx_HAL_Driver/Src/stm32f2xx_ll_usb.c ****   {
 3258              		.loc 1 1264 6 is_stmt 0 view .LVU1012
 3259 003c 0129     		cmp	r1, #1
 3260 003e 02D0     		beq	.L209
 3261              	.L207:
1272:Drivers/STM32F2xx_HAL_Driver/Src/stm32f2xx_ll_usb.c **** 
 3262              		.loc 1 1272 1 view .LVU1013
 3263 0040 0020     		movs	r0, #0
 3264              	.LVL285:
1272:Drivers/STM32F2xx_HAL_Driver/Src/stm32f2xx_ll_usb.c **** 
 3265              		.loc 1 1272 1 view .LVU1014
 3266 0042 10BC     		pop	{r4}
 3267              	.LCFI37:
 3268              		.cfi_remember_state
 3269              		.cfi_restore 4
 3270              		.cfi_def_cfa_offset 0
 3271 0044 7047     		bx	lr
 3272              	.LVL286:
 3273              	.L209:
 3274              	.LCFI38:
 3275              		.cfi_restore_state
1266:Drivers/STM32F2xx_HAL_Driver/Src/stm32f2xx_ll_usb.c ****     /* EP enable */
 3276              		.loc 1 1266 5 is_stmt 1 view .LVU1015
1266:Drivers/STM32F2xx_HAL_Driver/Src/stm32f2xx_ll_usb.c ****     /* EP enable */
 3277              		.loc 1 1266 29 is_stmt 0 view .LVU1016
 3278 0046 C0F8142B 		str	r2, [r0, #2836]
1268:Drivers/STM32F2xx_HAL_Driver/Src/stm32f2xx_ll_usb.c ****   }
 3279              		.loc 1 1268 5 is_stmt 1 view .LVU1017
1268:Drivers/STM32F2xx_HAL_Driver/Src/stm32f2xx_ll_usb.c ****   }
 3280              		.loc 1 1268 29 is_stmt 0 view .LVU1018
 3281 004a D0F8003B 		ldr	r3, [r0, #2816]
 3282 004e 43F08023 		orr	r3, r3, #-2147450880
 3283 0052 C0F8003B 		str	r3, [r0, #2816]
 3284 0056 F3E7     		b	.L207
 3285              	.L211:
 3286              		.align	2
 3287              	.L210:
 3288 0058 0A30544F 		.word	1330917386
 3289              		.cfi_endproc
 3290              	.LFE104:
 3292              		.section	.text.USB_InitFSLSPClkSel,"ax",%progbits
ARM GAS  C:\Users\User\AppData\Local\Temp\ccY05dYU.s 			page 98


 3293              		.align	1
 3294              		.global	USB_InitFSLSPClkSel
 3295              		.syntax unified
 3296              		.thumb
 3297              		.thumb_func
 3298              		.fpu softvfp
 3300              	USB_InitFSLSPClkSel:
 3301              	.LVL287:
 3302              	.LFB107:
1308:Drivers/STM32F2xx_HAL_Driver/Src/stm32f2xx_ll_usb.c **** 
1309:Drivers/STM32F2xx_HAL_Driver/Src/stm32f2xx_ll_usb.c **** /**
1310:Drivers/STM32F2xx_HAL_Driver/Src/stm32f2xx_ll_usb.c ****   * @brief  USB_HostInit : Initializes the USB OTG controller registers
1311:Drivers/STM32F2xx_HAL_Driver/Src/stm32f2xx_ll_usb.c ****   *         for Host mode
1312:Drivers/STM32F2xx_HAL_Driver/Src/stm32f2xx_ll_usb.c ****   * @param  USBx  Selected device
1313:Drivers/STM32F2xx_HAL_Driver/Src/stm32f2xx_ll_usb.c ****   * @param  cfg   pointer to a USB_OTG_CfgTypeDef structure that contains
1314:Drivers/STM32F2xx_HAL_Driver/Src/stm32f2xx_ll_usb.c ****   *         the configuration information for the specified USBx peripheral.
1315:Drivers/STM32F2xx_HAL_Driver/Src/stm32f2xx_ll_usb.c ****   * @retval HAL status
1316:Drivers/STM32F2xx_HAL_Driver/Src/stm32f2xx_ll_usb.c ****   */
1317:Drivers/STM32F2xx_HAL_Driver/Src/stm32f2xx_ll_usb.c **** HAL_StatusTypeDef USB_HostInit(USB_OTG_GlobalTypeDef *USBx, USB_OTG_CfgTypeDef cfg)
1318:Drivers/STM32F2xx_HAL_Driver/Src/stm32f2xx_ll_usb.c **** {
1319:Drivers/STM32F2xx_HAL_Driver/Src/stm32f2xx_ll_usb.c ****   uint32_t USBx_BASE = (uint32_t)USBx;
1320:Drivers/STM32F2xx_HAL_Driver/Src/stm32f2xx_ll_usb.c ****   uint32_t i;
1321:Drivers/STM32F2xx_HAL_Driver/Src/stm32f2xx_ll_usb.c **** 
1322:Drivers/STM32F2xx_HAL_Driver/Src/stm32f2xx_ll_usb.c ****   /* Restart the Phy Clock */
1323:Drivers/STM32F2xx_HAL_Driver/Src/stm32f2xx_ll_usb.c ****   USBx_PCGCCTL = 0U;
1324:Drivers/STM32F2xx_HAL_Driver/Src/stm32f2xx_ll_usb.c **** 
1325:Drivers/STM32F2xx_HAL_Driver/Src/stm32f2xx_ll_usb.c ****   /* Disable VBUS sensing */
1326:Drivers/STM32F2xx_HAL_Driver/Src/stm32f2xx_ll_usb.c ****   USBx->GCCFG |= USB_OTG_GCCFG_NOVBUSSENS;
1327:Drivers/STM32F2xx_HAL_Driver/Src/stm32f2xx_ll_usb.c ****   USBx->GCCFG &= ~(USB_OTG_GCCFG_VBUSASEN);
1328:Drivers/STM32F2xx_HAL_Driver/Src/stm32f2xx_ll_usb.c ****   USBx->GCCFG &= ~(USB_OTG_GCCFG_VBUSBSEN);
1329:Drivers/STM32F2xx_HAL_Driver/Src/stm32f2xx_ll_usb.c **** 
1330:Drivers/STM32F2xx_HAL_Driver/Src/stm32f2xx_ll_usb.c ****   if ((USBx->CID & (0x1U << 8)) != 0U)
1331:Drivers/STM32F2xx_HAL_Driver/Src/stm32f2xx_ll_usb.c ****   {
1332:Drivers/STM32F2xx_HAL_Driver/Src/stm32f2xx_ll_usb.c ****     if (cfg.speed == USB_OTG_SPEED_FULL)
1333:Drivers/STM32F2xx_HAL_Driver/Src/stm32f2xx_ll_usb.c ****     {
1334:Drivers/STM32F2xx_HAL_Driver/Src/stm32f2xx_ll_usb.c ****       /* Force Device Enumeration to FS/LS mode only */
1335:Drivers/STM32F2xx_HAL_Driver/Src/stm32f2xx_ll_usb.c ****       USBx_HOST->HCFG |= USB_OTG_HCFG_FSLSS;
1336:Drivers/STM32F2xx_HAL_Driver/Src/stm32f2xx_ll_usb.c ****     }
1337:Drivers/STM32F2xx_HAL_Driver/Src/stm32f2xx_ll_usb.c ****     else
1338:Drivers/STM32F2xx_HAL_Driver/Src/stm32f2xx_ll_usb.c ****     {
1339:Drivers/STM32F2xx_HAL_Driver/Src/stm32f2xx_ll_usb.c ****       /* Set default Max speed support */
1340:Drivers/STM32F2xx_HAL_Driver/Src/stm32f2xx_ll_usb.c ****       USBx_HOST->HCFG &= ~(USB_OTG_HCFG_FSLSS);
1341:Drivers/STM32F2xx_HAL_Driver/Src/stm32f2xx_ll_usb.c ****     }
1342:Drivers/STM32F2xx_HAL_Driver/Src/stm32f2xx_ll_usb.c ****   }
1343:Drivers/STM32F2xx_HAL_Driver/Src/stm32f2xx_ll_usb.c ****   else
1344:Drivers/STM32F2xx_HAL_Driver/Src/stm32f2xx_ll_usb.c ****   {
1345:Drivers/STM32F2xx_HAL_Driver/Src/stm32f2xx_ll_usb.c ****     /* Set default Max speed support */
1346:Drivers/STM32F2xx_HAL_Driver/Src/stm32f2xx_ll_usb.c ****     USBx_HOST->HCFG &= ~(USB_OTG_HCFG_FSLSS);
1347:Drivers/STM32F2xx_HAL_Driver/Src/stm32f2xx_ll_usb.c ****   }
1348:Drivers/STM32F2xx_HAL_Driver/Src/stm32f2xx_ll_usb.c **** 
1349:Drivers/STM32F2xx_HAL_Driver/Src/stm32f2xx_ll_usb.c ****   /* Make sure the FIFOs are flushed. */
1350:Drivers/STM32F2xx_HAL_Driver/Src/stm32f2xx_ll_usb.c ****   (void)USB_FlushTxFifo(USBx, 0x10U); /* all Tx FIFOs */
1351:Drivers/STM32F2xx_HAL_Driver/Src/stm32f2xx_ll_usb.c ****   (void)USB_FlushRxFifo(USBx);
1352:Drivers/STM32F2xx_HAL_Driver/Src/stm32f2xx_ll_usb.c **** 
1353:Drivers/STM32F2xx_HAL_Driver/Src/stm32f2xx_ll_usb.c ****   /* Clear all pending HC Interrupts */
1354:Drivers/STM32F2xx_HAL_Driver/Src/stm32f2xx_ll_usb.c ****   for (i = 0U; i < cfg.Host_channels; i++)
1355:Drivers/STM32F2xx_HAL_Driver/Src/stm32f2xx_ll_usb.c ****   {
ARM GAS  C:\Users\User\AppData\Local\Temp\ccY05dYU.s 			page 99


1356:Drivers/STM32F2xx_HAL_Driver/Src/stm32f2xx_ll_usb.c ****     USBx_HC(i)->HCINT = 0xFFFFFFFFU;
1357:Drivers/STM32F2xx_HAL_Driver/Src/stm32f2xx_ll_usb.c ****     USBx_HC(i)->HCINTMSK = 0U;
1358:Drivers/STM32F2xx_HAL_Driver/Src/stm32f2xx_ll_usb.c ****   }
1359:Drivers/STM32F2xx_HAL_Driver/Src/stm32f2xx_ll_usb.c **** 
1360:Drivers/STM32F2xx_HAL_Driver/Src/stm32f2xx_ll_usb.c ****   /* Enable VBUS driving */
1361:Drivers/STM32F2xx_HAL_Driver/Src/stm32f2xx_ll_usb.c ****   (void)USB_DriveVbus(USBx, 1U);
1362:Drivers/STM32F2xx_HAL_Driver/Src/stm32f2xx_ll_usb.c **** 
1363:Drivers/STM32F2xx_HAL_Driver/Src/stm32f2xx_ll_usb.c ****   HAL_Delay(200U);
1364:Drivers/STM32F2xx_HAL_Driver/Src/stm32f2xx_ll_usb.c **** 
1365:Drivers/STM32F2xx_HAL_Driver/Src/stm32f2xx_ll_usb.c ****   /* Disable all interrupts. */
1366:Drivers/STM32F2xx_HAL_Driver/Src/stm32f2xx_ll_usb.c ****   USBx->GINTMSK = 0U;
1367:Drivers/STM32F2xx_HAL_Driver/Src/stm32f2xx_ll_usb.c **** 
1368:Drivers/STM32F2xx_HAL_Driver/Src/stm32f2xx_ll_usb.c ****   /* Clear any pending interrupts */
1369:Drivers/STM32F2xx_HAL_Driver/Src/stm32f2xx_ll_usb.c ****   USBx->GINTSTS = 0xFFFFFFFFU;
1370:Drivers/STM32F2xx_HAL_Driver/Src/stm32f2xx_ll_usb.c **** 
1371:Drivers/STM32F2xx_HAL_Driver/Src/stm32f2xx_ll_usb.c ****   if ((USBx->CID & (0x1U << 8)) != 0U)
1372:Drivers/STM32F2xx_HAL_Driver/Src/stm32f2xx_ll_usb.c ****   {
1373:Drivers/STM32F2xx_HAL_Driver/Src/stm32f2xx_ll_usb.c ****     /* set Rx FIFO size */
1374:Drivers/STM32F2xx_HAL_Driver/Src/stm32f2xx_ll_usb.c ****     USBx->GRXFSIZ  = 0x200U;
1375:Drivers/STM32F2xx_HAL_Driver/Src/stm32f2xx_ll_usb.c ****     USBx->DIEPTXF0_HNPTXFSIZ = (uint32_t)(((0x100U << 16) & USB_OTG_NPTXFD) | 0x200U);
1376:Drivers/STM32F2xx_HAL_Driver/Src/stm32f2xx_ll_usb.c ****     USBx->HPTXFSIZ = (uint32_t)(((0xE0U << 16) & USB_OTG_HPTXFSIZ_PTXFD) | 0x300U);
1377:Drivers/STM32F2xx_HAL_Driver/Src/stm32f2xx_ll_usb.c ****   }
1378:Drivers/STM32F2xx_HAL_Driver/Src/stm32f2xx_ll_usb.c ****   else
1379:Drivers/STM32F2xx_HAL_Driver/Src/stm32f2xx_ll_usb.c ****   {
1380:Drivers/STM32F2xx_HAL_Driver/Src/stm32f2xx_ll_usb.c ****     /* set Rx FIFO size */
1381:Drivers/STM32F2xx_HAL_Driver/Src/stm32f2xx_ll_usb.c ****     USBx->GRXFSIZ  = 0x80U;
1382:Drivers/STM32F2xx_HAL_Driver/Src/stm32f2xx_ll_usb.c ****     USBx->DIEPTXF0_HNPTXFSIZ = (uint32_t)(((0x60U << 16) & USB_OTG_NPTXFD) | 0x80U);
1383:Drivers/STM32F2xx_HAL_Driver/Src/stm32f2xx_ll_usb.c ****     USBx->HPTXFSIZ = (uint32_t)(((0x40U << 16)& USB_OTG_HPTXFSIZ_PTXFD) | 0xE0U);
1384:Drivers/STM32F2xx_HAL_Driver/Src/stm32f2xx_ll_usb.c ****   }
1385:Drivers/STM32F2xx_HAL_Driver/Src/stm32f2xx_ll_usb.c **** 
1386:Drivers/STM32F2xx_HAL_Driver/Src/stm32f2xx_ll_usb.c ****   /* Enable the common interrupts */
1387:Drivers/STM32F2xx_HAL_Driver/Src/stm32f2xx_ll_usb.c ****   if (cfg.dma_enable == 0U)
1388:Drivers/STM32F2xx_HAL_Driver/Src/stm32f2xx_ll_usb.c ****   {
1389:Drivers/STM32F2xx_HAL_Driver/Src/stm32f2xx_ll_usb.c ****     USBx->GINTMSK |= USB_OTG_GINTMSK_RXFLVLM;
1390:Drivers/STM32F2xx_HAL_Driver/Src/stm32f2xx_ll_usb.c ****   }
1391:Drivers/STM32F2xx_HAL_Driver/Src/stm32f2xx_ll_usb.c **** 
1392:Drivers/STM32F2xx_HAL_Driver/Src/stm32f2xx_ll_usb.c ****   /* Enable interrupts matching to the Host mode ONLY */
1393:Drivers/STM32F2xx_HAL_Driver/Src/stm32f2xx_ll_usb.c ****   USBx->GINTMSK |= (USB_OTG_GINTMSK_PRTIM            | USB_OTG_GINTMSK_HCIM | \
1394:Drivers/STM32F2xx_HAL_Driver/Src/stm32f2xx_ll_usb.c ****                     USB_OTG_GINTMSK_SOFM             | USB_OTG_GINTSTS_DISCINT | \
1395:Drivers/STM32F2xx_HAL_Driver/Src/stm32f2xx_ll_usb.c ****                     USB_OTG_GINTMSK_PXFRM_IISOOXFRM  | USB_OTG_GINTMSK_WUIM);
1396:Drivers/STM32F2xx_HAL_Driver/Src/stm32f2xx_ll_usb.c **** 
1397:Drivers/STM32F2xx_HAL_Driver/Src/stm32f2xx_ll_usb.c ****   return HAL_OK;
1398:Drivers/STM32F2xx_HAL_Driver/Src/stm32f2xx_ll_usb.c **** }
1399:Drivers/STM32F2xx_HAL_Driver/Src/stm32f2xx_ll_usb.c **** 
1400:Drivers/STM32F2xx_HAL_Driver/Src/stm32f2xx_ll_usb.c **** /**
1401:Drivers/STM32F2xx_HAL_Driver/Src/stm32f2xx_ll_usb.c ****   * @brief  USB_InitFSLSPClkSel : Initializes the FSLSPClkSel field of the
1402:Drivers/STM32F2xx_HAL_Driver/Src/stm32f2xx_ll_usb.c ****   *         HCFG register on the PHY type and set the right frame interval
1403:Drivers/STM32F2xx_HAL_Driver/Src/stm32f2xx_ll_usb.c ****   * @param  USBx  Selected device
1404:Drivers/STM32F2xx_HAL_Driver/Src/stm32f2xx_ll_usb.c ****   * @param  freq  clock frequency
1405:Drivers/STM32F2xx_HAL_Driver/Src/stm32f2xx_ll_usb.c ****   *          This parameter can be one of these values:
1406:Drivers/STM32F2xx_HAL_Driver/Src/stm32f2xx_ll_usb.c ****   *           HCFG_48_MHZ : Full Speed 48 MHz Clock
1407:Drivers/STM32F2xx_HAL_Driver/Src/stm32f2xx_ll_usb.c ****   *           HCFG_6_MHZ : Low Speed 6 MHz Clock
1408:Drivers/STM32F2xx_HAL_Driver/Src/stm32f2xx_ll_usb.c ****   * @retval HAL status
1409:Drivers/STM32F2xx_HAL_Driver/Src/stm32f2xx_ll_usb.c ****   */
1410:Drivers/STM32F2xx_HAL_Driver/Src/stm32f2xx_ll_usb.c **** HAL_StatusTypeDef USB_InitFSLSPClkSel(USB_OTG_GlobalTypeDef *USBx, uint8_t freq)
1411:Drivers/STM32F2xx_HAL_Driver/Src/stm32f2xx_ll_usb.c **** {
 3303              		.loc 1 1411 1 is_stmt 1 view -0
ARM GAS  C:\Users\User\AppData\Local\Temp\ccY05dYU.s 			page 100


 3304              		.cfi_startproc
 3305              		@ args = 0, pretend = 0, frame = 0
 3306              		@ frame_needed = 0, uses_anonymous_args = 0
 3307              		@ link register save eliminated.
 3308              		.loc 1 1411 1 is_stmt 0 view .LVU1020
 3309 0000 10B4     		push	{r4}
 3310              	.LCFI39:
 3311              		.cfi_def_cfa_offset 4
 3312              		.cfi_offset 4, -4
1412:Drivers/STM32F2xx_HAL_Driver/Src/stm32f2xx_ll_usb.c ****   uint32_t USBx_BASE = (uint32_t)USBx;
 3313              		.loc 1 1412 3 is_stmt 1 view .LVU1021
 3314              	.LVL288:
1413:Drivers/STM32F2xx_HAL_Driver/Src/stm32f2xx_ll_usb.c **** 
1414:Drivers/STM32F2xx_HAL_Driver/Src/stm32f2xx_ll_usb.c ****   USBx_HOST->HCFG &= ~(USB_OTG_HCFG_FSLSPCS);
 3315              		.loc 1 1414 3 view .LVU1022
 3316              		.loc 1 1414 19 is_stmt 0 view .LVU1023
 3317 0002 00F58064 		add	r4, r0, #1024
 3318 0006 D0F80034 		ldr	r3, [r0, #1024]
 3319 000a 23F00303 		bic	r3, r3, #3
 3320 000e C0F80034 		str	r3, [r0, #1024]
1415:Drivers/STM32F2xx_HAL_Driver/Src/stm32f2xx_ll_usb.c ****   USBx_HOST->HCFG |= (uint32_t)freq & USB_OTG_HCFG_FSLSPCS;
 3321              		.loc 1 1415 3 is_stmt 1 view .LVU1024
 3322              		.loc 1 1415 19 is_stmt 0 view .LVU1025
 3323 0012 D0F80034 		ldr	r3, [r0, #1024]
 3324              		.loc 1 1415 37 view .LVU1026
 3325 0016 01F00302 		and	r2, r1, #3
 3326              		.loc 1 1415 19 view .LVU1027
 3327 001a 1343     		orrs	r3, r3, r2
 3328 001c C0F80034 		str	r3, [r0, #1024]
1416:Drivers/STM32F2xx_HAL_Driver/Src/stm32f2xx_ll_usb.c **** 
1417:Drivers/STM32F2xx_HAL_Driver/Src/stm32f2xx_ll_usb.c ****   if (freq == HCFG_48_MHZ)
 3329              		.loc 1 1417 3 is_stmt 1 view .LVU1028
 3330              		.loc 1 1417 6 is_stmt 0 view .LVU1029
 3331 0020 0129     		cmp	r1, #1
 3332 0022 04D0     		beq	.L216
1418:Drivers/STM32F2xx_HAL_Driver/Src/stm32f2xx_ll_usb.c ****   {
1419:Drivers/STM32F2xx_HAL_Driver/Src/stm32f2xx_ll_usb.c ****     USBx_HOST->HFIR = 48000U;
1420:Drivers/STM32F2xx_HAL_Driver/Src/stm32f2xx_ll_usb.c ****   }
1421:Drivers/STM32F2xx_HAL_Driver/Src/stm32f2xx_ll_usb.c ****   else if (freq == HCFG_6_MHZ)
 3333              		.loc 1 1421 8 is_stmt 1 view .LVU1030
 3334              		.loc 1 1421 11 is_stmt 0 view .LVU1031
 3335 0024 0229     		cmp	r1, #2
 3336 0026 06D0     		beq	.L217
 3337              	.L214:
1422:Drivers/STM32F2xx_HAL_Driver/Src/stm32f2xx_ll_usb.c ****   {
1423:Drivers/STM32F2xx_HAL_Driver/Src/stm32f2xx_ll_usb.c ****     USBx_HOST->HFIR = 6000U;
1424:Drivers/STM32F2xx_HAL_Driver/Src/stm32f2xx_ll_usb.c ****   }
1425:Drivers/STM32F2xx_HAL_Driver/Src/stm32f2xx_ll_usb.c ****   else
1426:Drivers/STM32F2xx_HAL_Driver/Src/stm32f2xx_ll_usb.c ****   {
1427:Drivers/STM32F2xx_HAL_Driver/Src/stm32f2xx_ll_usb.c ****     /* ... */
1428:Drivers/STM32F2xx_HAL_Driver/Src/stm32f2xx_ll_usb.c ****   }
 3338              		.loc 1 1428 3 is_stmt 1 view .LVU1032
1429:Drivers/STM32F2xx_HAL_Driver/Src/stm32f2xx_ll_usb.c **** 
1430:Drivers/STM32F2xx_HAL_Driver/Src/stm32f2xx_ll_usb.c ****   return HAL_OK;
 3339              		.loc 1 1430 3 view .LVU1033
1431:Drivers/STM32F2xx_HAL_Driver/Src/stm32f2xx_ll_usb.c **** }
 3340              		.loc 1 1431 1 is_stmt 0 view .LVU1034
ARM GAS  C:\Users\User\AppData\Local\Temp\ccY05dYU.s 			page 101


 3341 0028 0020     		movs	r0, #0
 3342              	.LVL289:
 3343              		.loc 1 1431 1 view .LVU1035
 3344 002a 10BC     		pop	{r4}
 3345              	.LCFI40:
 3346              		.cfi_remember_state
 3347              		.cfi_restore 4
 3348              		.cfi_def_cfa_offset 0
 3349              	.LVL290:
 3350              		.loc 1 1431 1 view .LVU1036
 3351 002c 7047     		bx	lr
 3352              	.LVL291:
 3353              	.L216:
 3354              	.LCFI41:
 3355              		.cfi_restore_state
1419:Drivers/STM32F2xx_HAL_Driver/Src/stm32f2xx_ll_usb.c ****   }
 3356              		.loc 1 1419 5 is_stmt 1 view .LVU1037
1419:Drivers/STM32F2xx_HAL_Driver/Src/stm32f2xx_ll_usb.c ****   }
 3357              		.loc 1 1419 21 is_stmt 0 view .LVU1038
 3358 002e 4BF68033 		movw	r3, #48000
 3359 0032 6360     		str	r3, [r4, #4]
 3360 0034 F8E7     		b	.L214
 3361              	.L217:
1423:Drivers/STM32F2xx_HAL_Driver/Src/stm32f2xx_ll_usb.c ****   }
 3362              		.loc 1 1423 5 is_stmt 1 view .LVU1039
1423:Drivers/STM32F2xx_HAL_Driver/Src/stm32f2xx_ll_usb.c ****   }
 3363              		.loc 1 1423 21 is_stmt 0 view .LVU1040
 3364 0036 41F27073 		movw	r3, #6000
 3365 003a 6360     		str	r3, [r4, #4]
 3366 003c F4E7     		b	.L214
 3367              		.cfi_endproc
 3368              	.LFE107:
 3370              		.section	.text.USB_ResetPort,"ax",%progbits
 3371              		.align	1
 3372              		.global	USB_ResetPort
 3373              		.syntax unified
 3374              		.thumb
 3375              		.thumb_func
 3376              		.fpu softvfp
 3378              	USB_ResetPort:
 3379              	.LVL292:
 3380              	.LFB108:
1432:Drivers/STM32F2xx_HAL_Driver/Src/stm32f2xx_ll_usb.c **** 
1433:Drivers/STM32F2xx_HAL_Driver/Src/stm32f2xx_ll_usb.c **** /**
1434:Drivers/STM32F2xx_HAL_Driver/Src/stm32f2xx_ll_usb.c **** * @brief  USB_OTG_ResetPort : Reset Host Port
1435:Drivers/STM32F2xx_HAL_Driver/Src/stm32f2xx_ll_usb.c ****   * @param  USBx  Selected device
1436:Drivers/STM32F2xx_HAL_Driver/Src/stm32f2xx_ll_usb.c ****   * @retval HAL status
1437:Drivers/STM32F2xx_HAL_Driver/Src/stm32f2xx_ll_usb.c ****   * @note (1)The application must wait at least 10 ms
1438:Drivers/STM32F2xx_HAL_Driver/Src/stm32f2xx_ll_usb.c ****   *   before clearing the reset bit.
1439:Drivers/STM32F2xx_HAL_Driver/Src/stm32f2xx_ll_usb.c ****   */
1440:Drivers/STM32F2xx_HAL_Driver/Src/stm32f2xx_ll_usb.c **** HAL_StatusTypeDef USB_ResetPort(USB_OTG_GlobalTypeDef *USBx)
1441:Drivers/STM32F2xx_HAL_Driver/Src/stm32f2xx_ll_usb.c **** {
 3381              		.loc 1 1441 1 is_stmt 1 view -0
 3382              		.cfi_startproc
 3383              		@ args = 0, pretend = 0, frame = 8
 3384              		@ frame_needed = 0, uses_anonymous_args = 0
 3385              		.loc 1 1441 1 is_stmt 0 view .LVU1042
ARM GAS  C:\Users\User\AppData\Local\Temp\ccY05dYU.s 			page 102


 3386 0000 30B5     		push	{r4, r5, lr}
 3387              	.LCFI42:
 3388              		.cfi_def_cfa_offset 12
 3389              		.cfi_offset 4, -12
 3390              		.cfi_offset 5, -8
 3391              		.cfi_offset 14, -4
 3392 0002 83B0     		sub	sp, sp, #12
 3393              	.LCFI43:
 3394              		.cfi_def_cfa_offset 24
 3395 0004 0446     		mov	r4, r0
1442:Drivers/STM32F2xx_HAL_Driver/Src/stm32f2xx_ll_usb.c ****   uint32_t USBx_BASE = (uint32_t)USBx;
 3396              		.loc 1 1442 3 is_stmt 1 view .LVU1043
 3397              	.LVL293:
1443:Drivers/STM32F2xx_HAL_Driver/Src/stm32f2xx_ll_usb.c **** 
1444:Drivers/STM32F2xx_HAL_Driver/Src/stm32f2xx_ll_usb.c ****   __IO uint32_t hprt0 = 0U;
 3398              		.loc 1 1444 3 view .LVU1044
 3399              		.loc 1 1444 17 is_stmt 0 view .LVU1045
 3400 0006 0025     		movs	r5, #0
 3401 0008 0195     		str	r5, [sp, #4]
1445:Drivers/STM32F2xx_HAL_Driver/Src/stm32f2xx_ll_usb.c **** 
1446:Drivers/STM32F2xx_HAL_Driver/Src/stm32f2xx_ll_usb.c ****   hprt0 = USBx_HPRT0;
 3402              		.loc 1 1446 3 is_stmt 1 view .LVU1046
 3403              		.loc 1 1446 11 is_stmt 0 view .LVU1047
 3404 000a D0F84034 		ldr	r3, [r0, #1088]
 3405              		.loc 1 1446 9 view .LVU1048
 3406 000e 0193     		str	r3, [sp, #4]
1447:Drivers/STM32F2xx_HAL_Driver/Src/stm32f2xx_ll_usb.c **** 
1448:Drivers/STM32F2xx_HAL_Driver/Src/stm32f2xx_ll_usb.c ****   hprt0 &= ~(USB_OTG_HPRT_PENA | USB_OTG_HPRT_PCDET |
 3407              		.loc 1 1448 3 is_stmt 1 view .LVU1049
 3408              		.loc 1 1448 9 is_stmt 0 view .LVU1050
 3409 0010 019B     		ldr	r3, [sp, #4]
 3410 0012 23F02E03 		bic	r3, r3, #46
 3411 0016 0193     		str	r3, [sp, #4]
1449:Drivers/STM32F2xx_HAL_Driver/Src/stm32f2xx_ll_usb.c ****              USB_OTG_HPRT_PENCHNG | USB_OTG_HPRT_POCCHNG);
1450:Drivers/STM32F2xx_HAL_Driver/Src/stm32f2xx_ll_usb.c **** 
1451:Drivers/STM32F2xx_HAL_Driver/Src/stm32f2xx_ll_usb.c ****   USBx_HPRT0 = (USB_OTG_HPRT_PRST | hprt0);
 3412              		.loc 1 1451 3 is_stmt 1 view .LVU1051
 3413              		.loc 1 1451 35 is_stmt 0 view .LVU1052
 3414 0018 019B     		ldr	r3, [sp, #4]
 3415 001a 43F48073 		orr	r3, r3, #256
 3416              		.loc 1 1451 14 view .LVU1053
 3417 001e C0F84034 		str	r3, [r0, #1088]
1452:Drivers/STM32F2xx_HAL_Driver/Src/stm32f2xx_ll_usb.c ****   HAL_Delay(100U);                                 /* See Note #1 */
 3418              		.loc 1 1452 3 is_stmt 1 view .LVU1054
 3419 0022 6420     		movs	r0, #100
 3420              	.LVL294:
 3421              		.loc 1 1452 3 is_stmt 0 view .LVU1055
 3422 0024 FFF7FEFF 		bl	HAL_Delay
 3423              	.LVL295:
1453:Drivers/STM32F2xx_HAL_Driver/Src/stm32f2xx_ll_usb.c ****   USBx_HPRT0 = ((~USB_OTG_HPRT_PRST) & hprt0);
 3424              		.loc 1 1453 3 is_stmt 1 view .LVU1056
 3425              		.loc 1 1453 38 is_stmt 0 view .LVU1057
 3426 0028 019B     		ldr	r3, [sp, #4]
 3427 002a 23F48073 		bic	r3, r3, #256
 3428              		.loc 1 1453 14 view .LVU1058
 3429 002e C4F84034 		str	r3, [r4, #1088]
1454:Drivers/STM32F2xx_HAL_Driver/Src/stm32f2xx_ll_usb.c ****   HAL_Delay(10U);
ARM GAS  C:\Users\User\AppData\Local\Temp\ccY05dYU.s 			page 103


 3430              		.loc 1 1454 3 is_stmt 1 view .LVU1059
 3431 0032 0A20     		movs	r0, #10
 3432 0034 FFF7FEFF 		bl	HAL_Delay
 3433              	.LVL296:
1455:Drivers/STM32F2xx_HAL_Driver/Src/stm32f2xx_ll_usb.c **** 
1456:Drivers/STM32F2xx_HAL_Driver/Src/stm32f2xx_ll_usb.c ****   return HAL_OK;
 3434              		.loc 1 1456 3 view .LVU1060
1457:Drivers/STM32F2xx_HAL_Driver/Src/stm32f2xx_ll_usb.c **** }
 3435              		.loc 1 1457 1 is_stmt 0 view .LVU1061
 3436 0038 2846     		mov	r0, r5
 3437 003a 03B0     		add	sp, sp, #12
 3438              	.LCFI44:
 3439              		.cfi_def_cfa_offset 12
 3440              		@ sp needed
 3441 003c 30BD     		pop	{r4, r5, pc}
 3442              		.loc 1 1457 1 view .LVU1062
 3443              		.cfi_endproc
 3444              	.LFE108:
 3446              		.section	.text.USB_DriveVbus,"ax",%progbits
 3447              		.align	1
 3448              		.global	USB_DriveVbus
 3449              		.syntax unified
 3450              		.thumb
 3451              		.thumb_func
 3452              		.fpu softvfp
 3454              	USB_DriveVbus:
 3455              	.LVL297:
 3456              	.LFB109:
1458:Drivers/STM32F2xx_HAL_Driver/Src/stm32f2xx_ll_usb.c **** 
1459:Drivers/STM32F2xx_HAL_Driver/Src/stm32f2xx_ll_usb.c **** /**
1460:Drivers/STM32F2xx_HAL_Driver/Src/stm32f2xx_ll_usb.c ****   * @brief  USB_DriveVbus : activate or de-activate vbus
1461:Drivers/STM32F2xx_HAL_Driver/Src/stm32f2xx_ll_usb.c ****   * @param  state  VBUS state
1462:Drivers/STM32F2xx_HAL_Driver/Src/stm32f2xx_ll_usb.c ****   *          This parameter can be one of these values:
1463:Drivers/STM32F2xx_HAL_Driver/Src/stm32f2xx_ll_usb.c ****   *           0 : VBUS Active
1464:Drivers/STM32F2xx_HAL_Driver/Src/stm32f2xx_ll_usb.c ****   *           1 : VBUS Inactive
1465:Drivers/STM32F2xx_HAL_Driver/Src/stm32f2xx_ll_usb.c ****   * @retval HAL status
1466:Drivers/STM32F2xx_HAL_Driver/Src/stm32f2xx_ll_usb.c **** */
1467:Drivers/STM32F2xx_HAL_Driver/Src/stm32f2xx_ll_usb.c **** HAL_StatusTypeDef USB_DriveVbus(USB_OTG_GlobalTypeDef *USBx, uint8_t state)
1468:Drivers/STM32F2xx_HAL_Driver/Src/stm32f2xx_ll_usb.c **** {
 3457              		.loc 1 1468 1 is_stmt 1 view -0
 3458              		.cfi_startproc
 3459              		@ args = 0, pretend = 0, frame = 8
 3460              		@ frame_needed = 0, uses_anonymous_args = 0
 3461              		@ link register save eliminated.
 3462              		.loc 1 1468 1 is_stmt 0 view .LVU1064
 3463 0000 82B0     		sub	sp, sp, #8
 3464              	.LCFI45:
 3465              		.cfi_def_cfa_offset 8
1469:Drivers/STM32F2xx_HAL_Driver/Src/stm32f2xx_ll_usb.c ****   uint32_t USBx_BASE = (uint32_t)USBx;
 3466              		.loc 1 1469 3 is_stmt 1 view .LVU1065
 3467              	.LVL298:
1470:Drivers/STM32F2xx_HAL_Driver/Src/stm32f2xx_ll_usb.c ****   __IO uint32_t hprt0 = 0U;
 3468              		.loc 1 1470 3 view .LVU1066
 3469              		.loc 1 1470 17 is_stmt 0 view .LVU1067
 3470 0002 0023     		movs	r3, #0
 3471 0004 0193     		str	r3, [sp, #4]
1471:Drivers/STM32F2xx_HAL_Driver/Src/stm32f2xx_ll_usb.c **** 
ARM GAS  C:\Users\User\AppData\Local\Temp\ccY05dYU.s 			page 104


1472:Drivers/STM32F2xx_HAL_Driver/Src/stm32f2xx_ll_usb.c ****   hprt0 = USBx_HPRT0;
 3472              		.loc 1 1472 3 is_stmt 1 view .LVU1068
 3473              		.loc 1 1472 11 is_stmt 0 view .LVU1069
 3474 0006 D0F84034 		ldr	r3, [r0, #1088]
 3475              		.loc 1 1472 9 view .LVU1070
 3476 000a 0193     		str	r3, [sp, #4]
1473:Drivers/STM32F2xx_HAL_Driver/Src/stm32f2xx_ll_usb.c **** 
1474:Drivers/STM32F2xx_HAL_Driver/Src/stm32f2xx_ll_usb.c ****   hprt0 &= ~(USB_OTG_HPRT_PENA | USB_OTG_HPRT_PCDET |
 3477              		.loc 1 1474 3 is_stmt 1 view .LVU1071
 3478              		.loc 1 1474 9 is_stmt 0 view .LVU1072
 3479 000c 019B     		ldr	r3, [sp, #4]
 3480 000e 23F02E03 		bic	r3, r3, #46
 3481 0012 0193     		str	r3, [sp, #4]
1475:Drivers/STM32F2xx_HAL_Driver/Src/stm32f2xx_ll_usb.c ****              USB_OTG_HPRT_PENCHNG | USB_OTG_HPRT_POCCHNG);
1476:Drivers/STM32F2xx_HAL_Driver/Src/stm32f2xx_ll_usb.c **** 
1477:Drivers/STM32F2xx_HAL_Driver/Src/stm32f2xx_ll_usb.c ****   if (((hprt0 & USB_OTG_HPRT_PPWR) == 0U) && (state == 1U))
 3482              		.loc 1 1477 3 is_stmt 1 view .LVU1073
 3483              		.loc 1 1477 15 is_stmt 0 view .LVU1074
 3484 0014 019B     		ldr	r3, [sp, #4]
 3485              		.loc 1 1477 6 view .LVU1075
 3486 0016 13F4805F 		tst	r3, #4096
 3487 001a 01D1     		bne	.L221
 3488              		.loc 1 1477 43 discriminator 1 view .LVU1076
 3489 001c 0129     		cmp	r1, #1
 3490 001e 0CD0     		beq	.L224
 3491              	.L221:
1478:Drivers/STM32F2xx_HAL_Driver/Src/stm32f2xx_ll_usb.c ****   {
1479:Drivers/STM32F2xx_HAL_Driver/Src/stm32f2xx_ll_usb.c ****     USBx_HPRT0 = (USB_OTG_HPRT_PPWR | hprt0);
1480:Drivers/STM32F2xx_HAL_Driver/Src/stm32f2xx_ll_usb.c ****   }
1481:Drivers/STM32F2xx_HAL_Driver/Src/stm32f2xx_ll_usb.c ****   if (((hprt0 & USB_OTG_HPRT_PPWR) == USB_OTG_HPRT_PPWR) && (state == 0U))
 3492              		.loc 1 1481 3 is_stmt 1 view .LVU1077
 3493              		.loc 1 1481 15 is_stmt 0 view .LVU1078
 3494 0020 019B     		ldr	r3, [sp, #4]
 3495              		.loc 1 1481 6 view .LVU1079
 3496 0022 13F4805F 		tst	r3, #4096
 3497 0026 05D0     		beq	.L222
 3498              		.loc 1 1481 58 discriminator 1 view .LVU1080
 3499 0028 21B9     		cbnz	r1, .L222
1482:Drivers/STM32F2xx_HAL_Driver/Src/stm32f2xx_ll_usb.c ****   {
1483:Drivers/STM32F2xx_HAL_Driver/Src/stm32f2xx_ll_usb.c ****     USBx_HPRT0 = ((~USB_OTG_HPRT_PPWR) & hprt0);
 3500              		.loc 1 1483 5 is_stmt 1 view .LVU1081
 3501              		.loc 1 1483 40 is_stmt 0 view .LVU1082
 3502 002a 019B     		ldr	r3, [sp, #4]
 3503 002c 23F48053 		bic	r3, r3, #4096
 3504              		.loc 1 1483 16 view .LVU1083
 3505 0030 C0F84034 		str	r3, [r0, #1088]
 3506              	.L222:
1484:Drivers/STM32F2xx_HAL_Driver/Src/stm32f2xx_ll_usb.c ****   }
1485:Drivers/STM32F2xx_HAL_Driver/Src/stm32f2xx_ll_usb.c ****   return HAL_OK;
 3507              		.loc 1 1485 3 is_stmt 1 view .LVU1084
1486:Drivers/STM32F2xx_HAL_Driver/Src/stm32f2xx_ll_usb.c **** }
 3508              		.loc 1 1486 1 is_stmt 0 view .LVU1085
 3509 0034 0020     		movs	r0, #0
 3510              	.LVL299:
 3511              		.loc 1 1486 1 view .LVU1086
 3512 0036 02B0     		add	sp, sp, #8
 3513              	.LCFI46:
ARM GAS  C:\Users\User\AppData\Local\Temp\ccY05dYU.s 			page 105


 3514              		.cfi_remember_state
 3515              		.cfi_def_cfa_offset 0
 3516              		@ sp needed
 3517 0038 7047     		bx	lr
 3518              	.LVL300:
 3519              	.L224:
 3520              	.LCFI47:
 3521              		.cfi_restore_state
1479:Drivers/STM32F2xx_HAL_Driver/Src/stm32f2xx_ll_usb.c ****   }
 3522              		.loc 1 1479 5 is_stmt 1 view .LVU1087
1479:Drivers/STM32F2xx_HAL_Driver/Src/stm32f2xx_ll_usb.c ****   }
 3523              		.loc 1 1479 37 is_stmt 0 view .LVU1088
 3524 003a 019B     		ldr	r3, [sp, #4]
 3525 003c 43F48053 		orr	r3, r3, #4096
1479:Drivers/STM32F2xx_HAL_Driver/Src/stm32f2xx_ll_usb.c ****   }
 3526              		.loc 1 1479 16 view .LVU1089
 3527 0040 C0F84034 		str	r3, [r0, #1088]
 3528 0044 ECE7     		b	.L221
 3529              		.cfi_endproc
 3530              	.LFE109:
 3532              		.section	.text.USB_HostInit,"ax",%progbits
 3533              		.align	1
 3534              		.global	USB_HostInit
 3535              		.syntax unified
 3536              		.thumb
 3537              		.thumb_func
 3538              		.fpu softvfp
 3540              	USB_HostInit:
 3541              	.LVL301:
 3542              	.LFB106:
1318:Drivers/STM32F2xx_HAL_Driver/Src/stm32f2xx_ll_usb.c ****   uint32_t USBx_BASE = (uint32_t)USBx;
 3543              		.loc 1 1318 1 is_stmt 1 view -0
 3544              		.cfi_startproc
 3545              		@ args = 56, pretend = 16, frame = 0
 3546              		@ frame_needed = 0, uses_anonymous_args = 0
1318:Drivers/STM32F2xx_HAL_Driver/Src/stm32f2xx_ll_usb.c ****   uint32_t USBx_BASE = (uint32_t)USBx;
 3547              		.loc 1 1318 1 is_stmt 0 view .LVU1091
 3548 0000 84B0     		sub	sp, sp, #16
 3549              	.LCFI48:
 3550              		.cfi_def_cfa_offset 16
 3551 0002 38B5     		push	{r3, r4, r5, lr}
 3552              	.LCFI49:
 3553              		.cfi_def_cfa_offset 32
 3554              		.cfi_offset 3, -32
 3555              		.cfi_offset 4, -28
 3556              		.cfi_offset 5, -24
 3557              		.cfi_offset 14, -20
 3558 0004 0446     		mov	r4, r0
 3559 0006 05A8     		add	r0, sp, #20
 3560              	.LVL302:
1318:Drivers/STM32F2xx_HAL_Driver/Src/stm32f2xx_ll_usb.c ****   uint32_t USBx_BASE = (uint32_t)USBx;
 3561              		.loc 1 1318 1 view .LVU1092
 3562 0008 80E80E00 		stm	r0, {r1, r2, r3}
1319:Drivers/STM32F2xx_HAL_Driver/Src/stm32f2xx_ll_usb.c ****   uint32_t i;
 3563              		.loc 1 1319 3 is_stmt 1 view .LVU1093
1319:Drivers/STM32F2xx_HAL_Driver/Src/stm32f2xx_ll_usb.c ****   uint32_t i;
 3564              		.loc 1 1319 12 is_stmt 0 view .LVU1094
ARM GAS  C:\Users\User\AppData\Local\Temp\ccY05dYU.s 			page 106


 3565 000c 2546     		mov	r5, r4
 3566              	.LVL303:
1320:Drivers/STM32F2xx_HAL_Driver/Src/stm32f2xx_ll_usb.c **** 
 3567              		.loc 1 1320 3 is_stmt 1 view .LVU1095
1323:Drivers/STM32F2xx_HAL_Driver/Src/stm32f2xx_ll_usb.c **** 
 3568              		.loc 1 1323 3 view .LVU1096
1323:Drivers/STM32F2xx_HAL_Driver/Src/stm32f2xx_ll_usb.c **** 
 3569              		.loc 1 1323 16 is_stmt 0 view .LVU1097
 3570 000e 0023     		movs	r3, #0
 3571 0010 C4F8003E 		str	r3, [r4, #3584]
1326:Drivers/STM32F2xx_HAL_Driver/Src/stm32f2xx_ll_usb.c ****   USBx->GCCFG &= ~(USB_OTG_GCCFG_VBUSASEN);
 3572              		.loc 1 1326 3 is_stmt 1 view .LVU1098
1326:Drivers/STM32F2xx_HAL_Driver/Src/stm32f2xx_ll_usb.c ****   USBx->GCCFG &= ~(USB_OTG_GCCFG_VBUSASEN);
 3573              		.loc 1 1326 15 is_stmt 0 view .LVU1099
 3574 0014 A36B     		ldr	r3, [r4, #56]
 3575 0016 43F40013 		orr	r3, r3, #2097152
 3576 001a A363     		str	r3, [r4, #56]
1327:Drivers/STM32F2xx_HAL_Driver/Src/stm32f2xx_ll_usb.c ****   USBx->GCCFG &= ~(USB_OTG_GCCFG_VBUSBSEN);
 3577              		.loc 1 1327 3 is_stmt 1 view .LVU1100
1327:Drivers/STM32F2xx_HAL_Driver/Src/stm32f2xx_ll_usb.c ****   USBx->GCCFG &= ~(USB_OTG_GCCFG_VBUSBSEN);
 3578              		.loc 1 1327 15 is_stmt 0 view .LVU1101
 3579 001c A36B     		ldr	r3, [r4, #56]
 3580 001e 23F48023 		bic	r3, r3, #262144
 3581 0022 A363     		str	r3, [r4, #56]
1328:Drivers/STM32F2xx_HAL_Driver/Src/stm32f2xx_ll_usb.c **** 
 3582              		.loc 1 1328 3 is_stmt 1 view .LVU1102
1328:Drivers/STM32F2xx_HAL_Driver/Src/stm32f2xx_ll_usb.c **** 
 3583              		.loc 1 1328 15 is_stmt 0 view .LVU1103
 3584 0024 A36B     		ldr	r3, [r4, #56]
 3585 0026 23F40023 		bic	r3, r3, #524288
 3586 002a A363     		str	r3, [r4, #56]
1330:Drivers/STM32F2xx_HAL_Driver/Src/stm32f2xx_ll_usb.c ****   {
 3587              		.loc 1 1330 3 is_stmt 1 view .LVU1104
1330:Drivers/STM32F2xx_HAL_Driver/Src/stm32f2xx_ll_usb.c ****   {
 3588              		.loc 1 1330 12 is_stmt 0 view .LVU1105
 3589 002c E36B     		ldr	r3, [r4, #60]
1330:Drivers/STM32F2xx_HAL_Driver/Src/stm32f2xx_ll_usb.c ****   {
 3590              		.loc 1 1330 6 view .LVU1106
 3591 002e 13F4807F 		tst	r3, #256
 3592 0032 10D0     		beq	.L226
1332:Drivers/STM32F2xx_HAL_Driver/Src/stm32f2xx_ll_usb.c ****     {
 3593              		.loc 1 1332 5 is_stmt 1 view .LVU1107
1332:Drivers/STM32F2xx_HAL_Driver/Src/stm32f2xx_ll_usb.c ****     {
 3594              		.loc 1 1332 12 is_stmt 0 view .LVU1108
 3595 0034 079B     		ldr	r3, [sp, #28]
1332:Drivers/STM32F2xx_HAL_Driver/Src/stm32f2xx_ll_usb.c ****     {
 3596              		.loc 1 1332 8 view .LVU1109
 3597 0036 032B     		cmp	r3, #3
 3598 0038 06D0     		beq	.L235
1340:Drivers/STM32F2xx_HAL_Driver/Src/stm32f2xx_ll_usb.c ****     }
 3599              		.loc 1 1340 7 is_stmt 1 view .LVU1110
1340:Drivers/STM32F2xx_HAL_Driver/Src/stm32f2xx_ll_usb.c ****     }
 3600              		.loc 1 1340 23 is_stmt 0 view .LVU1111
 3601 003a D4F80034 		ldr	r3, [r4, #1024]
 3602 003e 23F00403 		bic	r3, r3, #4
 3603 0042 C4F80034 		str	r3, [r4, #1024]
 3604 0046 0CE0     		b	.L228
ARM GAS  C:\Users\User\AppData\Local\Temp\ccY05dYU.s 			page 107


 3605              	.L235:
1335:Drivers/STM32F2xx_HAL_Driver/Src/stm32f2xx_ll_usb.c ****     }
 3606              		.loc 1 1335 7 is_stmt 1 view .LVU1112
1335:Drivers/STM32F2xx_HAL_Driver/Src/stm32f2xx_ll_usb.c ****     }
 3607              		.loc 1 1335 23 is_stmt 0 view .LVU1113
 3608 0048 D4F80034 		ldr	r3, [r4, #1024]
 3609 004c 43F00403 		orr	r3, r3, #4
 3610 0050 C4F80034 		str	r3, [r4, #1024]
 3611 0054 05E0     		b	.L228
 3612              	.L226:
1346:Drivers/STM32F2xx_HAL_Driver/Src/stm32f2xx_ll_usb.c ****   }
 3613              		.loc 1 1346 5 is_stmt 1 view .LVU1114
1346:Drivers/STM32F2xx_HAL_Driver/Src/stm32f2xx_ll_usb.c ****   }
 3614              		.loc 1 1346 21 is_stmt 0 view .LVU1115
 3615 0056 D4F80034 		ldr	r3, [r4, #1024]
 3616 005a 23F00403 		bic	r3, r3, #4
 3617 005e C4F80034 		str	r3, [r4, #1024]
 3618              	.L228:
1350:Drivers/STM32F2xx_HAL_Driver/Src/stm32f2xx_ll_usb.c ****   (void)USB_FlushRxFifo(USBx);
 3619              		.loc 1 1350 3 is_stmt 1 view .LVU1116
1350:Drivers/STM32F2xx_HAL_Driver/Src/stm32f2xx_ll_usb.c ****   (void)USB_FlushRxFifo(USBx);
 3620              		.loc 1 1350 9 is_stmt 0 view .LVU1117
 3621 0062 1021     		movs	r1, #16
 3622 0064 2046     		mov	r0, r4
 3623 0066 FFF7FEFF 		bl	USB_FlushTxFifo
 3624              	.LVL304:
1351:Drivers/STM32F2xx_HAL_Driver/Src/stm32f2xx_ll_usb.c **** 
 3625              		.loc 1 1351 3 is_stmt 1 view .LVU1118
1351:Drivers/STM32F2xx_HAL_Driver/Src/stm32f2xx_ll_usb.c **** 
 3626              		.loc 1 1351 9 is_stmt 0 view .LVU1119
 3627 006a 2046     		mov	r0, r4
 3628 006c FFF7FEFF 		bl	USB_FlushRxFifo
 3629              	.LVL305:
1354:Drivers/STM32F2xx_HAL_Driver/Src/stm32f2xx_ll_usb.c ****   {
 3630              		.loc 1 1354 3 is_stmt 1 view .LVU1120
1354:Drivers/STM32F2xx_HAL_Driver/Src/stm32f2xx_ll_usb.c ****   {
 3631              		.loc 1 1354 10 is_stmt 0 view .LVU1121
 3632 0070 0022     		movs	r2, #0
 3633              	.LVL306:
 3634              	.L229:
1354:Drivers/STM32F2xx_HAL_Driver/Src/stm32f2xx_ll_usb.c ****   {
 3635              		.loc 1 1354 23 discriminator 1 view .LVU1122
 3636 0072 069B     		ldr	r3, [sp, #24]
1354:Drivers/STM32F2xx_HAL_Driver/Src/stm32f2xx_ll_usb.c ****   {
 3637              		.loc 1 1354 3 discriminator 1 view .LVU1123
 3638 0074 9342     		cmp	r3, r2
 3639 0076 0AD9     		bls	.L236
1356:Drivers/STM32F2xx_HAL_Driver/Src/stm32f2xx_ll_usb.c ****     USBx_HC(i)->HCINTMSK = 0U;
 3640              		.loc 1 1356 5 is_stmt 1 discriminator 3 view .LVU1124
 3641 0078 05EB4213 		add	r3, r5, r2, lsl #5
1356:Drivers/STM32F2xx_HAL_Driver/Src/stm32f2xx_ll_usb.c ****     USBx_HC(i)->HCINTMSK = 0U;
 3642              		.loc 1 1356 23 is_stmt 0 discriminator 3 view .LVU1125
 3643 007c 4FF0FF31 		mov	r1, #-1
 3644 0080 C3F80815 		str	r1, [r3, #1288]
1357:Drivers/STM32F2xx_HAL_Driver/Src/stm32f2xx_ll_usb.c ****   }
 3645              		.loc 1 1357 5 is_stmt 1 discriminator 3 view .LVU1126
1357:Drivers/STM32F2xx_HAL_Driver/Src/stm32f2xx_ll_usb.c ****   }
ARM GAS  C:\Users\User\AppData\Local\Temp\ccY05dYU.s 			page 108


 3646              		.loc 1 1357 26 is_stmt 0 discriminator 3 view .LVU1127
 3647 0084 0021     		movs	r1, #0
 3648 0086 C3F80C15 		str	r1, [r3, #1292]
1354:Drivers/STM32F2xx_HAL_Driver/Src/stm32f2xx_ll_usb.c ****   {
 3649              		.loc 1 1354 40 discriminator 3 view .LVU1128
 3650 008a 0132     		adds	r2, r2, #1
 3651              	.LVL307:
1354:Drivers/STM32F2xx_HAL_Driver/Src/stm32f2xx_ll_usb.c ****   {
 3652              		.loc 1 1354 40 discriminator 3 view .LVU1129
 3653 008c F1E7     		b	.L229
 3654              	.L236:
1361:Drivers/STM32F2xx_HAL_Driver/Src/stm32f2xx_ll_usb.c **** 
 3655              		.loc 1 1361 3 is_stmt 1 view .LVU1130
1361:Drivers/STM32F2xx_HAL_Driver/Src/stm32f2xx_ll_usb.c **** 
 3656              		.loc 1 1361 9 is_stmt 0 view .LVU1131
 3657 008e 0121     		movs	r1, #1
 3658 0090 2046     		mov	r0, r4
 3659 0092 FFF7FEFF 		bl	USB_DriveVbus
 3660              	.LVL308:
1363:Drivers/STM32F2xx_HAL_Driver/Src/stm32f2xx_ll_usb.c **** 
 3661              		.loc 1 1363 3 is_stmt 1 view .LVU1132
 3662 0096 C820     		movs	r0, #200
 3663 0098 FFF7FEFF 		bl	HAL_Delay
 3664              	.LVL309:
1366:Drivers/STM32F2xx_HAL_Driver/Src/stm32f2xx_ll_usb.c **** 
 3665              		.loc 1 1366 3 view .LVU1133
1366:Drivers/STM32F2xx_HAL_Driver/Src/stm32f2xx_ll_usb.c **** 
 3666              		.loc 1 1366 17 is_stmt 0 view .LVU1134
 3667 009c 0023     		movs	r3, #0
 3668 009e A361     		str	r3, [r4, #24]
1369:Drivers/STM32F2xx_HAL_Driver/Src/stm32f2xx_ll_usb.c **** 
 3669              		.loc 1 1369 3 is_stmt 1 view .LVU1135
1369:Drivers/STM32F2xx_HAL_Driver/Src/stm32f2xx_ll_usb.c **** 
 3670              		.loc 1 1369 17 is_stmt 0 view .LVU1136
 3671 00a0 4FF0FF33 		mov	r3, #-1
 3672 00a4 6361     		str	r3, [r4, #20]
1371:Drivers/STM32F2xx_HAL_Driver/Src/stm32f2xx_ll_usb.c ****   {
 3673              		.loc 1 1371 3 is_stmt 1 view .LVU1137
1371:Drivers/STM32F2xx_HAL_Driver/Src/stm32f2xx_ll_usb.c ****   {
 3674              		.loc 1 1371 12 is_stmt 0 view .LVU1138
 3675 00a6 E36B     		ldr	r3, [r4, #60]
1371:Drivers/STM32F2xx_HAL_Driver/Src/stm32f2xx_ll_usb.c ****   {
 3676              		.loc 1 1371 6 view .LVU1139
 3677 00a8 13F4807F 		tst	r3, #256
 3678 00ac 17D0     		beq	.L231
1374:Drivers/STM32F2xx_HAL_Driver/Src/stm32f2xx_ll_usb.c ****     USBx->DIEPTXF0_HNPTXFSIZ = (uint32_t)(((0x100U << 16) & USB_OTG_NPTXFD) | 0x200U);
 3679              		.loc 1 1374 5 is_stmt 1 view .LVU1140
1374:Drivers/STM32F2xx_HAL_Driver/Src/stm32f2xx_ll_usb.c ****     USBx->DIEPTXF0_HNPTXFSIZ = (uint32_t)(((0x100U << 16) & USB_OTG_NPTXFD) | 0x200U);
 3680              		.loc 1 1374 20 is_stmt 0 view .LVU1141
 3681 00ae 4FF40073 		mov	r3, #512
 3682 00b2 6362     		str	r3, [r4, #36]
1375:Drivers/STM32F2xx_HAL_Driver/Src/stm32f2xx_ll_usb.c ****     USBx->HPTXFSIZ = (uint32_t)(((0xE0U << 16) & USB_OTG_HPTXFSIZ_PTXFD) | 0x300U);
 3683              		.loc 1 1375 5 is_stmt 1 view .LVU1142
1375:Drivers/STM32F2xx_HAL_Driver/Src/stm32f2xx_ll_usb.c ****     USBx->HPTXFSIZ = (uint32_t)(((0xE0U << 16) & USB_OTG_HPTXFSIZ_PTXFD) | 0x300U);
 3684              		.loc 1 1375 30 is_stmt 0 view .LVU1143
 3685 00b4 03F18073 		add	r3, r3, #16777216
 3686 00b8 A362     		str	r3, [r4, #40]
ARM GAS  C:\Users\User\AppData\Local\Temp\ccY05dYU.s 			page 109


1376:Drivers/STM32F2xx_HAL_Driver/Src/stm32f2xx_ll_usb.c ****   }
 3687              		.loc 1 1376 5 is_stmt 1 view .LVU1144
1376:Drivers/STM32F2xx_HAL_Driver/Src/stm32f2xx_ll_usb.c ****   }
 3688              		.loc 1 1376 20 is_stmt 0 view .LVU1145
 3689 00ba 0D4B     		ldr	r3, .L237
 3690 00bc C4F80031 		str	r3, [r4, #256]
 3691              	.L232:
1387:Drivers/STM32F2xx_HAL_Driver/Src/stm32f2xx_ll_usb.c ****   {
 3692              		.loc 1 1387 3 is_stmt 1 view .LVU1146
1387:Drivers/STM32F2xx_HAL_Driver/Src/stm32f2xx_ll_usb.c ****   {
 3693              		.loc 1 1387 10 is_stmt 0 view .LVU1147
 3694 00c0 089B     		ldr	r3, [sp, #32]
1387:Drivers/STM32F2xx_HAL_Driver/Src/stm32f2xx_ll_usb.c ****   {
 3695              		.loc 1 1387 6 view .LVU1148
 3696 00c2 1BB9     		cbnz	r3, .L233
1389:Drivers/STM32F2xx_HAL_Driver/Src/stm32f2xx_ll_usb.c ****   }
 3697              		.loc 1 1389 5 is_stmt 1 view .LVU1149
1389:Drivers/STM32F2xx_HAL_Driver/Src/stm32f2xx_ll_usb.c ****   }
 3698              		.loc 1 1389 19 is_stmt 0 view .LVU1150
 3699 00c4 A369     		ldr	r3, [r4, #24]
 3700 00c6 43F01003 		orr	r3, r3, #16
 3701 00ca A361     		str	r3, [r4, #24]
 3702              	.L233:
1393:Drivers/STM32F2xx_HAL_Driver/Src/stm32f2xx_ll_usb.c ****                     USB_OTG_GINTMSK_SOFM             | USB_OTG_GINTSTS_DISCINT | \
 3703              		.loc 1 1393 3 is_stmt 1 view .LVU1151
1393:Drivers/STM32F2xx_HAL_Driver/Src/stm32f2xx_ll_usb.c ****                     USB_OTG_GINTMSK_SOFM             | USB_OTG_GINTSTS_DISCINT | \
 3704              		.loc 1 1393 17 is_stmt 0 view .LVU1152
 3705 00cc A269     		ldr	r2, [r4, #24]
 3706 00ce 094B     		ldr	r3, .L237+4
 3707 00d0 1343     		orrs	r3, r3, r2
 3708 00d2 A361     		str	r3, [r4, #24]
1397:Drivers/STM32F2xx_HAL_Driver/Src/stm32f2xx_ll_usb.c **** }
 3709              		.loc 1 1397 3 is_stmt 1 view .LVU1153
1398:Drivers/STM32F2xx_HAL_Driver/Src/stm32f2xx_ll_usb.c **** 
 3710              		.loc 1 1398 1 is_stmt 0 view .LVU1154
 3711 00d4 0020     		movs	r0, #0
 3712 00d6 BDE83840 		pop	{r3, r4, r5, lr}
 3713              	.LCFI50:
 3714              		.cfi_remember_state
 3715              		.cfi_restore 14
 3716              		.cfi_restore 5
 3717              		.cfi_restore 4
 3718              		.cfi_restore 3
 3719              		.cfi_def_cfa_offset 16
 3720              	.LVL310:
1398:Drivers/STM32F2xx_HAL_Driver/Src/stm32f2xx_ll_usb.c **** 
 3721              		.loc 1 1398 1 view .LVU1155
 3722 00da 04B0     		add	sp, sp, #16
 3723              	.LCFI51:
 3724              		.cfi_def_cfa_offset 0
 3725 00dc 7047     		bx	lr
 3726              	.LVL311:
 3727              	.L231:
 3728              	.LCFI52:
 3729              		.cfi_restore_state
1381:Drivers/STM32F2xx_HAL_Driver/Src/stm32f2xx_ll_usb.c ****     USBx->DIEPTXF0_HNPTXFSIZ = (uint32_t)(((0x60U << 16) & USB_OTG_NPTXFD) | 0x80U);
 3730              		.loc 1 1381 5 is_stmt 1 view .LVU1156
ARM GAS  C:\Users\User\AppData\Local\Temp\ccY05dYU.s 			page 110


1381:Drivers/STM32F2xx_HAL_Driver/Src/stm32f2xx_ll_usb.c ****     USBx->DIEPTXF0_HNPTXFSIZ = (uint32_t)(((0x60U << 16) & USB_OTG_NPTXFD) | 0x80U);
 3731              		.loc 1 1381 20 is_stmt 0 view .LVU1157
 3732 00de 8023     		movs	r3, #128
 3733 00e0 6362     		str	r3, [r4, #36]
1382:Drivers/STM32F2xx_HAL_Driver/Src/stm32f2xx_ll_usb.c ****     USBx->HPTXFSIZ = (uint32_t)(((0x40U << 16)& USB_OTG_HPTXFSIZ_PTXFD) | 0xE0U);
 3734              		.loc 1 1382 5 is_stmt 1 view .LVU1158
1382:Drivers/STM32F2xx_HAL_Driver/Src/stm32f2xx_ll_usb.c ****     USBx->HPTXFSIZ = (uint32_t)(((0x40U << 16)& USB_OTG_HPTXFSIZ_PTXFD) | 0xE0U);
 3735              		.loc 1 1382 30 is_stmt 0 view .LVU1159
 3736 00e2 03F5C003 		add	r3, r3, #6291456
 3737 00e6 A362     		str	r3, [r4, #40]
1383:Drivers/STM32F2xx_HAL_Driver/Src/stm32f2xx_ll_usb.c ****   }
 3738              		.loc 1 1383 5 is_stmt 1 view .LVU1160
1383:Drivers/STM32F2xx_HAL_Driver/Src/stm32f2xx_ll_usb.c ****   }
 3739              		.loc 1 1383 20 is_stmt 0 view .LVU1161
 3740 00e8 034B     		ldr	r3, .L237+8
 3741 00ea C4F80031 		str	r3, [r4, #256]
 3742 00ee E7E7     		b	.L232
 3743              	.L238:
 3744              		.align	2
 3745              	.L237:
 3746 00f0 0003E000 		.word	14680832
 3747 00f4 080020A3 		.word	-1558183928
 3748 00f8 E0004000 		.word	4194528
 3749              		.cfi_endproc
 3750              	.LFE106:
 3752              		.section	.text.USB_GetHostSpeed,"ax",%progbits
 3753              		.align	1
 3754              		.global	USB_GetHostSpeed
 3755              		.syntax unified
 3756              		.thumb
 3757              		.thumb_func
 3758              		.fpu softvfp
 3760              	USB_GetHostSpeed:
 3761              	.LVL312:
 3762              	.LFB110:
1487:Drivers/STM32F2xx_HAL_Driver/Src/stm32f2xx_ll_usb.c **** 
1488:Drivers/STM32F2xx_HAL_Driver/Src/stm32f2xx_ll_usb.c **** /**
1489:Drivers/STM32F2xx_HAL_Driver/Src/stm32f2xx_ll_usb.c ****   * @brief  Return Host Core speed
1490:Drivers/STM32F2xx_HAL_Driver/Src/stm32f2xx_ll_usb.c ****   * @param  USBx  Selected device
1491:Drivers/STM32F2xx_HAL_Driver/Src/stm32f2xx_ll_usb.c ****   * @retval speed : Host speed
1492:Drivers/STM32F2xx_HAL_Driver/Src/stm32f2xx_ll_usb.c ****   *          This parameter can be one of these values:
1493:Drivers/STM32F2xx_HAL_Driver/Src/stm32f2xx_ll_usb.c ****   *            @arg HCD_SPEED_HIGH: High speed mode
1494:Drivers/STM32F2xx_HAL_Driver/Src/stm32f2xx_ll_usb.c ****   *            @arg HCD_SPEED_FULL: Full speed mode
1495:Drivers/STM32F2xx_HAL_Driver/Src/stm32f2xx_ll_usb.c ****   *            @arg HCD_SPEED_LOW: Low speed mode
1496:Drivers/STM32F2xx_HAL_Driver/Src/stm32f2xx_ll_usb.c ****   */
1497:Drivers/STM32F2xx_HAL_Driver/Src/stm32f2xx_ll_usb.c **** uint32_t USB_GetHostSpeed(USB_OTG_GlobalTypeDef *USBx)
1498:Drivers/STM32F2xx_HAL_Driver/Src/stm32f2xx_ll_usb.c **** {
 3763              		.loc 1 1498 1 is_stmt 1 view -0
 3764              		.cfi_startproc
 3765              		@ args = 0, pretend = 0, frame = 8
 3766              		@ frame_needed = 0, uses_anonymous_args = 0
 3767              		@ link register save eliminated.
 3768              		.loc 1 1498 1 is_stmt 0 view .LVU1163
 3769 0000 82B0     		sub	sp, sp, #8
 3770              	.LCFI53:
 3771              		.cfi_def_cfa_offset 8
1499:Drivers/STM32F2xx_HAL_Driver/Src/stm32f2xx_ll_usb.c ****   uint32_t USBx_BASE = (uint32_t)USBx;
ARM GAS  C:\Users\User\AppData\Local\Temp\ccY05dYU.s 			page 111


 3772              		.loc 1 1499 3 is_stmt 1 view .LVU1164
 3773              	.LVL313:
1500:Drivers/STM32F2xx_HAL_Driver/Src/stm32f2xx_ll_usb.c ****   __IO uint32_t hprt0 = 0U;
 3774              		.loc 1 1500 3 view .LVU1165
 3775              		.loc 1 1500 17 is_stmt 0 view .LVU1166
 3776 0002 0023     		movs	r3, #0
 3777 0004 0193     		str	r3, [sp, #4]
1501:Drivers/STM32F2xx_HAL_Driver/Src/stm32f2xx_ll_usb.c **** 
1502:Drivers/STM32F2xx_HAL_Driver/Src/stm32f2xx_ll_usb.c ****   hprt0 = USBx_HPRT0;
 3778              		.loc 1 1502 3 is_stmt 1 view .LVU1167
 3779              		.loc 1 1502 11 is_stmt 0 view .LVU1168
 3780 0006 D0F84034 		ldr	r3, [r0, #1088]
 3781              		.loc 1 1502 9 view .LVU1169
 3782 000a 0193     		str	r3, [sp, #4]
1503:Drivers/STM32F2xx_HAL_Driver/Src/stm32f2xx_ll_usb.c ****   return ((hprt0 & USB_OTG_HPRT_PSPD) >> 17);
 3783              		.loc 1 1503 3 is_stmt 1 view .LVU1170
 3784              		.loc 1 1503 39 is_stmt 0 view .LVU1171
 3785 000c 0198     		ldr	r0, [sp, #4]
 3786              	.LVL314:
1504:Drivers/STM32F2xx_HAL_Driver/Src/stm32f2xx_ll_usb.c **** }
 3787              		.loc 1 1504 1 view .LVU1172
 3788 000e C0F34140 		ubfx	r0, r0, #17, #2
 3789 0012 02B0     		add	sp, sp, #8
 3790              	.LCFI54:
 3791              		.cfi_def_cfa_offset 0
 3792              		@ sp needed
 3793 0014 7047     		bx	lr
 3794              		.cfi_endproc
 3795              	.LFE110:
 3797              		.section	.text.USB_GetCurrentFrame,"ax",%progbits
 3798              		.align	1
 3799              		.global	USB_GetCurrentFrame
 3800              		.syntax unified
 3801              		.thumb
 3802              		.thumb_func
 3803              		.fpu softvfp
 3805              	USB_GetCurrentFrame:
 3806              	.LVL315:
 3807              	.LFB111:
1505:Drivers/STM32F2xx_HAL_Driver/Src/stm32f2xx_ll_usb.c **** 
1506:Drivers/STM32F2xx_HAL_Driver/Src/stm32f2xx_ll_usb.c **** /**
1507:Drivers/STM32F2xx_HAL_Driver/Src/stm32f2xx_ll_usb.c ****   * @brief  Return Host Current Frame number
1508:Drivers/STM32F2xx_HAL_Driver/Src/stm32f2xx_ll_usb.c ****   * @param  USBx  Selected device
1509:Drivers/STM32F2xx_HAL_Driver/Src/stm32f2xx_ll_usb.c ****   * @retval current frame number
1510:Drivers/STM32F2xx_HAL_Driver/Src/stm32f2xx_ll_usb.c **** */
1511:Drivers/STM32F2xx_HAL_Driver/Src/stm32f2xx_ll_usb.c **** uint32_t USB_GetCurrentFrame(USB_OTG_GlobalTypeDef *USBx)
1512:Drivers/STM32F2xx_HAL_Driver/Src/stm32f2xx_ll_usb.c **** {
 3808              		.loc 1 1512 1 is_stmt 1 view -0
 3809              		.cfi_startproc
 3810              		@ args = 0, pretend = 0, frame = 0
 3811              		@ frame_needed = 0, uses_anonymous_args = 0
 3812              		@ link register save eliminated.
1513:Drivers/STM32F2xx_HAL_Driver/Src/stm32f2xx_ll_usb.c ****   uint32_t USBx_BASE = (uint32_t)USBx;
 3813              		.loc 1 1513 3 view .LVU1174
1514:Drivers/STM32F2xx_HAL_Driver/Src/stm32f2xx_ll_usb.c **** 
1515:Drivers/STM32F2xx_HAL_Driver/Src/stm32f2xx_ll_usb.c ****   return (USBx_HOST->HFNUM & USB_OTG_HFNUM_FRNUM);
 3814              		.loc 1 1515 3 view .LVU1175
ARM GAS  C:\Users\User\AppData\Local\Temp\ccY05dYU.s 			page 112


 3815              		.loc 1 1515 11 is_stmt 0 view .LVU1176
 3816 0000 00F58060 		add	r0, r0, #1024
 3817              	.LVL316:
 3818              		.loc 1 1515 20 view .LVU1177
 3819 0004 8068     		ldr	r0, [r0, #8]
 3820              	.LVL317:
1516:Drivers/STM32F2xx_HAL_Driver/Src/stm32f2xx_ll_usb.c **** }
 3821              		.loc 1 1516 1 view .LVU1178
 3822 0006 80B2     		uxth	r0, r0
 3823 0008 7047     		bx	lr
 3824              		.cfi_endproc
 3825              	.LFE111:
 3827              		.section	.text.USB_HC_Init,"ax",%progbits
 3828              		.align	1
 3829              		.global	USB_HC_Init
 3830              		.syntax unified
 3831              		.thumb
 3832              		.thumb_func
 3833              		.fpu softvfp
 3835              	USB_HC_Init:
 3836              	.LVL318:
 3837              	.LFB112:
1517:Drivers/STM32F2xx_HAL_Driver/Src/stm32f2xx_ll_usb.c **** 
1518:Drivers/STM32F2xx_HAL_Driver/Src/stm32f2xx_ll_usb.c **** /**
1519:Drivers/STM32F2xx_HAL_Driver/Src/stm32f2xx_ll_usb.c ****   * @brief  Initialize a host channel
1520:Drivers/STM32F2xx_HAL_Driver/Src/stm32f2xx_ll_usb.c ****   * @param  USBx  Selected device
1521:Drivers/STM32F2xx_HAL_Driver/Src/stm32f2xx_ll_usb.c ****   * @param  ch_num  Channel number
1522:Drivers/STM32F2xx_HAL_Driver/Src/stm32f2xx_ll_usb.c ****   *         This parameter can be a value from 1 to 15
1523:Drivers/STM32F2xx_HAL_Driver/Src/stm32f2xx_ll_usb.c ****   * @param  epnum  Endpoint number
1524:Drivers/STM32F2xx_HAL_Driver/Src/stm32f2xx_ll_usb.c ****   *          This parameter can be a value from 1 to 15
1525:Drivers/STM32F2xx_HAL_Driver/Src/stm32f2xx_ll_usb.c ****   * @param  dev_address  Current device address
1526:Drivers/STM32F2xx_HAL_Driver/Src/stm32f2xx_ll_usb.c ****   *          This parameter can be a value from 0 to 255
1527:Drivers/STM32F2xx_HAL_Driver/Src/stm32f2xx_ll_usb.c ****   * @param  speed  Current device speed
1528:Drivers/STM32F2xx_HAL_Driver/Src/stm32f2xx_ll_usb.c ****   *          This parameter can be one of these values:
1529:Drivers/STM32F2xx_HAL_Driver/Src/stm32f2xx_ll_usb.c ****   *            @arg USB_OTG_SPEED_HIGH: High speed mode
1530:Drivers/STM32F2xx_HAL_Driver/Src/stm32f2xx_ll_usb.c ****   *            @arg USB_OTG_SPEED_FULL: Full speed mode
1531:Drivers/STM32F2xx_HAL_Driver/Src/stm32f2xx_ll_usb.c ****   *            @arg USB_OTG_SPEED_LOW: Low speed mode
1532:Drivers/STM32F2xx_HAL_Driver/Src/stm32f2xx_ll_usb.c ****   * @param  ep_type  Endpoint Type
1533:Drivers/STM32F2xx_HAL_Driver/Src/stm32f2xx_ll_usb.c ****   *          This parameter can be one of these values:
1534:Drivers/STM32F2xx_HAL_Driver/Src/stm32f2xx_ll_usb.c ****   *            @arg EP_TYPE_CTRL: Control type
1535:Drivers/STM32F2xx_HAL_Driver/Src/stm32f2xx_ll_usb.c ****   *            @arg EP_TYPE_ISOC: Isochronous type
1536:Drivers/STM32F2xx_HAL_Driver/Src/stm32f2xx_ll_usb.c ****   *            @arg EP_TYPE_BULK: Bulk type
1537:Drivers/STM32F2xx_HAL_Driver/Src/stm32f2xx_ll_usb.c ****   *            @arg EP_TYPE_INTR: Interrupt type
1538:Drivers/STM32F2xx_HAL_Driver/Src/stm32f2xx_ll_usb.c ****   * @param  mps  Max Packet Size
1539:Drivers/STM32F2xx_HAL_Driver/Src/stm32f2xx_ll_usb.c ****   *          This parameter can be a value from 0 to32K
1540:Drivers/STM32F2xx_HAL_Driver/Src/stm32f2xx_ll_usb.c ****   * @retval HAL state
1541:Drivers/STM32F2xx_HAL_Driver/Src/stm32f2xx_ll_usb.c ****   */
1542:Drivers/STM32F2xx_HAL_Driver/Src/stm32f2xx_ll_usb.c **** HAL_StatusTypeDef USB_HC_Init(USB_OTG_GlobalTypeDef *USBx,
1543:Drivers/STM32F2xx_HAL_Driver/Src/stm32f2xx_ll_usb.c ****                               uint8_t ch_num,
1544:Drivers/STM32F2xx_HAL_Driver/Src/stm32f2xx_ll_usb.c ****                               uint8_t epnum,
1545:Drivers/STM32F2xx_HAL_Driver/Src/stm32f2xx_ll_usb.c ****                               uint8_t dev_address,
1546:Drivers/STM32F2xx_HAL_Driver/Src/stm32f2xx_ll_usb.c ****                               uint8_t speed,
1547:Drivers/STM32F2xx_HAL_Driver/Src/stm32f2xx_ll_usb.c ****                               uint8_t ep_type,
1548:Drivers/STM32F2xx_HAL_Driver/Src/stm32f2xx_ll_usb.c ****                               uint16_t mps)
1549:Drivers/STM32F2xx_HAL_Driver/Src/stm32f2xx_ll_usb.c **** {
 3838              		.loc 1 1549 1 is_stmt 1 view -0
 3839              		.cfi_startproc
ARM GAS  C:\Users\User\AppData\Local\Temp\ccY05dYU.s 			page 113


 3840              		@ args = 12, pretend = 0, frame = 0
 3841              		@ frame_needed = 0, uses_anonymous_args = 0
 3842              		.loc 1 1549 1 is_stmt 0 view .LVU1180
 3843 0000 F0B5     		push	{r4, r5, r6, r7, lr}
 3844              	.LCFI55:
 3845              		.cfi_def_cfa_offset 20
 3846              		.cfi_offset 4, -20
 3847              		.cfi_offset 5, -16
 3848              		.cfi_offset 6, -12
 3849              		.cfi_offset 7, -8
 3850              		.cfi_offset 14, -4
 3851 0002 0646     		mov	r6, r0
 3852 0004 9DF81840 		ldrb	r4, [sp, #24]	@ zero_extendqisi2
1550:Drivers/STM32F2xx_HAL_Driver/Src/stm32f2xx_ll_usb.c ****   HAL_StatusTypeDef ret = HAL_OK;
 3853              		.loc 1 1550 3 is_stmt 1 view .LVU1181
 3854              	.LVL319:
1551:Drivers/STM32F2xx_HAL_Driver/Src/stm32f2xx_ll_usb.c ****   uint32_t USBx_BASE = (uint32_t)USBx;
 3855              		.loc 1 1551 3 view .LVU1182
1552:Drivers/STM32F2xx_HAL_Driver/Src/stm32f2xx_ll_usb.c ****   uint32_t HCcharEpDir, HCcharLowSpeed;
 3856              		.loc 1 1552 3 view .LVU1183
1553:Drivers/STM32F2xx_HAL_Driver/Src/stm32f2xx_ll_usb.c **** 
1554:Drivers/STM32F2xx_HAL_Driver/Src/stm32f2xx_ll_usb.c ****   /* Clear old interrupt conditions for this host channel. */
1555:Drivers/STM32F2xx_HAL_Driver/Src/stm32f2xx_ll_usb.c ****   USBx_HC((uint32_t)ch_num)->HCINT = 0xFFFFFFFFU;
 3857              		.loc 1 1555 3 view .LVU1184
 3858 0008 00EB4115 		add	r5, r0, r1, lsl #5
 3859 000c 05F5A060 		add	r0, r5, #1280
 3860              	.LVL320:
 3861              		.loc 1 1555 36 is_stmt 0 view .LVU1185
 3862 0010 4FF0FF37 		mov	r7, #-1
 3863 0014 8760     		str	r7, [r0, #8]
1556:Drivers/STM32F2xx_HAL_Driver/Src/stm32f2xx_ll_usb.c **** 
1557:Drivers/STM32F2xx_HAL_Driver/Src/stm32f2xx_ll_usb.c ****   /* Enable channel interrupts required for this transfer. */
1558:Drivers/STM32F2xx_HAL_Driver/Src/stm32f2xx_ll_usb.c ****   switch (ep_type)
 3864              		.loc 1 1558 3 is_stmt 1 view .LVU1186
 3865 0016 032C     		cmp	r4, #3
 3866 0018 65D8     		bhi	.L252
 3867 001a DFE804F0 		tbb	[pc, r4]
 3868              	.L245:
 3869 001e 02       		.byte	(.L246-.L245)/2
 3870 001f 56       		.byte	(.L247-.L245)/2
 3871 0020 02       		.byte	(.L246-.L245)/2
 3872 0021 18       		.byte	(.L244-.L245)/2
 3873              		.p2align 1
 3874              	.L246:
1559:Drivers/STM32F2xx_HAL_Driver/Src/stm32f2xx_ll_usb.c ****   {
1560:Drivers/STM32F2xx_HAL_Driver/Src/stm32f2xx_ll_usb.c ****     case EP_TYPE_CTRL:
1561:Drivers/STM32F2xx_HAL_Driver/Src/stm32f2xx_ll_usb.c ****     case EP_TYPE_BULK:
1562:Drivers/STM32F2xx_HAL_Driver/Src/stm32f2xx_ll_usb.c ****       USBx_HC((uint32_t)ch_num)->HCINTMSK = USB_OTG_HCINTMSK_XFRCM  |
 3875              		.loc 1 1562 7 view .LVU1187
 3876              		.loc 1 1562 43 is_stmt 0 view .LVU1188
 3877 0022 40F29D47 		movw	r7, #1181
 3878 0026 C760     		str	r7, [r0, #12]
1563:Drivers/STM32F2xx_HAL_Driver/Src/stm32f2xx_ll_usb.c ****                                             USB_OTG_HCINTMSK_STALLM |
1564:Drivers/STM32F2xx_HAL_Driver/Src/stm32f2xx_ll_usb.c ****                                             USB_OTG_HCINTMSK_TXERRM |
1565:Drivers/STM32F2xx_HAL_Driver/Src/stm32f2xx_ll_usb.c ****                                             USB_OTG_HCINTMSK_DTERRM |
1566:Drivers/STM32F2xx_HAL_Driver/Src/stm32f2xx_ll_usb.c ****                                             USB_OTG_HCINTMSK_AHBERR |
1567:Drivers/STM32F2xx_HAL_Driver/Src/stm32f2xx_ll_usb.c ****                                             USB_OTG_HCINTMSK_NAKM;
ARM GAS  C:\Users\User\AppData\Local\Temp\ccY05dYU.s 			page 114


1568:Drivers/STM32F2xx_HAL_Driver/Src/stm32f2xx_ll_usb.c **** 
1569:Drivers/STM32F2xx_HAL_Driver/Src/stm32f2xx_ll_usb.c ****       if ((epnum & 0x80U) == 0x80U)
 3879              		.loc 1 1569 7 is_stmt 1 view .LVU1189
 3880              		.loc 1 1569 10 is_stmt 0 view .LVU1190
 3881 0028 12F0800F 		tst	r2, #128
 3882 002c 09D1     		bne	.L259
1570:Drivers/STM32F2xx_HAL_Driver/Src/stm32f2xx_ll_usb.c ****       {
1571:Drivers/STM32F2xx_HAL_Driver/Src/stm32f2xx_ll_usb.c ****         USBx_HC((uint32_t)ch_num)->HCINTMSK |= USB_OTG_HCINTMSK_BBERRM;
1572:Drivers/STM32F2xx_HAL_Driver/Src/stm32f2xx_ll_usb.c ****       }
1573:Drivers/STM32F2xx_HAL_Driver/Src/stm32f2xx_ll_usb.c ****       else
1574:Drivers/STM32F2xx_HAL_Driver/Src/stm32f2xx_ll_usb.c ****       {
1575:Drivers/STM32F2xx_HAL_Driver/Src/stm32f2xx_ll_usb.c ****         if ((USBx->CID & (0x1U << 8)) != 0U)
 3883              		.loc 1 1575 9 is_stmt 1 view .LVU1191
 3884              		.loc 1 1575 18 is_stmt 0 view .LVU1192
 3885 002e F76B     		ldr	r7, [r6, #60]
 3886              		.loc 1 1575 12 view .LVU1193
 3887 0030 17F4807F 		tst	r7, #256
 3888 0034 59D0     		beq	.L253
1576:Drivers/STM32F2xx_HAL_Driver/Src/stm32f2xx_ll_usb.c ****         {
1577:Drivers/STM32F2xx_HAL_Driver/Src/stm32f2xx_ll_usb.c ****           USBx_HC((uint32_t)ch_num)->HCINTMSK |= (USB_OTG_HCINTMSK_NYET | USB_OTG_HCINTMSK_ACKM);
 3889              		.loc 1 1577 11 is_stmt 1 view .LVU1194
 3890              		.loc 1 1577 47 is_stmt 0 view .LVU1195
 3891 0036 C768     		ldr	r7, [r0, #12]
 3892 0038 47F06007 		orr	r7, r7, #96
 3893 003c C760     		str	r7, [r0, #12]
1550:Drivers/STM32F2xx_HAL_Driver/Src/stm32f2xx_ll_usb.c ****   uint32_t USBx_BASE = (uint32_t)USBx;
 3894              		.loc 1 1550 21 view .LVU1196
 3895 003e 0020     		movs	r0, #0
 3896 0040 0CE0     		b	.L243
 3897              	.L259:
1571:Drivers/STM32F2xx_HAL_Driver/Src/stm32f2xx_ll_usb.c ****       }
 3898              		.loc 1 1571 9 is_stmt 1 view .LVU1197
1571:Drivers/STM32F2xx_HAL_Driver/Src/stm32f2xx_ll_usb.c ****       }
 3899              		.loc 1 1571 45 is_stmt 0 view .LVU1198
 3900 0042 C768     		ldr	r7, [r0, #12]
 3901 0044 47F48077 		orr	r7, r7, #256
 3902 0048 C760     		str	r7, [r0, #12]
1550:Drivers/STM32F2xx_HAL_Driver/Src/stm32f2xx_ll_usb.c ****   uint32_t USBx_BASE = (uint32_t)USBx;
 3903              		.loc 1 1550 21 view .LVU1199
 3904 004a 0020     		movs	r0, #0
 3905 004c 06E0     		b	.L243
 3906              	.L244:
1578:Drivers/STM32F2xx_HAL_Driver/Src/stm32f2xx_ll_usb.c ****         }
1579:Drivers/STM32F2xx_HAL_Driver/Src/stm32f2xx_ll_usb.c ****       }
1580:Drivers/STM32F2xx_HAL_Driver/Src/stm32f2xx_ll_usb.c ****       break;
1581:Drivers/STM32F2xx_HAL_Driver/Src/stm32f2xx_ll_usb.c **** 
1582:Drivers/STM32F2xx_HAL_Driver/Src/stm32f2xx_ll_usb.c ****     case EP_TYPE_INTR:
1583:Drivers/STM32F2xx_HAL_Driver/Src/stm32f2xx_ll_usb.c ****       USBx_HC((uint32_t)ch_num)->HCINTMSK = USB_OTG_HCINTMSK_XFRCM  |
 3907              		.loc 1 1583 7 is_stmt 1 view .LVU1200
 3908              		.loc 1 1583 43 is_stmt 0 view .LVU1201
 3909 004e 40F29D67 		movw	r7, #1693
 3910 0052 C760     		str	r7, [r0, #12]
1584:Drivers/STM32F2xx_HAL_Driver/Src/stm32f2xx_ll_usb.c ****                                             USB_OTG_HCINTMSK_STALLM |
1585:Drivers/STM32F2xx_HAL_Driver/Src/stm32f2xx_ll_usb.c ****                                             USB_OTG_HCINTMSK_TXERRM |
1586:Drivers/STM32F2xx_HAL_Driver/Src/stm32f2xx_ll_usb.c ****                                             USB_OTG_HCINTMSK_DTERRM |
1587:Drivers/STM32F2xx_HAL_Driver/Src/stm32f2xx_ll_usb.c ****                                             USB_OTG_HCINTMSK_NAKM   |
1588:Drivers/STM32F2xx_HAL_Driver/Src/stm32f2xx_ll_usb.c ****                                             USB_OTG_HCINTMSK_AHBERR |
ARM GAS  C:\Users\User\AppData\Local\Temp\ccY05dYU.s 			page 115


1589:Drivers/STM32F2xx_HAL_Driver/Src/stm32f2xx_ll_usb.c ****                                             USB_OTG_HCINTMSK_FRMORM;
1590:Drivers/STM32F2xx_HAL_Driver/Src/stm32f2xx_ll_usb.c **** 
1591:Drivers/STM32F2xx_HAL_Driver/Src/stm32f2xx_ll_usb.c ****       if ((epnum & 0x80U) == 0x80U)
 3911              		.loc 1 1591 7 is_stmt 1 view .LVU1202
 3912              		.loc 1 1591 10 is_stmt 0 view .LVU1203
 3913 0054 12F0800F 		tst	r2, #128
 3914 0058 31D1     		bne	.L260
1550:Drivers/STM32F2xx_HAL_Driver/Src/stm32f2xx_ll_usb.c ****   uint32_t USBx_BASE = (uint32_t)USBx;
 3915              		.loc 1 1550 21 view .LVU1204
 3916 005a 0020     		movs	r0, #0
 3917              	.L243:
 3918              	.LVL321:
1592:Drivers/STM32F2xx_HAL_Driver/Src/stm32f2xx_ll_usb.c ****       {
1593:Drivers/STM32F2xx_HAL_Driver/Src/stm32f2xx_ll_usb.c ****         USBx_HC((uint32_t)ch_num)->HCINTMSK |= USB_OTG_HCINTMSK_BBERRM;
1594:Drivers/STM32F2xx_HAL_Driver/Src/stm32f2xx_ll_usb.c ****       }
1595:Drivers/STM32F2xx_HAL_Driver/Src/stm32f2xx_ll_usb.c **** 
1596:Drivers/STM32F2xx_HAL_Driver/Src/stm32f2xx_ll_usb.c ****       break;
1597:Drivers/STM32F2xx_HAL_Driver/Src/stm32f2xx_ll_usb.c **** 
1598:Drivers/STM32F2xx_HAL_Driver/Src/stm32f2xx_ll_usb.c ****     case EP_TYPE_ISOC:
1599:Drivers/STM32F2xx_HAL_Driver/Src/stm32f2xx_ll_usb.c ****       USBx_HC((uint32_t)ch_num)->HCINTMSK = USB_OTG_HCINTMSK_XFRCM  |
1600:Drivers/STM32F2xx_HAL_Driver/Src/stm32f2xx_ll_usb.c ****                                             USB_OTG_HCINTMSK_ACKM   |
1601:Drivers/STM32F2xx_HAL_Driver/Src/stm32f2xx_ll_usb.c ****                                             USB_OTG_HCINTMSK_AHBERR |
1602:Drivers/STM32F2xx_HAL_Driver/Src/stm32f2xx_ll_usb.c ****                                             USB_OTG_HCINTMSK_FRMORM;
1603:Drivers/STM32F2xx_HAL_Driver/Src/stm32f2xx_ll_usb.c **** 
1604:Drivers/STM32F2xx_HAL_Driver/Src/stm32f2xx_ll_usb.c ****       if ((epnum & 0x80U) == 0x80U)
1605:Drivers/STM32F2xx_HAL_Driver/Src/stm32f2xx_ll_usb.c ****       {
1606:Drivers/STM32F2xx_HAL_Driver/Src/stm32f2xx_ll_usb.c ****         USBx_HC((uint32_t)ch_num)->HCINTMSK |= (USB_OTG_HCINTMSK_TXERRM | USB_OTG_HCINTMSK_BBERRM);
1607:Drivers/STM32F2xx_HAL_Driver/Src/stm32f2xx_ll_usb.c ****       }
1608:Drivers/STM32F2xx_HAL_Driver/Src/stm32f2xx_ll_usb.c ****       break;
1609:Drivers/STM32F2xx_HAL_Driver/Src/stm32f2xx_ll_usb.c **** 
1610:Drivers/STM32F2xx_HAL_Driver/Src/stm32f2xx_ll_usb.c ****     default:
1611:Drivers/STM32F2xx_HAL_Driver/Src/stm32f2xx_ll_usb.c ****       ret = HAL_ERROR;
1612:Drivers/STM32F2xx_HAL_Driver/Src/stm32f2xx_ll_usb.c ****       break;
1613:Drivers/STM32F2xx_HAL_Driver/Src/stm32f2xx_ll_usb.c ****   }
1614:Drivers/STM32F2xx_HAL_Driver/Src/stm32f2xx_ll_usb.c **** 
1615:Drivers/STM32F2xx_HAL_Driver/Src/stm32f2xx_ll_usb.c ****   /* Enable the top level host channel interrupt. */
1616:Drivers/STM32F2xx_HAL_Driver/Src/stm32f2xx_ll_usb.c ****   USBx_HOST->HAINTMSK |= 1UL << (ch_num & 0xFU);
 3919              		.loc 1 1616 3 is_stmt 1 view .LVU1205
 3920              		.loc 1 1616 23 is_stmt 0 view .LVU1206
 3921 005c 06F5806E 		add	lr, r6, #1024
 3922 0060 D6F81874 		ldr	r7, [r6, #1048]
 3923              		.loc 1 1616 41 view .LVU1207
 3924 0064 01F00F01 		and	r1, r1, #15
 3925              	.LVL322:
 3926              		.loc 1 1616 30 view .LVU1208
 3927 0068 4FF0010C 		mov	ip, #1
 3928 006c 0CFA01F1 		lsl	r1, ip, r1
 3929              		.loc 1 1616 23 view .LVU1209
 3930 0070 0F43     		orrs	r7, r7, r1
 3931 0072 C6F81874 		str	r7, [r6, #1048]
1617:Drivers/STM32F2xx_HAL_Driver/Src/stm32f2xx_ll_usb.c **** 
1618:Drivers/STM32F2xx_HAL_Driver/Src/stm32f2xx_ll_usb.c ****   /* Make sure host channel interrupts are enabled. */
1619:Drivers/STM32F2xx_HAL_Driver/Src/stm32f2xx_ll_usb.c ****   USBx->GINTMSK |= USB_OTG_GINTMSK_HCIM;
 3932              		.loc 1 1619 3 is_stmt 1 view .LVU1210
 3933              		.loc 1 1619 17 is_stmt 0 view .LVU1211
 3934 0076 B169     		ldr	r1, [r6, #24]
 3935 0078 41F00071 		orr	r1, r1, #33554432
ARM GAS  C:\Users\User\AppData\Local\Temp\ccY05dYU.s 			page 116


 3936 007c B161     		str	r1, [r6, #24]
1620:Drivers/STM32F2xx_HAL_Driver/Src/stm32f2xx_ll_usb.c **** 
1621:Drivers/STM32F2xx_HAL_Driver/Src/stm32f2xx_ll_usb.c ****   /* Program the HCCHAR register */
1622:Drivers/STM32F2xx_HAL_Driver/Src/stm32f2xx_ll_usb.c ****   if ((epnum & 0x80U) == 0x80U)
 3937              		.loc 1 1622 3 is_stmt 1 view .LVU1212
 3938              		.loc 1 1622 6 is_stmt 0 view .LVU1213
 3939 007e 12F0800F 		tst	r2, #128
 3940 0082 34D1     		bne	.L261
1623:Drivers/STM32F2xx_HAL_Driver/Src/stm32f2xx_ll_usb.c ****   {
1624:Drivers/STM32F2xx_HAL_Driver/Src/stm32f2xx_ll_usb.c ****     HCcharEpDir = (0x1U << 15) & USB_OTG_HCCHAR_EPDIR;
1625:Drivers/STM32F2xx_HAL_Driver/Src/stm32f2xx_ll_usb.c ****   }
1626:Drivers/STM32F2xx_HAL_Driver/Src/stm32f2xx_ll_usb.c ****   else
1627:Drivers/STM32F2xx_HAL_Driver/Src/stm32f2xx_ll_usb.c ****   {
1628:Drivers/STM32F2xx_HAL_Driver/Src/stm32f2xx_ll_usb.c ****     HCcharEpDir = 0U;
 3941              		.loc 1 1628 17 view .LVU1214
 3942 0084 0026     		movs	r6, #0
 3943              	.LVL323:
 3944              	.L249:
1629:Drivers/STM32F2xx_HAL_Driver/Src/stm32f2xx_ll_usb.c ****   }
1630:Drivers/STM32F2xx_HAL_Driver/Src/stm32f2xx_ll_usb.c **** 
1631:Drivers/STM32F2xx_HAL_Driver/Src/stm32f2xx_ll_usb.c ****   if (speed == HPRT0_PRTSPD_LOW_SPEED)
 3945              		.loc 1 1631 3 is_stmt 1 view .LVU1215
 3946              		.loc 1 1631 6 is_stmt 0 view .LVU1216
 3947 0086 9DF81410 		ldrb	r1, [sp, #20]	@ zero_extendqisi2
 3948 008a 0229     		cmp	r1, #2
 3949 008c 32D0     		beq	.L262
1632:Drivers/STM32F2xx_HAL_Driver/Src/stm32f2xx_ll_usb.c ****   {
1633:Drivers/STM32F2xx_HAL_Driver/Src/stm32f2xx_ll_usb.c ****     HCcharLowSpeed = (0x1U << 17) & USB_OTG_HCCHAR_LSDEV;
1634:Drivers/STM32F2xx_HAL_Driver/Src/stm32f2xx_ll_usb.c ****   }
1635:Drivers/STM32F2xx_HAL_Driver/Src/stm32f2xx_ll_usb.c ****   else
1636:Drivers/STM32F2xx_HAL_Driver/Src/stm32f2xx_ll_usb.c ****   {
1637:Drivers/STM32F2xx_HAL_Driver/Src/stm32f2xx_ll_usb.c ****     HCcharLowSpeed = 0U;
 3950              		.loc 1 1637 20 view .LVU1217
 3951 008e 0021     		movs	r1, #0
 3952              	.L250:
 3953              	.LVL324:
1638:Drivers/STM32F2xx_HAL_Driver/Src/stm32f2xx_ll_usb.c ****   }
1639:Drivers/STM32F2xx_HAL_Driver/Src/stm32f2xx_ll_usb.c **** 
1640:Drivers/STM32F2xx_HAL_Driver/Src/stm32f2xx_ll_usb.c ****   USBx_HC((uint32_t)ch_num)->HCCHAR = (((uint32_t)dev_address << 22) & USB_OTG_HCCHAR_DAD) |
 3954              		.loc 1 1640 3 is_stmt 1 view .LVU1218
 3955              		.loc 1 1640 63 is_stmt 0 view .LVU1219
 3956 0090 9B05     		lsls	r3, r3, #22
 3957              	.LVL325:
 3958              		.loc 1 1640 70 view .LVU1220
 3959 0092 03F0FE53 		and	r3, r3, #532676608
1641:Drivers/STM32F2xx_HAL_Driver/Src/stm32f2xx_ll_usb.c ****                                       ((((uint32_t)epnum & 0x7FU) << 11) & USB_OTG_HCCHAR_EPNUM) |
 3960              		.loc 1 1641 67 view .LVU1221
 3961 0096 D202     		lsls	r2, r2, #11
 3962              	.LVL326:
 3963              		.loc 1 1641 74 view .LVU1222
 3964 0098 02F4F042 		and	r2, r2, #30720
1640:Drivers/STM32F2xx_HAL_Driver/Src/stm32f2xx_ll_usb.c ****                                       ((((uint32_t)epnum & 0x7FU) << 11) & USB_OTG_HCCHAR_EPNUM) |
 3965              		.loc 1 1640 92 view .LVU1223
 3966 009c 1343     		orrs	r3, r3, r2
1642:Drivers/STM32F2xx_HAL_Driver/Src/stm32f2xx_ll_usb.c ****                                       (((uint32_t)ep_type << 18) & USB_OTG_HCCHAR_EPTYP) |
 3967              		.loc 1 1642 59 view .LVU1224
 3968 009e A204     		lsls	r2, r4, #18
ARM GAS  C:\Users\User\AppData\Local\Temp\ccY05dYU.s 			page 117


 3969              		.loc 1 1642 66 view .LVU1225
 3970 00a0 02F44022 		and	r2, r2, #786432
1641:Drivers/STM32F2xx_HAL_Driver/Src/stm32f2xx_ll_usb.c ****                                       ((((uint32_t)epnum & 0x7FU) << 11) & USB_OTG_HCCHAR_EPNUM) |
 3971              		.loc 1 1641 98 view .LVU1226
 3972 00a4 1343     		orrs	r3, r3, r2
1643:Drivers/STM32F2xx_HAL_Driver/Src/stm32f2xx_ll_usb.c ****                                       ((uint32_t)mps & USB_OTG_HCCHAR_MPSIZ) | HCcharEpDir | HCchar
 3973              		.loc 1 1643 54 view .LVU1227
 3974 00a6 BDF81C20 		ldrh	r2, [sp, #28]
 3975 00aa C2F30A02 		ubfx	r2, r2, #0, #11
1642:Drivers/STM32F2xx_HAL_Driver/Src/stm32f2xx_ll_usb.c ****                                       (((uint32_t)ep_type << 18) & USB_OTG_HCCHAR_EPTYP) |
 3976              		.loc 1 1642 90 view .LVU1228
 3977 00ae 1343     		orrs	r3, r3, r2
 3978              		.loc 1 1643 78 view .LVU1229
 3979 00b0 3343     		orrs	r3, r3, r6
 3980              		.loc 1 1643 92 view .LVU1230
 3981 00b2 0B43     		orrs	r3, r3, r1
1640:Drivers/STM32F2xx_HAL_Driver/Src/stm32f2xx_ll_usb.c ****                                       ((((uint32_t)epnum & 0x7FU) << 11) & USB_OTG_HCCHAR_EPNUM) |
 3982              		.loc 1 1640 37 view .LVU1231
 3983 00b4 C5F80035 		str	r3, [r5, #1280]
1644:Drivers/STM32F2xx_HAL_Driver/Src/stm32f2xx_ll_usb.c **** 
1645:Drivers/STM32F2xx_HAL_Driver/Src/stm32f2xx_ll_usb.c ****   if (ep_type == EP_TYPE_INTR)
 3984              		.loc 1 1645 3 is_stmt 1 view .LVU1232
 3985              		.loc 1 1645 6 is_stmt 0 view .LVU1233
 3986 00b8 032C     		cmp	r4, #3
 3987 00ba 1ED0     		beq	.L263
 3988              	.L251:
1646:Drivers/STM32F2xx_HAL_Driver/Src/stm32f2xx_ll_usb.c ****   {
1647:Drivers/STM32F2xx_HAL_Driver/Src/stm32f2xx_ll_usb.c ****     USBx_HC((uint32_t)ch_num)->HCCHAR |= USB_OTG_HCCHAR_ODDFRM ;
1648:Drivers/STM32F2xx_HAL_Driver/Src/stm32f2xx_ll_usb.c ****   }
1649:Drivers/STM32F2xx_HAL_Driver/Src/stm32f2xx_ll_usb.c **** 
1650:Drivers/STM32F2xx_HAL_Driver/Src/stm32f2xx_ll_usb.c ****   return ret;
 3989              		.loc 1 1650 3 is_stmt 1 view .LVU1234
1651:Drivers/STM32F2xx_HAL_Driver/Src/stm32f2xx_ll_usb.c **** }
 3990              		.loc 1 1651 1 is_stmt 0 view .LVU1235
 3991 00bc F0BD     		pop	{r4, r5, r6, r7, pc}
 3992              	.LVL327:
 3993              	.L260:
1593:Drivers/STM32F2xx_HAL_Driver/Src/stm32f2xx_ll_usb.c ****       }
 3994              		.loc 1 1593 9 is_stmt 1 view .LVU1236
1593:Drivers/STM32F2xx_HAL_Driver/Src/stm32f2xx_ll_usb.c ****       }
 3995              		.loc 1 1593 45 is_stmt 0 view .LVU1237
 3996 00be C768     		ldr	r7, [r0, #12]
 3997 00c0 47F48077 		orr	r7, r7, #256
 3998 00c4 C760     		str	r7, [r0, #12]
1550:Drivers/STM32F2xx_HAL_Driver/Src/stm32f2xx_ll_usb.c ****   uint32_t USBx_BASE = (uint32_t)USBx;
 3999              		.loc 1 1550 21 view .LVU1238
 4000 00c6 0020     		movs	r0, #0
 4001 00c8 C8E7     		b	.L243
 4002              	.L247:
1599:Drivers/STM32F2xx_HAL_Driver/Src/stm32f2xx_ll_usb.c ****                                             USB_OTG_HCINTMSK_ACKM   |
 4003              		.loc 1 1599 7 is_stmt 1 view .LVU1239
1599:Drivers/STM32F2xx_HAL_Driver/Src/stm32f2xx_ll_usb.c ****                                             USB_OTG_HCINTMSK_ACKM   |
 4004              		.loc 1 1599 43 is_stmt 0 view .LVU1240
 4005 00ca 40F22527 		movw	r7, #549
 4006 00ce C760     		str	r7, [r0, #12]
1604:Drivers/STM32F2xx_HAL_Driver/Src/stm32f2xx_ll_usb.c ****       {
 4007              		.loc 1 1604 7 is_stmt 1 view .LVU1241
ARM GAS  C:\Users\User\AppData\Local\Temp\ccY05dYU.s 			page 118


1604:Drivers/STM32F2xx_HAL_Driver/Src/stm32f2xx_ll_usb.c ****       {
 4008              		.loc 1 1604 10 is_stmt 0 view .LVU1242
 4009 00d0 12F0800F 		tst	r2, #128
 4010 00d4 01D1     		bne	.L264
1550:Drivers/STM32F2xx_HAL_Driver/Src/stm32f2xx_ll_usb.c ****   uint32_t USBx_BASE = (uint32_t)USBx;
 4011              		.loc 1 1550 21 view .LVU1243
 4012 00d6 0020     		movs	r0, #0
 4013 00d8 C0E7     		b	.L243
 4014              	.L264:
1606:Drivers/STM32F2xx_HAL_Driver/Src/stm32f2xx_ll_usb.c ****       }
 4015              		.loc 1 1606 9 is_stmt 1 view .LVU1244
1606:Drivers/STM32F2xx_HAL_Driver/Src/stm32f2xx_ll_usb.c ****       }
 4016              		.loc 1 1606 45 is_stmt 0 view .LVU1245
 4017 00da C768     		ldr	r7, [r0, #12]
 4018 00dc 47F4C077 		orr	r7, r7, #384
 4019 00e0 C760     		str	r7, [r0, #12]
1550:Drivers/STM32F2xx_HAL_Driver/Src/stm32f2xx_ll_usb.c ****   uint32_t USBx_BASE = (uint32_t)USBx;
 4020              		.loc 1 1550 21 view .LVU1246
 4021 00e2 0020     		movs	r0, #0
 4022 00e4 BAE7     		b	.L243
 4023              	.L252:
1611:Drivers/STM32F2xx_HAL_Driver/Src/stm32f2xx_ll_usb.c ****       break;
 4024              		.loc 1 1611 11 view .LVU1247
 4025 00e6 0120     		movs	r0, #1
 4026 00e8 B8E7     		b	.L243
 4027              	.L253:
1550:Drivers/STM32F2xx_HAL_Driver/Src/stm32f2xx_ll_usb.c ****   uint32_t USBx_BASE = (uint32_t)USBx;
 4028              		.loc 1 1550 21 view .LVU1248
 4029 00ea 0020     		movs	r0, #0
 4030 00ec B6E7     		b	.L243
 4031              	.LVL328:
 4032              	.L261:
1624:Drivers/STM32F2xx_HAL_Driver/Src/stm32f2xx_ll_usb.c ****   }
 4033              		.loc 1 1624 17 view .LVU1249
 4034 00ee 4FF40046 		mov	r6, #32768
 4035              	.LVL329:
1624:Drivers/STM32F2xx_HAL_Driver/Src/stm32f2xx_ll_usb.c ****   }
 4036              		.loc 1 1624 17 view .LVU1250
 4037 00f2 C8E7     		b	.L249
 4038              	.LVL330:
 4039              	.L262:
1633:Drivers/STM32F2xx_HAL_Driver/Src/stm32f2xx_ll_usb.c ****   }
 4040              		.loc 1 1633 20 view .LVU1251
 4041 00f4 4FF40031 		mov	r1, #131072
 4042 00f8 CAE7     		b	.L250
 4043              	.LVL331:
 4044              	.L263:
1647:Drivers/STM32F2xx_HAL_Driver/Src/stm32f2xx_ll_usb.c ****   }
 4045              		.loc 1 1647 5 is_stmt 1 view .LVU1252
1647:Drivers/STM32F2xx_HAL_Driver/Src/stm32f2xx_ll_usb.c ****   }
 4046              		.loc 1 1647 39 is_stmt 0 view .LVU1253
 4047 00fa D5F80035 		ldr	r3, [r5, #1280]
 4048 00fe 43F00053 		orr	r3, r3, #536870912
 4049 0102 C5F80035 		str	r3, [r5, #1280]
 4050 0106 D9E7     		b	.L251
 4051              		.cfi_endproc
 4052              	.LFE112:
ARM GAS  C:\Users\User\AppData\Local\Temp\ccY05dYU.s 			page 119


 4054              		.section	.text.USB_HC_ReadInterrupt,"ax",%progbits
 4055              		.align	1
 4056              		.global	USB_HC_ReadInterrupt
 4057              		.syntax unified
 4058              		.thumb
 4059              		.thumb_func
 4060              		.fpu softvfp
 4062              	USB_HC_ReadInterrupt:
 4063              	.LVL332:
 4064              	.LFB114:
1652:Drivers/STM32F2xx_HAL_Driver/Src/stm32f2xx_ll_usb.c **** 
1653:Drivers/STM32F2xx_HAL_Driver/Src/stm32f2xx_ll_usb.c **** /**
1654:Drivers/STM32F2xx_HAL_Driver/Src/stm32f2xx_ll_usb.c ****   * @brief  Start a transfer over a host channel
1655:Drivers/STM32F2xx_HAL_Driver/Src/stm32f2xx_ll_usb.c ****   * @param  USBx  Selected device
1656:Drivers/STM32F2xx_HAL_Driver/Src/stm32f2xx_ll_usb.c ****   * @param  hc  pointer to host channel structure
1657:Drivers/STM32F2xx_HAL_Driver/Src/stm32f2xx_ll_usb.c ****   * @param  dma USB dma enabled or disabled
1658:Drivers/STM32F2xx_HAL_Driver/Src/stm32f2xx_ll_usb.c ****   *          This parameter can be one of these values:
1659:Drivers/STM32F2xx_HAL_Driver/Src/stm32f2xx_ll_usb.c ****   *           0 : DMA feature not used
1660:Drivers/STM32F2xx_HAL_Driver/Src/stm32f2xx_ll_usb.c ****   *           1 : DMA feature used
1661:Drivers/STM32F2xx_HAL_Driver/Src/stm32f2xx_ll_usb.c ****   * @retval HAL state
1662:Drivers/STM32F2xx_HAL_Driver/Src/stm32f2xx_ll_usb.c ****   */
1663:Drivers/STM32F2xx_HAL_Driver/Src/stm32f2xx_ll_usb.c **** HAL_StatusTypeDef USB_HC_StartXfer(USB_OTG_GlobalTypeDef *USBx, USB_OTG_HCTypeDef *hc, uint8_t dma)
1664:Drivers/STM32F2xx_HAL_Driver/Src/stm32f2xx_ll_usb.c **** {
1665:Drivers/STM32F2xx_HAL_Driver/Src/stm32f2xx_ll_usb.c ****   uint32_t USBx_BASE = (uint32_t)USBx;
1666:Drivers/STM32F2xx_HAL_Driver/Src/stm32f2xx_ll_usb.c ****   uint32_t ch_num = (uint32_t)hc->ch_num;
1667:Drivers/STM32F2xx_HAL_Driver/Src/stm32f2xx_ll_usb.c ****   static __IO uint32_t tmpreg = 0U;
1668:Drivers/STM32F2xx_HAL_Driver/Src/stm32f2xx_ll_usb.c ****   uint8_t  is_oddframe;
1669:Drivers/STM32F2xx_HAL_Driver/Src/stm32f2xx_ll_usb.c ****   uint16_t len_words;
1670:Drivers/STM32F2xx_HAL_Driver/Src/stm32f2xx_ll_usb.c ****   uint16_t num_packets;
1671:Drivers/STM32F2xx_HAL_Driver/Src/stm32f2xx_ll_usb.c ****   uint16_t max_hc_pkt_count = 256U;
1672:Drivers/STM32F2xx_HAL_Driver/Src/stm32f2xx_ll_usb.c **** 
1673:Drivers/STM32F2xx_HAL_Driver/Src/stm32f2xx_ll_usb.c ****   if (((USBx->CID & (0x1U << 8)) != 0U) && (hc->speed == USBH_HS_SPEED))
1674:Drivers/STM32F2xx_HAL_Driver/Src/stm32f2xx_ll_usb.c ****   {
1675:Drivers/STM32F2xx_HAL_Driver/Src/stm32f2xx_ll_usb.c ****     if ((dma == 0U) && (hc->do_ping == 1U))
1676:Drivers/STM32F2xx_HAL_Driver/Src/stm32f2xx_ll_usb.c ****     {
1677:Drivers/STM32F2xx_HAL_Driver/Src/stm32f2xx_ll_usb.c ****       (void)USB_DoPing(USBx, hc->ch_num);
1678:Drivers/STM32F2xx_HAL_Driver/Src/stm32f2xx_ll_usb.c ****       return HAL_OK;
1679:Drivers/STM32F2xx_HAL_Driver/Src/stm32f2xx_ll_usb.c ****     }
1680:Drivers/STM32F2xx_HAL_Driver/Src/stm32f2xx_ll_usb.c ****     else if (dma == 1U)
1681:Drivers/STM32F2xx_HAL_Driver/Src/stm32f2xx_ll_usb.c ****     {
1682:Drivers/STM32F2xx_HAL_Driver/Src/stm32f2xx_ll_usb.c ****       USBx_HC(ch_num)->HCINTMSK &= ~(USB_OTG_HCINTMSK_NYET | USB_OTG_HCINTMSK_ACKM);
1683:Drivers/STM32F2xx_HAL_Driver/Src/stm32f2xx_ll_usb.c ****       hc->do_ping = 0U;
1684:Drivers/STM32F2xx_HAL_Driver/Src/stm32f2xx_ll_usb.c ****     }
1685:Drivers/STM32F2xx_HAL_Driver/Src/stm32f2xx_ll_usb.c ****     else
1686:Drivers/STM32F2xx_HAL_Driver/Src/stm32f2xx_ll_usb.c ****     {
1687:Drivers/STM32F2xx_HAL_Driver/Src/stm32f2xx_ll_usb.c ****       /* ... */
1688:Drivers/STM32F2xx_HAL_Driver/Src/stm32f2xx_ll_usb.c ****     }
1689:Drivers/STM32F2xx_HAL_Driver/Src/stm32f2xx_ll_usb.c ****   }
1690:Drivers/STM32F2xx_HAL_Driver/Src/stm32f2xx_ll_usb.c **** 
1691:Drivers/STM32F2xx_HAL_Driver/Src/stm32f2xx_ll_usb.c ****   /* Compute the expected number of packets associated to the transfer */
1692:Drivers/STM32F2xx_HAL_Driver/Src/stm32f2xx_ll_usb.c ****   if (hc->xfer_len > 0U)
1693:Drivers/STM32F2xx_HAL_Driver/Src/stm32f2xx_ll_usb.c ****   {
1694:Drivers/STM32F2xx_HAL_Driver/Src/stm32f2xx_ll_usb.c ****     num_packets = (uint16_t)((hc->xfer_len + hc->max_packet - 1U) / hc->max_packet);
1695:Drivers/STM32F2xx_HAL_Driver/Src/stm32f2xx_ll_usb.c **** 
1696:Drivers/STM32F2xx_HAL_Driver/Src/stm32f2xx_ll_usb.c ****     if (num_packets > max_hc_pkt_count)
1697:Drivers/STM32F2xx_HAL_Driver/Src/stm32f2xx_ll_usb.c ****     {
1698:Drivers/STM32F2xx_HAL_Driver/Src/stm32f2xx_ll_usb.c ****       num_packets = max_hc_pkt_count;
ARM GAS  C:\Users\User\AppData\Local\Temp\ccY05dYU.s 			page 120


1699:Drivers/STM32F2xx_HAL_Driver/Src/stm32f2xx_ll_usb.c ****       hc->xfer_len = (uint32_t)num_packets * hc->max_packet;
1700:Drivers/STM32F2xx_HAL_Driver/Src/stm32f2xx_ll_usb.c ****     }
1701:Drivers/STM32F2xx_HAL_Driver/Src/stm32f2xx_ll_usb.c ****   }
1702:Drivers/STM32F2xx_HAL_Driver/Src/stm32f2xx_ll_usb.c ****   else
1703:Drivers/STM32F2xx_HAL_Driver/Src/stm32f2xx_ll_usb.c ****   {
1704:Drivers/STM32F2xx_HAL_Driver/Src/stm32f2xx_ll_usb.c ****     num_packets = 1U;
1705:Drivers/STM32F2xx_HAL_Driver/Src/stm32f2xx_ll_usb.c ****   }
1706:Drivers/STM32F2xx_HAL_Driver/Src/stm32f2xx_ll_usb.c ****   if (hc->ep_is_in != 0U)
1707:Drivers/STM32F2xx_HAL_Driver/Src/stm32f2xx_ll_usb.c ****   {
1708:Drivers/STM32F2xx_HAL_Driver/Src/stm32f2xx_ll_usb.c ****     hc->xfer_len = (uint32_t)num_packets * hc->max_packet;
1709:Drivers/STM32F2xx_HAL_Driver/Src/stm32f2xx_ll_usb.c ****   }
1710:Drivers/STM32F2xx_HAL_Driver/Src/stm32f2xx_ll_usb.c **** 
1711:Drivers/STM32F2xx_HAL_Driver/Src/stm32f2xx_ll_usb.c ****   /* Initialize the HCTSIZn register */
1712:Drivers/STM32F2xx_HAL_Driver/Src/stm32f2xx_ll_usb.c ****   USBx_HC(ch_num)->HCTSIZ = (hc->xfer_len & USB_OTG_HCTSIZ_XFRSIZ) |
1713:Drivers/STM32F2xx_HAL_Driver/Src/stm32f2xx_ll_usb.c ****                             (((uint32_t)num_packets << 19) & USB_OTG_HCTSIZ_PKTCNT) |
1714:Drivers/STM32F2xx_HAL_Driver/Src/stm32f2xx_ll_usb.c ****                             (((uint32_t)hc->data_pid << 29) & USB_OTG_HCTSIZ_DPID);
1715:Drivers/STM32F2xx_HAL_Driver/Src/stm32f2xx_ll_usb.c **** 
1716:Drivers/STM32F2xx_HAL_Driver/Src/stm32f2xx_ll_usb.c ****   if (dma != 0U)
1717:Drivers/STM32F2xx_HAL_Driver/Src/stm32f2xx_ll_usb.c ****   {
1718:Drivers/STM32F2xx_HAL_Driver/Src/stm32f2xx_ll_usb.c ****     /* xfer_buff MUST be 32-bits aligned */
1719:Drivers/STM32F2xx_HAL_Driver/Src/stm32f2xx_ll_usb.c ****     USBx_HC(ch_num)->HCDMA = (uint32_t)hc->xfer_buff;
1720:Drivers/STM32F2xx_HAL_Driver/Src/stm32f2xx_ll_usb.c ****   }
1721:Drivers/STM32F2xx_HAL_Driver/Src/stm32f2xx_ll_usb.c **** 
1722:Drivers/STM32F2xx_HAL_Driver/Src/stm32f2xx_ll_usb.c ****   is_oddframe = (((uint32_t)USBx_HOST->HFNUM & 0x01U) != 0U) ? 0U : 1U;
1723:Drivers/STM32F2xx_HAL_Driver/Src/stm32f2xx_ll_usb.c ****   USBx_HC(ch_num)->HCCHAR &= ~USB_OTG_HCCHAR_ODDFRM;
1724:Drivers/STM32F2xx_HAL_Driver/Src/stm32f2xx_ll_usb.c ****   USBx_HC(ch_num)->HCCHAR |= (uint32_t)is_oddframe << 29;
1725:Drivers/STM32F2xx_HAL_Driver/Src/stm32f2xx_ll_usb.c **** 
1726:Drivers/STM32F2xx_HAL_Driver/Src/stm32f2xx_ll_usb.c ****   /* Set host channel enable */
1727:Drivers/STM32F2xx_HAL_Driver/Src/stm32f2xx_ll_usb.c ****   tmpreg = USBx_HC(ch_num)->HCCHAR;
1728:Drivers/STM32F2xx_HAL_Driver/Src/stm32f2xx_ll_usb.c ****   tmpreg &= ~USB_OTG_HCCHAR_CHDIS;
1729:Drivers/STM32F2xx_HAL_Driver/Src/stm32f2xx_ll_usb.c **** 
1730:Drivers/STM32F2xx_HAL_Driver/Src/stm32f2xx_ll_usb.c ****   /* make sure to set the correct ep direction */
1731:Drivers/STM32F2xx_HAL_Driver/Src/stm32f2xx_ll_usb.c ****   if (hc->ep_is_in != 0U)
1732:Drivers/STM32F2xx_HAL_Driver/Src/stm32f2xx_ll_usb.c ****   {
1733:Drivers/STM32F2xx_HAL_Driver/Src/stm32f2xx_ll_usb.c ****     tmpreg |= USB_OTG_HCCHAR_EPDIR;
1734:Drivers/STM32F2xx_HAL_Driver/Src/stm32f2xx_ll_usb.c ****   }
1735:Drivers/STM32F2xx_HAL_Driver/Src/stm32f2xx_ll_usb.c ****   else
1736:Drivers/STM32F2xx_HAL_Driver/Src/stm32f2xx_ll_usb.c ****   {
1737:Drivers/STM32F2xx_HAL_Driver/Src/stm32f2xx_ll_usb.c ****     tmpreg &= ~USB_OTG_HCCHAR_EPDIR;
1738:Drivers/STM32F2xx_HAL_Driver/Src/stm32f2xx_ll_usb.c ****   }
1739:Drivers/STM32F2xx_HAL_Driver/Src/stm32f2xx_ll_usb.c ****   tmpreg |= USB_OTG_HCCHAR_CHENA;
1740:Drivers/STM32F2xx_HAL_Driver/Src/stm32f2xx_ll_usb.c ****   USBx_HC(ch_num)->HCCHAR = tmpreg;
1741:Drivers/STM32F2xx_HAL_Driver/Src/stm32f2xx_ll_usb.c **** 
1742:Drivers/STM32F2xx_HAL_Driver/Src/stm32f2xx_ll_usb.c ****   if (dma == 0U) /* Slave mode */
1743:Drivers/STM32F2xx_HAL_Driver/Src/stm32f2xx_ll_usb.c ****   {
1744:Drivers/STM32F2xx_HAL_Driver/Src/stm32f2xx_ll_usb.c ****     if ((hc->ep_is_in == 0U) && (hc->xfer_len > 0U))
1745:Drivers/STM32F2xx_HAL_Driver/Src/stm32f2xx_ll_usb.c ****     {
1746:Drivers/STM32F2xx_HAL_Driver/Src/stm32f2xx_ll_usb.c ****       switch (hc->ep_type)
1747:Drivers/STM32F2xx_HAL_Driver/Src/stm32f2xx_ll_usb.c ****       {
1748:Drivers/STM32F2xx_HAL_Driver/Src/stm32f2xx_ll_usb.c ****         /* Non periodic transfer */
1749:Drivers/STM32F2xx_HAL_Driver/Src/stm32f2xx_ll_usb.c ****         case EP_TYPE_CTRL:
1750:Drivers/STM32F2xx_HAL_Driver/Src/stm32f2xx_ll_usb.c ****         case EP_TYPE_BULK:
1751:Drivers/STM32F2xx_HAL_Driver/Src/stm32f2xx_ll_usb.c **** 
1752:Drivers/STM32F2xx_HAL_Driver/Src/stm32f2xx_ll_usb.c ****           len_words = (uint16_t)((hc->xfer_len + 3U) / 4U);
1753:Drivers/STM32F2xx_HAL_Driver/Src/stm32f2xx_ll_usb.c **** 
1754:Drivers/STM32F2xx_HAL_Driver/Src/stm32f2xx_ll_usb.c ****           /* check if there is enough space in FIFO space */
1755:Drivers/STM32F2xx_HAL_Driver/Src/stm32f2xx_ll_usb.c ****           if (len_words > (USBx->HNPTXSTS & 0xFFFFU))
ARM GAS  C:\Users\User\AppData\Local\Temp\ccY05dYU.s 			page 121


1756:Drivers/STM32F2xx_HAL_Driver/Src/stm32f2xx_ll_usb.c ****           {
1757:Drivers/STM32F2xx_HAL_Driver/Src/stm32f2xx_ll_usb.c ****             /* need to process data in nptxfempty interrupt */
1758:Drivers/STM32F2xx_HAL_Driver/Src/stm32f2xx_ll_usb.c ****             USBx->GINTMSK |= USB_OTG_GINTMSK_NPTXFEM;
1759:Drivers/STM32F2xx_HAL_Driver/Src/stm32f2xx_ll_usb.c ****           }
1760:Drivers/STM32F2xx_HAL_Driver/Src/stm32f2xx_ll_usb.c ****           break;
1761:Drivers/STM32F2xx_HAL_Driver/Src/stm32f2xx_ll_usb.c **** 
1762:Drivers/STM32F2xx_HAL_Driver/Src/stm32f2xx_ll_usb.c ****         /* Periodic transfer */
1763:Drivers/STM32F2xx_HAL_Driver/Src/stm32f2xx_ll_usb.c ****         case EP_TYPE_INTR:
1764:Drivers/STM32F2xx_HAL_Driver/Src/stm32f2xx_ll_usb.c ****         case EP_TYPE_ISOC:
1765:Drivers/STM32F2xx_HAL_Driver/Src/stm32f2xx_ll_usb.c ****           len_words = (uint16_t)((hc->xfer_len + 3U) / 4U);
1766:Drivers/STM32F2xx_HAL_Driver/Src/stm32f2xx_ll_usb.c ****           /* check if there is enough space in FIFO space */
1767:Drivers/STM32F2xx_HAL_Driver/Src/stm32f2xx_ll_usb.c ****           if (len_words > (USBx_HOST->HPTXSTS & 0xFFFFU)) /* split the transfer */
1768:Drivers/STM32F2xx_HAL_Driver/Src/stm32f2xx_ll_usb.c ****           {
1769:Drivers/STM32F2xx_HAL_Driver/Src/stm32f2xx_ll_usb.c ****             /* need to process data in ptxfempty interrupt */
1770:Drivers/STM32F2xx_HAL_Driver/Src/stm32f2xx_ll_usb.c ****             USBx->GINTMSK |= USB_OTG_GINTMSK_PTXFEM;
1771:Drivers/STM32F2xx_HAL_Driver/Src/stm32f2xx_ll_usb.c ****           }
1772:Drivers/STM32F2xx_HAL_Driver/Src/stm32f2xx_ll_usb.c ****           break;
1773:Drivers/STM32F2xx_HAL_Driver/Src/stm32f2xx_ll_usb.c **** 
1774:Drivers/STM32F2xx_HAL_Driver/Src/stm32f2xx_ll_usb.c ****         default:
1775:Drivers/STM32F2xx_HAL_Driver/Src/stm32f2xx_ll_usb.c ****           break;
1776:Drivers/STM32F2xx_HAL_Driver/Src/stm32f2xx_ll_usb.c ****       }
1777:Drivers/STM32F2xx_HAL_Driver/Src/stm32f2xx_ll_usb.c **** 
1778:Drivers/STM32F2xx_HAL_Driver/Src/stm32f2xx_ll_usb.c ****       /* Write packet into the Tx FIFO. */
1779:Drivers/STM32F2xx_HAL_Driver/Src/stm32f2xx_ll_usb.c ****       (void)USB_WritePacket(USBx, hc->xfer_buff, hc->ch_num, (uint16_t)hc->xfer_len, 0);
1780:Drivers/STM32F2xx_HAL_Driver/Src/stm32f2xx_ll_usb.c ****     }
1781:Drivers/STM32F2xx_HAL_Driver/Src/stm32f2xx_ll_usb.c ****   }
1782:Drivers/STM32F2xx_HAL_Driver/Src/stm32f2xx_ll_usb.c **** 
1783:Drivers/STM32F2xx_HAL_Driver/Src/stm32f2xx_ll_usb.c ****   return HAL_OK;
1784:Drivers/STM32F2xx_HAL_Driver/Src/stm32f2xx_ll_usb.c **** }
1785:Drivers/STM32F2xx_HAL_Driver/Src/stm32f2xx_ll_usb.c **** 
1786:Drivers/STM32F2xx_HAL_Driver/Src/stm32f2xx_ll_usb.c **** /**
1787:Drivers/STM32F2xx_HAL_Driver/Src/stm32f2xx_ll_usb.c ****   * @brief Read all host channel interrupts status
1788:Drivers/STM32F2xx_HAL_Driver/Src/stm32f2xx_ll_usb.c ****   * @param  USBx  Selected device
1789:Drivers/STM32F2xx_HAL_Driver/Src/stm32f2xx_ll_usb.c ****   * @retval HAL state
1790:Drivers/STM32F2xx_HAL_Driver/Src/stm32f2xx_ll_usb.c ****   */
1791:Drivers/STM32F2xx_HAL_Driver/Src/stm32f2xx_ll_usb.c **** uint32_t USB_HC_ReadInterrupt(USB_OTG_GlobalTypeDef *USBx)
1792:Drivers/STM32F2xx_HAL_Driver/Src/stm32f2xx_ll_usb.c **** {
 4065              		.loc 1 1792 1 is_stmt 1 view -0
 4066              		.cfi_startproc
 4067              		@ args = 0, pretend = 0, frame = 0
 4068              		@ frame_needed = 0, uses_anonymous_args = 0
 4069              		@ link register save eliminated.
1793:Drivers/STM32F2xx_HAL_Driver/Src/stm32f2xx_ll_usb.c ****   uint32_t USBx_BASE = (uint32_t)USBx;
 4070              		.loc 1 1793 3 view .LVU1255
1794:Drivers/STM32F2xx_HAL_Driver/Src/stm32f2xx_ll_usb.c **** 
1795:Drivers/STM32F2xx_HAL_Driver/Src/stm32f2xx_ll_usb.c ****   return ((USBx_HOST->HAINT) & 0xFFFFU);
 4071              		.loc 1 1795 3 view .LVU1256
 4072              		.loc 1 1795 12 is_stmt 0 view .LVU1257
 4073 0000 00F58060 		add	r0, r0, #1024
 4074              	.LVL333:
 4075              		.loc 1 1795 21 view .LVU1258
 4076 0004 4069     		ldr	r0, [r0, #20]
 4077              	.LVL334:
1796:Drivers/STM32F2xx_HAL_Driver/Src/stm32f2xx_ll_usb.c **** }
 4078              		.loc 1 1796 1 view .LVU1259
 4079 0006 80B2     		uxth	r0, r0
 4080 0008 7047     		bx	lr
ARM GAS  C:\Users\User\AppData\Local\Temp\ccY05dYU.s 			page 122


 4081              		.cfi_endproc
 4082              	.LFE114:
 4084              		.section	.text.USB_HC_Halt,"ax",%progbits
 4085              		.align	1
 4086              		.global	USB_HC_Halt
 4087              		.syntax unified
 4088              		.thumb
 4089              		.thumb_func
 4090              		.fpu softvfp
 4092              	USB_HC_Halt:
 4093              	.LVL335:
 4094              	.LFB115:
1797:Drivers/STM32F2xx_HAL_Driver/Src/stm32f2xx_ll_usb.c **** 
1798:Drivers/STM32F2xx_HAL_Driver/Src/stm32f2xx_ll_usb.c **** /**
1799:Drivers/STM32F2xx_HAL_Driver/Src/stm32f2xx_ll_usb.c ****   * @brief  Halt a host channel
1800:Drivers/STM32F2xx_HAL_Driver/Src/stm32f2xx_ll_usb.c ****   * @param  USBx  Selected device
1801:Drivers/STM32F2xx_HAL_Driver/Src/stm32f2xx_ll_usb.c ****   * @param  hc_num  Host Channel number
1802:Drivers/STM32F2xx_HAL_Driver/Src/stm32f2xx_ll_usb.c ****   *         This parameter can be a value from 1 to 15
1803:Drivers/STM32F2xx_HAL_Driver/Src/stm32f2xx_ll_usb.c ****   * @retval HAL state
1804:Drivers/STM32F2xx_HAL_Driver/Src/stm32f2xx_ll_usb.c ****   */
1805:Drivers/STM32F2xx_HAL_Driver/Src/stm32f2xx_ll_usb.c **** HAL_StatusTypeDef USB_HC_Halt(USB_OTG_GlobalTypeDef *USBx, uint8_t hc_num)
1806:Drivers/STM32F2xx_HAL_Driver/Src/stm32f2xx_ll_usb.c **** {
 4095              		.loc 1 1806 1 is_stmt 1 view -0
 4096              		.cfi_startproc
 4097              		@ args = 0, pretend = 0, frame = 0
 4098              		@ frame_needed = 0, uses_anonymous_args = 0
 4099              		@ link register save eliminated.
 4100              		.loc 1 1806 1 is_stmt 0 view .LVU1261
 4101 0000 10B4     		push	{r4}
 4102              	.LCFI56:
 4103              		.cfi_def_cfa_offset 4
 4104              		.cfi_offset 4, -4
1807:Drivers/STM32F2xx_HAL_Driver/Src/stm32f2xx_ll_usb.c ****   uint32_t USBx_BASE = (uint32_t)USBx;
 4105              		.loc 1 1807 3 is_stmt 1 view .LVU1262
 4106              	.LVL336:
1808:Drivers/STM32F2xx_HAL_Driver/Src/stm32f2xx_ll_usb.c ****   uint32_t hcnum = (uint32_t)hc_num;
 4107              		.loc 1 1808 3 view .LVU1263
1809:Drivers/STM32F2xx_HAL_Driver/Src/stm32f2xx_ll_usb.c ****   uint32_t count = 0U;
 4108              		.loc 1 1809 3 view .LVU1264
1810:Drivers/STM32F2xx_HAL_Driver/Src/stm32f2xx_ll_usb.c ****   uint32_t HcEpType = (USBx_HC(hcnum)->HCCHAR & USB_OTG_HCCHAR_EPTYP) >> 18;
 4109              		.loc 1 1810 3 view .LVU1265
 4110              		.loc 1 1810 24 is_stmt 0 view .LVU1266
 4111 0002 00EB4111 		add	r1, r0, r1, lsl #5
 4112              	.LVL337:
 4113              		.loc 1 1810 24 view .LVU1267
 4114 0006 01F5A064 		add	r4, r1, #1280
 4115              		.loc 1 1810 38 view .LVU1268
 4116 000a D1F80035 		ldr	r3, [r1, #1280]
 4117              		.loc 1 1810 12 view .LVU1269
 4118 000e C3F38143 		ubfx	r3, r3, #18, #2
 4119              	.LVL338:
1811:Drivers/STM32F2xx_HAL_Driver/Src/stm32f2xx_ll_usb.c **** 
1812:Drivers/STM32F2xx_HAL_Driver/Src/stm32f2xx_ll_usb.c ****   /* Check for space in the request queue to issue the halt. */
1813:Drivers/STM32F2xx_HAL_Driver/Src/stm32f2xx_ll_usb.c ****   if ((HcEpType == HCCHAR_CTRL) || (HcEpType == HCCHAR_BULK))
 4120              		.loc 1 1813 3 is_stmt 1 view .LVU1270
 4121              		.loc 1 1813 6 is_stmt 0 view .LVU1271
 4122 0012 3BB3     		cbz	r3, .L267
ARM GAS  C:\Users\User\AppData\Local\Temp\ccY05dYU.s 			page 123


 4123              		.loc 1 1813 33 discriminator 1 view .LVU1272
 4124 0014 022B     		cmp	r3, #2
 4125 0016 25D0     		beq	.L267
1814:Drivers/STM32F2xx_HAL_Driver/Src/stm32f2xx_ll_usb.c ****   {
1815:Drivers/STM32F2xx_HAL_Driver/Src/stm32f2xx_ll_usb.c ****     USBx_HC(hcnum)->HCCHAR |= USB_OTG_HCCHAR_CHDIS;
1816:Drivers/STM32F2xx_HAL_Driver/Src/stm32f2xx_ll_usb.c **** 
1817:Drivers/STM32F2xx_HAL_Driver/Src/stm32f2xx_ll_usb.c ****     if ((USBx->HNPTXSTS & (0xFFU << 16)) == 0U)
1818:Drivers/STM32F2xx_HAL_Driver/Src/stm32f2xx_ll_usb.c ****     {
1819:Drivers/STM32F2xx_HAL_Driver/Src/stm32f2xx_ll_usb.c ****       USBx_HC(hcnum)->HCCHAR &= ~USB_OTG_HCCHAR_CHENA;
1820:Drivers/STM32F2xx_HAL_Driver/Src/stm32f2xx_ll_usb.c ****       USBx_HC(hcnum)->HCCHAR |= USB_OTG_HCCHAR_CHENA;
1821:Drivers/STM32F2xx_HAL_Driver/Src/stm32f2xx_ll_usb.c ****       USBx_HC(hcnum)->HCCHAR &= ~USB_OTG_HCCHAR_EPDIR;
1822:Drivers/STM32F2xx_HAL_Driver/Src/stm32f2xx_ll_usb.c ****       do
1823:Drivers/STM32F2xx_HAL_Driver/Src/stm32f2xx_ll_usb.c ****       {
1824:Drivers/STM32F2xx_HAL_Driver/Src/stm32f2xx_ll_usb.c ****         if (++count > 1000U)
1825:Drivers/STM32F2xx_HAL_Driver/Src/stm32f2xx_ll_usb.c ****         {
1826:Drivers/STM32F2xx_HAL_Driver/Src/stm32f2xx_ll_usb.c ****           break;
1827:Drivers/STM32F2xx_HAL_Driver/Src/stm32f2xx_ll_usb.c ****         }
1828:Drivers/STM32F2xx_HAL_Driver/Src/stm32f2xx_ll_usb.c ****       }
1829:Drivers/STM32F2xx_HAL_Driver/Src/stm32f2xx_ll_usb.c ****       while ((USBx_HC(hcnum)->HCCHAR & USB_OTG_HCCHAR_CHENA) == USB_OTG_HCCHAR_CHENA);
1830:Drivers/STM32F2xx_HAL_Driver/Src/stm32f2xx_ll_usb.c ****     }
1831:Drivers/STM32F2xx_HAL_Driver/Src/stm32f2xx_ll_usb.c ****     else
1832:Drivers/STM32F2xx_HAL_Driver/Src/stm32f2xx_ll_usb.c ****     {
1833:Drivers/STM32F2xx_HAL_Driver/Src/stm32f2xx_ll_usb.c ****       USBx_HC(hcnum)->HCCHAR |= USB_OTG_HCCHAR_CHENA;
1834:Drivers/STM32F2xx_HAL_Driver/Src/stm32f2xx_ll_usb.c ****     }
1835:Drivers/STM32F2xx_HAL_Driver/Src/stm32f2xx_ll_usb.c ****   }
1836:Drivers/STM32F2xx_HAL_Driver/Src/stm32f2xx_ll_usb.c ****   else
1837:Drivers/STM32F2xx_HAL_Driver/Src/stm32f2xx_ll_usb.c ****   {
1838:Drivers/STM32F2xx_HAL_Driver/Src/stm32f2xx_ll_usb.c ****     USBx_HC(hcnum)->HCCHAR |= USB_OTG_HCCHAR_CHDIS;
 4126              		.loc 1 1838 5 is_stmt 1 view .LVU1273
 4127              		.loc 1 1838 28 is_stmt 0 view .LVU1274
 4128 0018 D1F80035 		ldr	r3, [r1, #1280]
 4129              	.LVL339:
 4130              		.loc 1 1838 28 view .LVU1275
 4131 001c 43F08043 		orr	r3, r3, #1073741824
 4132 0020 C1F80035 		str	r3, [r1, #1280]
1839:Drivers/STM32F2xx_HAL_Driver/Src/stm32f2xx_ll_usb.c **** 
1840:Drivers/STM32F2xx_HAL_Driver/Src/stm32f2xx_ll_usb.c ****     if ((USBx_HOST->HPTXSTS & (0xFFU << 16)) == 0U)
 4133              		.loc 1 1840 5 is_stmt 1 view .LVU1276
 4134              		.loc 1 1840 19 is_stmt 0 view .LVU1277
 4135 0024 D0F81034 		ldr	r3, [r0, #1040]
 4136              		.loc 1 1840 8 view .LVU1278
 4137 0028 13F47F0F 		tst	r3, #16711680
 4138 002c 48D1     		bne	.L272
1841:Drivers/STM32F2xx_HAL_Driver/Src/stm32f2xx_ll_usb.c ****     {
1842:Drivers/STM32F2xx_HAL_Driver/Src/stm32f2xx_ll_usb.c ****       USBx_HC(hcnum)->HCCHAR &= ~USB_OTG_HCCHAR_CHENA;
 4139              		.loc 1 1842 7 is_stmt 1 view .LVU1279
 4140              		.loc 1 1842 30 is_stmt 0 view .LVU1280
 4141 002e D1F80035 		ldr	r3, [r1, #1280]
 4142 0032 23F00043 		bic	r3, r3, #-2147483648
 4143 0036 C1F80035 		str	r3, [r1, #1280]
1843:Drivers/STM32F2xx_HAL_Driver/Src/stm32f2xx_ll_usb.c ****       USBx_HC(hcnum)->HCCHAR |= USB_OTG_HCCHAR_CHENA;
 4144              		.loc 1 1843 7 is_stmt 1 view .LVU1281
 4145              		.loc 1 1843 30 is_stmt 0 view .LVU1282
 4146 003a D1F80035 		ldr	r3, [r1, #1280]
 4147 003e 43F00043 		orr	r3, r3, #-2147483648
 4148 0042 C1F80035 		str	r3, [r1, #1280]
1844:Drivers/STM32F2xx_HAL_Driver/Src/stm32f2xx_ll_usb.c ****       USBx_HC(hcnum)->HCCHAR &= ~USB_OTG_HCCHAR_EPDIR;
ARM GAS  C:\Users\User\AppData\Local\Temp\ccY05dYU.s 			page 124


 4149              		.loc 1 1844 7 is_stmt 1 view .LVU1283
 4150              		.loc 1 1844 30 is_stmt 0 view .LVU1284
 4151 0046 D1F80035 		ldr	r3, [r1, #1280]
 4152 004a 23F40043 		bic	r3, r3, #32768
 4153 004e C1F80035 		str	r3, [r1, #1280]
1809:Drivers/STM32F2xx_HAL_Driver/Src/stm32f2xx_ll_usb.c ****   uint32_t HcEpType = (USBx_HC(hcnum)->HCCHAR & USB_OTG_HCCHAR_EPTYP) >> 18;
 4154              		.loc 1 1809 12 view .LVU1285
 4155 0052 0023     		movs	r3, #0
 4156              	.LVL340:
 4157              	.L273:
1845:Drivers/STM32F2xx_HAL_Driver/Src/stm32f2xx_ll_usb.c ****       do
 4158              		.loc 1 1845 7 is_stmt 1 view .LVU1286
1846:Drivers/STM32F2xx_HAL_Driver/Src/stm32f2xx_ll_usb.c ****       {
1847:Drivers/STM32F2xx_HAL_Driver/Src/stm32f2xx_ll_usb.c ****         if (++count > 1000U)
 4159              		.loc 1 1847 9 view .LVU1287
 4160              		.loc 1 1847 12 is_stmt 0 view .LVU1288
 4161 0054 0133     		adds	r3, r3, #1
 4162              	.LVL341:
 4163              		.loc 1 1847 12 view .LVU1289
 4164 0056 B3F57A7F 		cmp	r3, #1000
 4165 005a 2ED8     		bhi	.L270
1848:Drivers/STM32F2xx_HAL_Driver/Src/stm32f2xx_ll_usb.c ****         {
1849:Drivers/STM32F2xx_HAL_Driver/Src/stm32f2xx_ll_usb.c ****           break;
1850:Drivers/STM32F2xx_HAL_Driver/Src/stm32f2xx_ll_usb.c ****         }
1851:Drivers/STM32F2xx_HAL_Driver/Src/stm32f2xx_ll_usb.c ****       }
1852:Drivers/STM32F2xx_HAL_Driver/Src/stm32f2xx_ll_usb.c ****       while ((USBx_HC(hcnum)->HCCHAR & USB_OTG_HCCHAR_CHENA) == USB_OTG_HCCHAR_CHENA);
 4166              		.loc 1 1852 29 view .LVU1290
 4167 005c 2268     		ldr	r2, [r4]
 4168              		.loc 1 1852 7 view .LVU1291
 4169 005e 002A     		cmp	r2, #0
 4170 0060 F8DB     		blt	.L273
 4171 0062 2AE0     		b	.L270
 4172              	.LVL342:
 4173              	.L267:
1815:Drivers/STM32F2xx_HAL_Driver/Src/stm32f2xx_ll_usb.c **** 
 4174              		.loc 1 1815 5 is_stmt 1 view .LVU1292
1815:Drivers/STM32F2xx_HAL_Driver/Src/stm32f2xx_ll_usb.c **** 
 4175              		.loc 1 1815 28 is_stmt 0 view .LVU1293
 4176 0064 D1F80035 		ldr	r3, [r1, #1280]
 4177              	.LVL343:
1815:Drivers/STM32F2xx_HAL_Driver/Src/stm32f2xx_ll_usb.c **** 
 4178              		.loc 1 1815 28 view .LVU1294
 4179 0068 43F08043 		orr	r3, r3, #1073741824
 4180 006c C1F80035 		str	r3, [r1, #1280]
1817:Drivers/STM32F2xx_HAL_Driver/Src/stm32f2xx_ll_usb.c ****     {
 4181              		.loc 1 1817 5 is_stmt 1 view .LVU1295
1817:Drivers/STM32F2xx_HAL_Driver/Src/stm32f2xx_ll_usb.c ****     {
 4182              		.loc 1 1817 14 is_stmt 0 view .LVU1296
 4183 0070 C36A     		ldr	r3, [r0, #44]
1817:Drivers/STM32F2xx_HAL_Driver/Src/stm32f2xx_ll_usb.c ****     {
 4184              		.loc 1 1817 8 view .LVU1297
 4185 0072 13F47F0F 		tst	r3, #16711680
 4186 0076 1AD1     		bne	.L269
1819:Drivers/STM32F2xx_HAL_Driver/Src/stm32f2xx_ll_usb.c ****       USBx_HC(hcnum)->HCCHAR |= USB_OTG_HCCHAR_CHENA;
 4187              		.loc 1 1819 7 is_stmt 1 view .LVU1298
1819:Drivers/STM32F2xx_HAL_Driver/Src/stm32f2xx_ll_usb.c ****       USBx_HC(hcnum)->HCCHAR |= USB_OTG_HCCHAR_CHENA;
 4188              		.loc 1 1819 30 is_stmt 0 view .LVU1299
ARM GAS  C:\Users\User\AppData\Local\Temp\ccY05dYU.s 			page 125


 4189 0078 D1F80035 		ldr	r3, [r1, #1280]
 4190 007c 23F00043 		bic	r3, r3, #-2147483648
 4191 0080 C1F80035 		str	r3, [r1, #1280]
1820:Drivers/STM32F2xx_HAL_Driver/Src/stm32f2xx_ll_usb.c ****       USBx_HC(hcnum)->HCCHAR &= ~USB_OTG_HCCHAR_EPDIR;
 4192              		.loc 1 1820 7 is_stmt 1 view .LVU1300
1820:Drivers/STM32F2xx_HAL_Driver/Src/stm32f2xx_ll_usb.c ****       USBx_HC(hcnum)->HCCHAR &= ~USB_OTG_HCCHAR_EPDIR;
 4193              		.loc 1 1820 30 is_stmt 0 view .LVU1301
 4194 0084 D1F80035 		ldr	r3, [r1, #1280]
 4195 0088 43F00043 		orr	r3, r3, #-2147483648
 4196 008c C1F80035 		str	r3, [r1, #1280]
1821:Drivers/STM32F2xx_HAL_Driver/Src/stm32f2xx_ll_usb.c ****       do
 4197              		.loc 1 1821 7 is_stmt 1 view .LVU1302
1821:Drivers/STM32F2xx_HAL_Driver/Src/stm32f2xx_ll_usb.c ****       do
 4198              		.loc 1 1821 30 is_stmt 0 view .LVU1303
 4199 0090 D1F80035 		ldr	r3, [r1, #1280]
 4200 0094 23F40043 		bic	r3, r3, #32768
 4201 0098 C1F80035 		str	r3, [r1, #1280]
1809:Drivers/STM32F2xx_HAL_Driver/Src/stm32f2xx_ll_usb.c ****   uint32_t HcEpType = (USBx_HC(hcnum)->HCCHAR & USB_OTG_HCCHAR_EPTYP) >> 18;
 4202              		.loc 1 1809 12 view .LVU1304
 4203 009c 0023     		movs	r3, #0
 4204              	.LVL344:
 4205              	.L271:
1822:Drivers/STM32F2xx_HAL_Driver/Src/stm32f2xx_ll_usb.c ****       {
 4206              		.loc 1 1822 7 is_stmt 1 view .LVU1305
1824:Drivers/STM32F2xx_HAL_Driver/Src/stm32f2xx_ll_usb.c ****         {
 4207              		.loc 1 1824 9 view .LVU1306
1824:Drivers/STM32F2xx_HAL_Driver/Src/stm32f2xx_ll_usb.c ****         {
 4208              		.loc 1 1824 12 is_stmt 0 view .LVU1307
 4209 009e 0133     		adds	r3, r3, #1
 4210              	.LVL345:
1824:Drivers/STM32F2xx_HAL_Driver/Src/stm32f2xx_ll_usb.c ****         {
 4211              		.loc 1 1824 12 view .LVU1308
 4212 00a0 B3F57A7F 		cmp	r3, #1000
 4213 00a4 09D8     		bhi	.L270
1829:Drivers/STM32F2xx_HAL_Driver/Src/stm32f2xx_ll_usb.c ****     }
 4214              		.loc 1 1829 29 view .LVU1309
 4215 00a6 2268     		ldr	r2, [r4]
1829:Drivers/STM32F2xx_HAL_Driver/Src/stm32f2xx_ll_usb.c ****     }
 4216              		.loc 1 1829 7 view .LVU1310
 4217 00a8 002A     		cmp	r2, #0
 4218 00aa F8DB     		blt	.L271
 4219 00ac 05E0     		b	.L270
 4220              	.LVL346:
 4221              	.L269:
1833:Drivers/STM32F2xx_HAL_Driver/Src/stm32f2xx_ll_usb.c ****     }
 4222              		.loc 1 1833 7 is_stmt 1 view .LVU1311
1833:Drivers/STM32F2xx_HAL_Driver/Src/stm32f2xx_ll_usb.c ****     }
 4223              		.loc 1 1833 30 is_stmt 0 view .LVU1312
 4224 00ae D1F80035 		ldr	r3, [r1, #1280]
 4225 00b2 43F00043 		orr	r3, r3, #-2147483648
 4226 00b6 C1F80035 		str	r3, [r1, #1280]
 4227              	.LVL347:
 4228              	.L270:
1853:Drivers/STM32F2xx_HAL_Driver/Src/stm32f2xx_ll_usb.c ****     }
1854:Drivers/STM32F2xx_HAL_Driver/Src/stm32f2xx_ll_usb.c ****     else
1855:Drivers/STM32F2xx_HAL_Driver/Src/stm32f2xx_ll_usb.c ****     {
1856:Drivers/STM32F2xx_HAL_Driver/Src/stm32f2xx_ll_usb.c ****       USBx_HC(hcnum)->HCCHAR |= USB_OTG_HCCHAR_CHENA;
ARM GAS  C:\Users\User\AppData\Local\Temp\ccY05dYU.s 			page 126


1857:Drivers/STM32F2xx_HAL_Driver/Src/stm32f2xx_ll_usb.c ****     }
1858:Drivers/STM32F2xx_HAL_Driver/Src/stm32f2xx_ll_usb.c ****   }
1859:Drivers/STM32F2xx_HAL_Driver/Src/stm32f2xx_ll_usb.c **** 
1860:Drivers/STM32F2xx_HAL_Driver/Src/stm32f2xx_ll_usb.c ****   return HAL_OK;
 4229              		.loc 1 1860 3 is_stmt 1 view .LVU1313
1861:Drivers/STM32F2xx_HAL_Driver/Src/stm32f2xx_ll_usb.c **** }
 4230              		.loc 1 1861 1 is_stmt 0 view .LVU1314
 4231 00ba 0020     		movs	r0, #0
 4232              	.LVL348:
 4233              		.loc 1 1861 1 view .LVU1315
 4234 00bc 10BC     		pop	{r4}
 4235              	.LCFI57:
 4236              		.cfi_remember_state
 4237              		.cfi_restore 4
 4238              		.cfi_def_cfa_offset 0
 4239 00be 7047     		bx	lr
 4240              	.LVL349:
 4241              	.L272:
 4242              	.LCFI58:
 4243              		.cfi_restore_state
1856:Drivers/STM32F2xx_HAL_Driver/Src/stm32f2xx_ll_usb.c ****     }
 4244              		.loc 1 1856 7 is_stmt 1 view .LVU1316
1856:Drivers/STM32F2xx_HAL_Driver/Src/stm32f2xx_ll_usb.c ****     }
 4245              		.loc 1 1856 30 is_stmt 0 view .LVU1317
 4246 00c0 D1F80035 		ldr	r3, [r1, #1280]
 4247 00c4 43F00043 		orr	r3, r3, #-2147483648
 4248 00c8 C1F80035 		str	r3, [r1, #1280]
 4249 00cc F5E7     		b	.L270
 4250              		.cfi_endproc
 4251              	.LFE115:
 4253              		.section	.text.USB_DoPing,"ax",%progbits
 4254              		.align	1
 4255              		.global	USB_DoPing
 4256              		.syntax unified
 4257              		.thumb
 4258              		.thumb_func
 4259              		.fpu softvfp
 4261              	USB_DoPing:
 4262              	.LVL350:
 4263              	.LFB116:
1862:Drivers/STM32F2xx_HAL_Driver/Src/stm32f2xx_ll_usb.c **** 
1863:Drivers/STM32F2xx_HAL_Driver/Src/stm32f2xx_ll_usb.c **** /**
1864:Drivers/STM32F2xx_HAL_Driver/Src/stm32f2xx_ll_usb.c ****   * @brief  Initiate Do Ping protocol
1865:Drivers/STM32F2xx_HAL_Driver/Src/stm32f2xx_ll_usb.c ****   * @param  USBx  Selected device
1866:Drivers/STM32F2xx_HAL_Driver/Src/stm32f2xx_ll_usb.c ****   * @param  hc_num  Host Channel number
1867:Drivers/STM32F2xx_HAL_Driver/Src/stm32f2xx_ll_usb.c ****   *         This parameter can be a value from 1 to 15
1868:Drivers/STM32F2xx_HAL_Driver/Src/stm32f2xx_ll_usb.c ****   * @retval HAL state
1869:Drivers/STM32F2xx_HAL_Driver/Src/stm32f2xx_ll_usb.c ****   */
1870:Drivers/STM32F2xx_HAL_Driver/Src/stm32f2xx_ll_usb.c **** HAL_StatusTypeDef USB_DoPing(USB_OTG_GlobalTypeDef *USBx, uint8_t ch_num)
1871:Drivers/STM32F2xx_HAL_Driver/Src/stm32f2xx_ll_usb.c **** {
 4264              		.loc 1 1871 1 is_stmt 1 view -0
 4265              		.cfi_startproc
 4266              		@ args = 0, pretend = 0, frame = 0
 4267              		@ frame_needed = 0, uses_anonymous_args = 0
 4268              		@ link register save eliminated.
1872:Drivers/STM32F2xx_HAL_Driver/Src/stm32f2xx_ll_usb.c ****   uint32_t USBx_BASE = (uint32_t)USBx;
 4269              		.loc 1 1872 3 view .LVU1319
ARM GAS  C:\Users\User\AppData\Local\Temp\ccY05dYU.s 			page 127


1873:Drivers/STM32F2xx_HAL_Driver/Src/stm32f2xx_ll_usb.c ****   uint32_t chnum = (uint32_t)ch_num;
 4270              		.loc 1 1873 3 view .LVU1320
1874:Drivers/STM32F2xx_HAL_Driver/Src/stm32f2xx_ll_usb.c ****   uint32_t num_packets = 1U;
 4271              		.loc 1 1874 3 view .LVU1321
1875:Drivers/STM32F2xx_HAL_Driver/Src/stm32f2xx_ll_usb.c ****   uint32_t tmpreg;
 4272              		.loc 1 1875 3 view .LVU1322
1876:Drivers/STM32F2xx_HAL_Driver/Src/stm32f2xx_ll_usb.c **** 
1877:Drivers/STM32F2xx_HAL_Driver/Src/stm32f2xx_ll_usb.c ****   USBx_HC(chnum)->HCTSIZ = ((num_packets << 19) & USB_OTG_HCTSIZ_PKTCNT) |
 4273              		.loc 1 1877 3 view .LVU1323
 4274 0000 00EB4111 		add	r1, r0, r1, lsl #5
 4275              	.LVL351:
 4276              		.loc 1 1877 26 is_stmt 0 view .LVU1324
 4277 0004 064A     		ldr	r2, .L276
 4278 0006 C1F81025 		str	r2, [r1, #1296]
1878:Drivers/STM32F2xx_HAL_Driver/Src/stm32f2xx_ll_usb.c ****                            USB_OTG_HCTSIZ_DOPING;
1879:Drivers/STM32F2xx_HAL_Driver/Src/stm32f2xx_ll_usb.c **** 
1880:Drivers/STM32F2xx_HAL_Driver/Src/stm32f2xx_ll_usb.c ****   /* Set host channel enable */
1881:Drivers/STM32F2xx_HAL_Driver/Src/stm32f2xx_ll_usb.c ****   tmpreg = USBx_HC(chnum)->HCCHAR;
 4279              		.loc 1 1881 3 is_stmt 1 view .LVU1325
 4280              		.loc 1 1881 10 is_stmt 0 view .LVU1326
 4281 000a D1F80035 		ldr	r3, [r1, #1280]
 4282              	.LVL352:
1882:Drivers/STM32F2xx_HAL_Driver/Src/stm32f2xx_ll_usb.c ****   tmpreg &= ~USB_OTG_HCCHAR_CHDIS;
 4283              		.loc 1 1882 3 is_stmt 1 view .LVU1327
 4284              		.loc 1 1882 10 is_stmt 0 view .LVU1328
 4285 000e 23F08043 		bic	r3, r3, #1073741824
 4286              	.LVL353:
1883:Drivers/STM32F2xx_HAL_Driver/Src/stm32f2xx_ll_usb.c ****   tmpreg |= USB_OTG_HCCHAR_CHENA;
 4287              		.loc 1 1883 3 is_stmt 1 view .LVU1329
 4288              		.loc 1 1883 10 is_stmt 0 view .LVU1330
 4289 0012 43F00043 		orr	r3, r3, #-2147483648
 4290              	.LVL354:
1884:Drivers/STM32F2xx_HAL_Driver/Src/stm32f2xx_ll_usb.c ****   USBx_HC(chnum)->HCCHAR = tmpreg;
 4291              		.loc 1 1884 3 is_stmt 1 view .LVU1331
 4292              		.loc 1 1884 26 is_stmt 0 view .LVU1332
 4293 0016 C1F80035 		str	r3, [r1, #1280]
1885:Drivers/STM32F2xx_HAL_Driver/Src/stm32f2xx_ll_usb.c **** 
1886:Drivers/STM32F2xx_HAL_Driver/Src/stm32f2xx_ll_usb.c ****   return HAL_OK;
 4294              		.loc 1 1886 3 is_stmt 1 view .LVU1333
1887:Drivers/STM32F2xx_HAL_Driver/Src/stm32f2xx_ll_usb.c **** }
 4295              		.loc 1 1887 1 is_stmt 0 view .LVU1334
 4296 001a 0020     		movs	r0, #0
 4297              	.LVL355:
 4298              		.loc 1 1887 1 view .LVU1335
 4299 001c 7047     		bx	lr
 4300              	.L277:
 4301 001e 00BF     		.align	2
 4302              	.L276:
 4303 0020 00000880 		.word	-2146959360
 4304              		.cfi_endproc
 4305              	.LFE116:
 4307              		.section	.text.USB_HC_StartXfer,"ax",%progbits
 4308              		.align	1
 4309              		.global	USB_HC_StartXfer
 4310              		.syntax unified
 4311              		.thumb
 4312              		.thumb_func
ARM GAS  C:\Users\User\AppData\Local\Temp\ccY05dYU.s 			page 128


 4313              		.fpu softvfp
 4315              	USB_HC_StartXfer:
 4316              	.LVL356:
 4317              	.LFB113:
1664:Drivers/STM32F2xx_HAL_Driver/Src/stm32f2xx_ll_usb.c ****   uint32_t USBx_BASE = (uint32_t)USBx;
 4318              		.loc 1 1664 1 is_stmt 1 view -0
 4319              		.cfi_startproc
 4320              		@ args = 0, pretend = 0, frame = 0
 4321              		@ frame_needed = 0, uses_anonymous_args = 0
1664:Drivers/STM32F2xx_HAL_Driver/Src/stm32f2xx_ll_usb.c ****   uint32_t USBx_BASE = (uint32_t)USBx;
 4322              		.loc 1 1664 1 is_stmt 0 view .LVU1337
 4323 0000 70B5     		push	{r4, r5, r6, lr}
 4324              	.LCFI59:
 4325              		.cfi_def_cfa_offset 16
 4326              		.cfi_offset 4, -16
 4327              		.cfi_offset 5, -12
 4328              		.cfi_offset 6, -8
 4329              		.cfi_offset 14, -4
 4330 0002 82B0     		sub	sp, sp, #8
 4331              	.LCFI60:
 4332              		.cfi_def_cfa_offset 24
1665:Drivers/STM32F2xx_HAL_Driver/Src/stm32f2xx_ll_usb.c ****   uint32_t ch_num = (uint32_t)hc->ch_num;
 4333              		.loc 1 1665 3 is_stmt 1 view .LVU1338
 4334              	.LVL357:
1666:Drivers/STM32F2xx_HAL_Driver/Src/stm32f2xx_ll_usb.c ****   static __IO uint32_t tmpreg = 0U;
 4335              		.loc 1 1666 3 view .LVU1339
1666:Drivers/STM32F2xx_HAL_Driver/Src/stm32f2xx_ll_usb.c ****   static __IO uint32_t tmpreg = 0U;
 4336              		.loc 1 1666 33 is_stmt 0 view .LVU1340
 4337 0004 4C78     		ldrb	r4, [r1, #1]	@ zero_extendqisi2
 4338              	.LVL358:
1667:Drivers/STM32F2xx_HAL_Driver/Src/stm32f2xx_ll_usb.c ****   uint8_t  is_oddframe;
 4339              		.loc 1 1667 3 is_stmt 1 view .LVU1341
1668:Drivers/STM32F2xx_HAL_Driver/Src/stm32f2xx_ll_usb.c ****   uint16_t len_words;
 4340              		.loc 1 1668 3 view .LVU1342
1669:Drivers/STM32F2xx_HAL_Driver/Src/stm32f2xx_ll_usb.c ****   uint16_t num_packets;
 4341              		.loc 1 1669 3 view .LVU1343
1670:Drivers/STM32F2xx_HAL_Driver/Src/stm32f2xx_ll_usb.c ****   uint16_t max_hc_pkt_count = 256U;
 4342              		.loc 1 1670 3 view .LVU1344
1671:Drivers/STM32F2xx_HAL_Driver/Src/stm32f2xx_ll_usb.c **** 
 4343              		.loc 1 1671 3 view .LVU1345
1673:Drivers/STM32F2xx_HAL_Driver/Src/stm32f2xx_ll_usb.c ****   {
 4344              		.loc 1 1673 3 view .LVU1346
1673:Drivers/STM32F2xx_HAL_Driver/Src/stm32f2xx_ll_usb.c ****   {
 4345              		.loc 1 1673 13 is_stmt 0 view .LVU1347
 4346 0006 C36B     		ldr	r3, [r0, #60]
1673:Drivers/STM32F2xx_HAL_Driver/Src/stm32f2xx_ll_usb.c ****   {
 4347              		.loc 1 1673 6 view .LVU1348
 4348 0008 13F4807F 		tst	r3, #256
 4349 000c 07D0     		beq	.L279
1673:Drivers/STM32F2xx_HAL_Driver/Src/stm32f2xx_ll_usb.c ****   {
 4350              		.loc 1 1673 47 discriminator 1 view .LVU1349
 4351 000e 0B79     		ldrb	r3, [r1, #4]	@ zero_extendqisi2
1673:Drivers/STM32F2xx_HAL_Driver/Src/stm32f2xx_ll_usb.c ****   {
 4352              		.loc 1 1673 41 discriminator 1 view .LVU1350
 4353 0010 2BB9     		cbnz	r3, .L279
1675:Drivers/STM32F2xx_HAL_Driver/Src/stm32f2xx_ll_usb.c ****     {
 4354              		.loc 1 1675 5 is_stmt 1 view .LVU1351
ARM GAS  C:\Users\User\AppData\Local\Temp\ccY05dYU.s 			page 129


1675:Drivers/STM32F2xx_HAL_Driver/Src/stm32f2xx_ll_usb.c ****     {
 4355              		.loc 1 1675 8 is_stmt 0 view .LVU1352
 4356 0012 12B9     		cbnz	r2, .L280
1675:Drivers/STM32F2xx_HAL_Driver/Src/stm32f2xx_ll_usb.c ****     {
 4357              		.loc 1 1675 27 discriminator 1 view .LVU1353
 4358 0014 4B79     		ldrb	r3, [r1, #5]	@ zero_extendqisi2
1675:Drivers/STM32F2xx_HAL_Driver/Src/stm32f2xx_ll_usb.c ****     {
 4359              		.loc 1 1675 21 discriminator 1 view .LVU1354
 4360 0016 012B     		cmp	r3, #1
 4361 0018 11D0     		beq	.L293
 4362              	.L280:
1680:Drivers/STM32F2xx_HAL_Driver/Src/stm32f2xx_ll_usb.c ****     {
 4363              		.loc 1 1680 10 is_stmt 1 view .LVU1355
1680:Drivers/STM32F2xx_HAL_Driver/Src/stm32f2xx_ll_usb.c ****     {
 4364              		.loc 1 1680 13 is_stmt 0 view .LVU1356
 4365 001a 012A     		cmp	r2, #1
 4366 001c 13D0     		beq	.L294
 4367              	.L279:
1688:Drivers/STM32F2xx_HAL_Driver/Src/stm32f2xx_ll_usb.c ****   }
 4368              		.loc 1 1688 5 is_stmt 1 view .LVU1357
1692:Drivers/STM32F2xx_HAL_Driver/Src/stm32f2xx_ll_usb.c ****   {
 4369              		.loc 1 1692 3 view .LVU1358
1692:Drivers/STM32F2xx_HAL_Driver/Src/stm32f2xx_ll_usb.c ****   {
 4370              		.loc 1 1692 9 is_stmt 0 view .LVU1359
 4371 001e 0B69     		ldr	r3, [r1, #16]
1692:Drivers/STM32F2xx_HAL_Driver/Src/stm32f2xx_ll_usb.c ****   {
 4372              		.loc 1 1692 6 view .LVU1360
 4373 0020 E3B1     		cbz	r3, .L291
1694:Drivers/STM32F2xx_HAL_Driver/Src/stm32f2xx_ll_usb.c **** 
 4374              		.loc 1 1694 5 is_stmt 1 view .LVU1361
1694:Drivers/STM32F2xx_HAL_Driver/Src/stm32f2xx_ll_usb.c **** 
 4375              		.loc 1 1694 48 is_stmt 0 view .LVU1362
 4376 0022 0D89     		ldrh	r5, [r1, #8]
1694:Drivers/STM32F2xx_HAL_Driver/Src/stm32f2xx_ll_usb.c **** 
 4377              		.loc 1 1694 44 view .LVU1363
 4378 0024 2B44     		add	r3, r3, r5
1694:Drivers/STM32F2xx_HAL_Driver/Src/stm32f2xx_ll_usb.c **** 
 4379              		.loc 1 1694 61 view .LVU1364
 4380 0026 013B     		subs	r3, r3, #1
1694:Drivers/STM32F2xx_HAL_Driver/Src/stm32f2xx_ll_usb.c **** 
 4381              		.loc 1 1694 67 view .LVU1365
 4382 0028 B3FBF5F3 		udiv	r3, r3, r5
1694:Drivers/STM32F2xx_HAL_Driver/Src/stm32f2xx_ll_usb.c **** 
 4383              		.loc 1 1694 17 view .LVU1366
 4384 002c 9BB2     		uxth	r3, r3
 4385              	.LVL359:
1696:Drivers/STM32F2xx_HAL_Driver/Src/stm32f2xx_ll_usb.c ****     {
 4386              		.loc 1 1696 5 is_stmt 1 view .LVU1367
1696:Drivers/STM32F2xx_HAL_Driver/Src/stm32f2xx_ll_usb.c ****     {
 4387              		.loc 1 1696 8 is_stmt 0 view .LVU1368
 4388 002e B3F5807F 		cmp	r3, #256
 4389 0032 14D9     		bls	.L282
1698:Drivers/STM32F2xx_HAL_Driver/Src/stm32f2xx_ll_usb.c ****       hc->xfer_len = (uint32_t)num_packets * hc->max_packet;
 4390              		.loc 1 1698 7 is_stmt 1 view .LVU1369
 4391              	.LVL360:
1699:Drivers/STM32F2xx_HAL_Driver/Src/stm32f2xx_ll_usb.c ****     }
 4392              		.loc 1 1699 7 view .LVU1370
ARM GAS  C:\Users\User\AppData\Local\Temp\ccY05dYU.s 			page 130


1699:Drivers/STM32F2xx_HAL_Driver/Src/stm32f2xx_ll_usb.c ****     }
 4393              		.loc 1 1699 44 is_stmt 0 view .LVU1371
 4394 0034 2D02     		lsls	r5, r5, #8
1699:Drivers/STM32F2xx_HAL_Driver/Src/stm32f2xx_ll_usb.c ****     }
 4395              		.loc 1 1699 20 view .LVU1372
 4396 0036 0D61     		str	r5, [r1, #16]
1698:Drivers/STM32F2xx_HAL_Driver/Src/stm32f2xx_ll_usb.c ****       hc->xfer_len = (uint32_t)num_packets * hc->max_packet;
 4397              		.loc 1 1698 19 view .LVU1373
 4398 0038 4FF48073 		mov	r3, #256
 4399 003c 0FE0     		b	.L282
 4400              	.LVL361:
 4401              	.L293:
1677:Drivers/STM32F2xx_HAL_Driver/Src/stm32f2xx_ll_usb.c ****       return HAL_OK;
 4402              		.loc 1 1677 7 is_stmt 1 view .LVU1374
1677:Drivers/STM32F2xx_HAL_Driver/Src/stm32f2xx_ll_usb.c ****       return HAL_OK;
 4403              		.loc 1 1677 13 is_stmt 0 view .LVU1375
 4404 003e 2146     		mov	r1, r4
 4405              	.LVL362:
1677:Drivers/STM32F2xx_HAL_Driver/Src/stm32f2xx_ll_usb.c ****       return HAL_OK;
 4406              		.loc 1 1677 13 view .LVU1376
 4407 0040 FFF7FEFF 		bl	USB_DoPing
 4408              	.LVL363:
1678:Drivers/STM32F2xx_HAL_Driver/Src/stm32f2xx_ll_usb.c ****     }
 4409              		.loc 1 1678 7 is_stmt 1 view .LVU1377
1678:Drivers/STM32F2xx_HAL_Driver/Src/stm32f2xx_ll_usb.c ****     }
 4410              		.loc 1 1678 14 is_stmt 0 view .LVU1378
 4411 0044 74E0     		b	.L281
 4412              	.LVL364:
 4413              	.L294:
1682:Drivers/STM32F2xx_HAL_Driver/Src/stm32f2xx_ll_usb.c ****       hc->do_ping = 0U;
 4414              		.loc 1 1682 7 is_stmt 1 view .LVU1379
1682:Drivers/STM32F2xx_HAL_Driver/Src/stm32f2xx_ll_usb.c ****       hc->do_ping = 0U;
 4415              		.loc 1 1682 33 is_stmt 0 view .LVU1380
 4416 0046 00EB4413 		add	r3, r0, r4, lsl #5
 4417 004a D3F80C55 		ldr	r5, [r3, #1292]
 4418 004e 25F06005 		bic	r5, r5, #96
 4419 0052 C3F80C55 		str	r5, [r3, #1292]
1683:Drivers/STM32F2xx_HAL_Driver/Src/stm32f2xx_ll_usb.c ****     }
 4420              		.loc 1 1683 7 is_stmt 1 view .LVU1381
1683:Drivers/STM32F2xx_HAL_Driver/Src/stm32f2xx_ll_usb.c ****     }
 4421              		.loc 1 1683 19 is_stmt 0 view .LVU1382
 4422 0056 0023     		movs	r3, #0
 4423 0058 4B71     		strb	r3, [r1, #5]
 4424 005a E0E7     		b	.L279
 4425              	.L291:
1704:Drivers/STM32F2xx_HAL_Driver/Src/stm32f2xx_ll_usb.c ****   }
 4426              		.loc 1 1704 17 view .LVU1383
 4427 005c 0123     		movs	r3, #1
 4428              	.L282:
 4429              	.LVL365:
1706:Drivers/STM32F2xx_HAL_Driver/Src/stm32f2xx_ll_usb.c ****   {
 4430              		.loc 1 1706 3 is_stmt 1 view .LVU1384
1706:Drivers/STM32F2xx_HAL_Driver/Src/stm32f2xx_ll_usb.c ****   {
 4431              		.loc 1 1706 9 is_stmt 0 view .LVU1385
 4432 005e CD78     		ldrb	r5, [r1, #3]	@ zero_extendqisi2
1706:Drivers/STM32F2xx_HAL_Driver/Src/stm32f2xx_ll_usb.c ****   {
 4433              		.loc 1 1706 6 view .LVU1386
ARM GAS  C:\Users\User\AppData\Local\Temp\ccY05dYU.s 			page 131


 4434 0060 1DB1     		cbz	r5, .L283
1708:Drivers/STM32F2xx_HAL_Driver/Src/stm32f2xx_ll_usb.c ****   }
 4435              		.loc 1 1708 5 is_stmt 1 view .LVU1387
1708:Drivers/STM32F2xx_HAL_Driver/Src/stm32f2xx_ll_usb.c ****   }
 4436              		.loc 1 1708 46 is_stmt 0 view .LVU1388
 4437 0062 0D89     		ldrh	r5, [r1, #8]
1708:Drivers/STM32F2xx_HAL_Driver/Src/stm32f2xx_ll_usb.c ****   }
 4438              		.loc 1 1708 42 view .LVU1389
 4439 0064 05FB03F5 		mul	r5, r5, r3
1708:Drivers/STM32F2xx_HAL_Driver/Src/stm32f2xx_ll_usb.c ****   }
 4440              		.loc 1 1708 18 view .LVU1390
 4441 0068 0D61     		str	r5, [r1, #16]
 4442              	.L283:
1712:Drivers/STM32F2xx_HAL_Driver/Src/stm32f2xx_ll_usb.c ****                             (((uint32_t)num_packets << 19) & USB_OTG_HCTSIZ_PKTCNT) |
 4443              		.loc 1 1712 3 is_stmt 1 view .LVU1391
1712:Drivers/STM32F2xx_HAL_Driver/Src/stm32f2xx_ll_usb.c ****                             (((uint32_t)num_packets << 19) & USB_OTG_HCTSIZ_PKTCNT) |
 4444              		.loc 1 1712 32 is_stmt 0 view .LVU1392
 4445 006a 0D69     		ldr	r5, [r1, #16]
1712:Drivers/STM32F2xx_HAL_Driver/Src/stm32f2xx_ll_usb.c ****                             (((uint32_t)num_packets << 19) & USB_OTG_HCTSIZ_PKTCNT) |
 4446              		.loc 1 1712 43 view .LVU1393
 4447 006c C5F31205 		ubfx	r5, r5, #0, #19
1713:Drivers/STM32F2xx_HAL_Driver/Src/stm32f2xx_ll_usb.c ****                             (((uint32_t)hc->data_pid << 29) & USB_OTG_HCTSIZ_DPID);
 4448              		.loc 1 1713 60 view .LVU1394
 4449 0070 374E     		ldr	r6, .L295
 4450 0072 06EAC343 		and	r3, r6, r3, lsl #19
 4451              	.LVL366:
1712:Drivers/STM32F2xx_HAL_Driver/Src/stm32f2xx_ll_usb.c ****                             (((uint32_t)num_packets << 19) & USB_OTG_HCTSIZ_PKTCNT) |
 4452              		.loc 1 1712 68 view .LVU1395
 4453 0076 1D43     		orrs	r5, r5, r3
1714:Drivers/STM32F2xx_HAL_Driver/Src/stm32f2xx_ll_usb.c **** 
 4454              		.loc 1 1714 43 view .LVU1396
 4455 0078 8B7A     		ldrb	r3, [r1, #10]	@ zero_extendqisi2
1714:Drivers/STM32F2xx_HAL_Driver/Src/stm32f2xx_ll_usb.c **** 
 4456              		.loc 1 1714 54 view .LVU1397
 4457 007a 5B07     		lsls	r3, r3, #29
1714:Drivers/STM32F2xx_HAL_Driver/Src/stm32f2xx_ll_usb.c **** 
 4458              		.loc 1 1714 61 view .LVU1398
 4459 007c 03F0C043 		and	r3, r3, #1610612736
1712:Drivers/STM32F2xx_HAL_Driver/Src/stm32f2xx_ll_usb.c ****                             (((uint32_t)num_packets << 19) & USB_OTG_HCTSIZ_PKTCNT) |
 4460              		.loc 1 1712 3 view .LVU1399
 4461 0080 00EB4414 		add	r4, r0, r4, lsl #5
 4462              	.LVL367:
1713:Drivers/STM32F2xx_HAL_Driver/Src/stm32f2xx_ll_usb.c ****                             (((uint32_t)hc->data_pid << 29) & USB_OTG_HCTSIZ_DPID);
 4463              		.loc 1 1713 85 view .LVU1400
 4464 0084 1D43     		orrs	r5, r5, r3
1712:Drivers/STM32F2xx_HAL_Driver/Src/stm32f2xx_ll_usb.c ****                             (((uint32_t)num_packets << 19) & USB_OTG_HCTSIZ_PKTCNT) |
 4465              		.loc 1 1712 27 view .LVU1401
 4466 0086 C4F81055 		str	r5, [r4, #1296]
1716:Drivers/STM32F2xx_HAL_Driver/Src/stm32f2xx_ll_usb.c ****   {
 4467              		.loc 1 1716 3 is_stmt 1 view .LVU1402
1716:Drivers/STM32F2xx_HAL_Driver/Src/stm32f2xx_ll_usb.c ****   {
 4468              		.loc 1 1716 6 is_stmt 0 view .LVU1403
 4469 008a 12B1     		cbz	r2, .L284
1719:Drivers/STM32F2xx_HAL_Driver/Src/stm32f2xx_ll_usb.c ****   }
 4470              		.loc 1 1719 5 is_stmt 1 view .LVU1404
1719:Drivers/STM32F2xx_HAL_Driver/Src/stm32f2xx_ll_usb.c ****   }
 4471              		.loc 1 1719 42 is_stmt 0 view .LVU1405
ARM GAS  C:\Users\User\AppData\Local\Temp\ccY05dYU.s 			page 132


 4472 008c CB68     		ldr	r3, [r1, #12]
1719:Drivers/STM32F2xx_HAL_Driver/Src/stm32f2xx_ll_usb.c ****   }
 4473              		.loc 1 1719 28 view .LVU1406
 4474 008e C4F81435 		str	r3, [r4, #1300]
 4475              	.L284:
1722:Drivers/STM32F2xx_HAL_Driver/Src/stm32f2xx_ll_usb.c ****   USBx_HC(ch_num)->HCCHAR &= ~USB_OTG_HCCHAR_ODDFRM;
 4476              		.loc 1 1722 3 is_stmt 1 view .LVU1407
1722:Drivers/STM32F2xx_HAL_Driver/Src/stm32f2xx_ll_usb.c ****   USBx_HC(ch_num)->HCCHAR &= ~USB_OTG_HCCHAR_ODDFRM;
 4477              		.loc 1 1722 29 is_stmt 0 view .LVU1408
 4478 0092 00F58066 		add	r6, r0, #1024
1722:Drivers/STM32F2xx_HAL_Driver/Src/stm32f2xx_ll_usb.c ****   USBx_HC(ch_num)->HCCHAR &= ~USB_OTG_HCCHAR_ODDFRM;
 4479              		.loc 1 1722 38 view .LVU1409
 4480 0096 B368     		ldr	r3, [r6, #8]
1722:Drivers/STM32F2xx_HAL_Driver/Src/stm32f2xx_ll_usb.c ****   USBx_HC(ch_num)->HCCHAR &= ~USB_OTG_HCCHAR_ODDFRM;
 4481              		.loc 1 1722 67 view .LVU1410
 4482 0098 13F0010F 		tst	r3, #1
 4483              	.LVL368:
1723:Drivers/STM32F2xx_HAL_Driver/Src/stm32f2xx_ll_usb.c ****   USBx_HC(ch_num)->HCCHAR |= (uint32_t)is_oddframe << 29;
 4484              		.loc 1 1723 3 is_stmt 1 view .LVU1411
1723:Drivers/STM32F2xx_HAL_Driver/Src/stm32f2xx_ll_usb.c ****   USBx_HC(ch_num)->HCCHAR |= (uint32_t)is_oddframe << 29;
 4485              		.loc 1 1723 27 is_stmt 0 view .LVU1412
 4486 009c D4F80035 		ldr	r3, [r4, #1280]
 4487 00a0 23F00053 		bic	r3, r3, #536870912
 4488 00a4 C4F80035 		str	r3, [r4, #1280]
1724:Drivers/STM32F2xx_HAL_Driver/Src/stm32f2xx_ll_usb.c **** 
 4489              		.loc 1 1724 3 is_stmt 1 view .LVU1413
1724:Drivers/STM32F2xx_HAL_Driver/Src/stm32f2xx_ll_usb.c **** 
 4490              		.loc 1 1724 27 is_stmt 0 view .LVU1414
 4491 00a8 D4F80035 		ldr	r3, [r4, #1280]
1724:Drivers/STM32F2xx_HAL_Driver/Src/stm32f2xx_ll_usb.c **** 
 4492              		.loc 1 1724 52 view .LVU1415
 4493 00ac 0CBF     		ite	eq
 4494 00ae 4FF00055 		moveq	r5, #536870912
 4495 00b2 0025     		movne	r5, #0
1724:Drivers/STM32F2xx_HAL_Driver/Src/stm32f2xx_ll_usb.c **** 
 4496              		.loc 1 1724 27 view .LVU1416
 4497 00b4 2B43     		orrs	r3, r3, r5
 4498 00b6 C4F80035 		str	r3, [r4, #1280]
1727:Drivers/STM32F2xx_HAL_Driver/Src/stm32f2xx_ll_usb.c ****   tmpreg &= ~USB_OTG_HCCHAR_CHDIS;
 4499              		.loc 1 1727 3 is_stmt 1 view .LVU1417
1727:Drivers/STM32F2xx_HAL_Driver/Src/stm32f2xx_ll_usb.c ****   tmpreg &= ~USB_OTG_HCCHAR_CHDIS;
 4500              		.loc 1 1727 27 is_stmt 0 view .LVU1418
 4501 00ba D4F80055 		ldr	r5, [r4, #1280]
1727:Drivers/STM32F2xx_HAL_Driver/Src/stm32f2xx_ll_usb.c ****   tmpreg &= ~USB_OTG_HCCHAR_CHDIS;
 4502              		.loc 1 1727 10 view .LVU1419
 4503 00be 254B     		ldr	r3, .L295+4
 4504 00c0 1D60     		str	r5, [r3]
1728:Drivers/STM32F2xx_HAL_Driver/Src/stm32f2xx_ll_usb.c **** 
 4505              		.loc 1 1728 3 is_stmt 1 view .LVU1420
1728:Drivers/STM32F2xx_HAL_Driver/Src/stm32f2xx_ll_usb.c **** 
 4506              		.loc 1 1728 10 is_stmt 0 view .LVU1421
 4507 00c2 1D68     		ldr	r5, [r3]
 4508 00c4 25F08045 		bic	r5, r5, #1073741824
 4509 00c8 1D60     		str	r5, [r3]
1731:Drivers/STM32F2xx_HAL_Driver/Src/stm32f2xx_ll_usb.c ****   {
 4510              		.loc 1 1731 3 is_stmt 1 view .LVU1422
1731:Drivers/STM32F2xx_HAL_Driver/Src/stm32f2xx_ll_usb.c ****   {
ARM GAS  C:\Users\User\AppData\Local\Temp\ccY05dYU.s 			page 133


 4511              		.loc 1 1731 9 is_stmt 0 view .LVU1423
 4512 00ca CB78     		ldrb	r3, [r1, #3]	@ zero_extendqisi2
1731:Drivers/STM32F2xx_HAL_Driver/Src/stm32f2xx_ll_usb.c ****   {
 4513              		.loc 1 1731 6 view .LVU1424
 4514 00cc C3B1     		cbz	r3, .L285
 4515              	.LVL369:
1733:Drivers/STM32F2xx_HAL_Driver/Src/stm32f2xx_ll_usb.c ****   }
 4516              		.loc 1 1733 5 is_stmt 1 view .LVU1425
1733:Drivers/STM32F2xx_HAL_Driver/Src/stm32f2xx_ll_usb.c ****   }
 4517              		.loc 1 1733 12 is_stmt 0 view .LVU1426
 4518 00ce 214D     		ldr	r5, .L295+4
 4519 00d0 2B68     		ldr	r3, [r5]
 4520 00d2 43F40043 		orr	r3, r3, #32768
 4521 00d6 2B60     		str	r3, [r5]
 4522              	.L286:
1739:Drivers/STM32F2xx_HAL_Driver/Src/stm32f2xx_ll_usb.c ****   USBx_HC(ch_num)->HCCHAR = tmpreg;
 4523              		.loc 1 1739 3 is_stmt 1 view .LVU1427
1739:Drivers/STM32F2xx_HAL_Driver/Src/stm32f2xx_ll_usb.c ****   USBx_HC(ch_num)->HCCHAR = tmpreg;
 4524              		.loc 1 1739 10 is_stmt 0 view .LVU1428
 4525 00d8 1E4B     		ldr	r3, .L295+4
 4526 00da 1D68     		ldr	r5, [r3]
 4527 00dc 45F00045 		orr	r5, r5, #-2147483648
 4528 00e0 1D60     		str	r5, [r3]
1740:Drivers/STM32F2xx_HAL_Driver/Src/stm32f2xx_ll_usb.c **** 
 4529              		.loc 1 1740 3 is_stmt 1 view .LVU1429
1740:Drivers/STM32F2xx_HAL_Driver/Src/stm32f2xx_ll_usb.c **** 
 4530              		.loc 1 1740 27 is_stmt 0 view .LVU1430
 4531 00e2 1B68     		ldr	r3, [r3]
 4532 00e4 C4F80035 		str	r3, [r4, #1280]
1742:Drivers/STM32F2xx_HAL_Driver/Src/stm32f2xx_ll_usb.c ****   {
 4533              		.loc 1 1742 3 is_stmt 1 view .LVU1431
1742:Drivers/STM32F2xx_HAL_Driver/Src/stm32f2xx_ll_usb.c ****   {
 4534              		.loc 1 1742 6 is_stmt 0 view .LVU1432
 4535 00e8 12BB     		cbnz	r2, .L281
1744:Drivers/STM32F2xx_HAL_Driver/Src/stm32f2xx_ll_usb.c ****     {
 4536              		.loc 1 1744 5 is_stmt 1 view .LVU1433
1744:Drivers/STM32F2xx_HAL_Driver/Src/stm32f2xx_ll_usb.c ****     {
 4537              		.loc 1 1744 12 is_stmt 0 view .LVU1434
 4538 00ea CB78     		ldrb	r3, [r1, #3]	@ zero_extendqisi2
1744:Drivers/STM32F2xx_HAL_Driver/Src/stm32f2xx_ll_usb.c ****     {
 4539              		.loc 1 1744 8 view .LVU1435
 4540 00ec 03BB     		cbnz	r3, .L281
1744:Drivers/STM32F2xx_HAL_Driver/Src/stm32f2xx_ll_usb.c ****     {
 4541              		.loc 1 1744 36 discriminator 1 view .LVU1436
 4542 00ee 0B69     		ldr	r3, [r1, #16]
1744:Drivers/STM32F2xx_HAL_Driver/Src/stm32f2xx_ll_usb.c ****     {
 4543              		.loc 1 1744 30 discriminator 1 view .LVU1437
 4544 00f0 F3B1     		cbz	r3, .L281
1746:Drivers/STM32F2xx_HAL_Driver/Src/stm32f2xx_ll_usb.c ****       {
 4545              		.loc 1 1746 7 is_stmt 1 view .LVU1438
1746:Drivers/STM32F2xx_HAL_Driver/Src/stm32f2xx_ll_usb.c ****       {
 4546              		.loc 1 1746 17 is_stmt 0 view .LVU1439
 4547 00f2 CA79     		ldrb	r2, [r1, #7]	@ zero_extendqisi2
 4548              	.LVL370:
1746:Drivers/STM32F2xx_HAL_Driver/Src/stm32f2xx_ll_usb.c ****       {
 4549              		.loc 1 1746 7 view .LVU1440
 4550 00f4 032A     		cmp	r2, #3
ARM GAS  C:\Users\User\AppData\Local\Temp\ccY05dYU.s 			page 134


 4551 00f6 14D8     		bhi	.L287
 4552 00f8 DFE802F0 		tbb	[pc, r2]
 4553              	.L289:
 4554 00fc 08       		.byte	(.L290-.L289)/2
 4555 00fd 1D       		.byte	(.L288-.L289)/2
 4556 00fe 08       		.byte	(.L290-.L289)/2
 4557 00ff 1D       		.byte	(.L288-.L289)/2
 4558              	.LVL371:
 4559              		.p2align 1
 4560              	.L285:
1737:Drivers/STM32F2xx_HAL_Driver/Src/stm32f2xx_ll_usb.c ****   }
 4561              		.loc 1 1737 5 is_stmt 1 view .LVU1441
1737:Drivers/STM32F2xx_HAL_Driver/Src/stm32f2xx_ll_usb.c ****   }
 4562              		.loc 1 1737 12 is_stmt 0 view .LVU1442
 4563 0100 144D     		ldr	r5, .L295+4
 4564 0102 2B68     		ldr	r3, [r5]
 4565 0104 23F40043 		bic	r3, r3, #32768
 4566 0108 2B60     		str	r3, [r5]
 4567 010a E5E7     		b	.L286
 4568              	.LVL372:
 4569              	.L290:
1752:Drivers/STM32F2xx_HAL_Driver/Src/stm32f2xx_ll_usb.c **** 
 4570              		.loc 1 1752 11 is_stmt 1 view .LVU1443
1752:Drivers/STM32F2xx_HAL_Driver/Src/stm32f2xx_ll_usb.c **** 
 4571              		.loc 1 1752 48 is_stmt 0 view .LVU1444
 4572 010c 0333     		adds	r3, r3, #3
 4573              	.LVL373:
1755:Drivers/STM32F2xx_HAL_Driver/Src/stm32f2xx_ll_usb.c ****           {
 4574              		.loc 1 1755 11 is_stmt 1 view .LVU1445
1755:Drivers/STM32F2xx_HAL_Driver/Src/stm32f2xx_ll_usb.c ****           {
 4575              		.loc 1 1755 32 is_stmt 0 view .LVU1446
 4576 010e C26A     		ldr	r2, [r0, #44]
1755:Drivers/STM32F2xx_HAL_Driver/Src/stm32f2xx_ll_usb.c ****           {
 4577              		.loc 1 1755 43 view .LVU1447
 4578 0110 92B2     		uxth	r2, r2
1755:Drivers/STM32F2xx_HAL_Driver/Src/stm32f2xx_ll_usb.c ****           {
 4579              		.loc 1 1755 14 view .LVU1448
 4580 0112 C3F38F03 		ubfx	r3, r3, #2, #16
 4581              	.LVL374:
1755:Drivers/STM32F2xx_HAL_Driver/Src/stm32f2xx_ll_usb.c ****           {
 4582              		.loc 1 1755 14 view .LVU1449
 4583 0116 9A42     		cmp	r2, r3
 4584 0118 03D2     		bcs	.L287
1758:Drivers/STM32F2xx_HAL_Driver/Src/stm32f2xx_ll_usb.c ****           }
 4585              		.loc 1 1758 13 is_stmt 1 view .LVU1450
1758:Drivers/STM32F2xx_HAL_Driver/Src/stm32f2xx_ll_usb.c ****           }
 4586              		.loc 1 1758 27 is_stmt 0 view .LVU1451
 4587 011a 8369     		ldr	r3, [r0, #24]
 4588 011c 43F02003 		orr	r3, r3, #32
 4589 0120 8361     		str	r3, [r0, #24]
 4590              	.LVL375:
 4591              	.L287:
1779:Drivers/STM32F2xx_HAL_Driver/Src/stm32f2xx_ll_usb.c ****     }
 4592              		.loc 1 1779 7 is_stmt 1 view .LVU1452
1779:Drivers/STM32F2xx_HAL_Driver/Src/stm32f2xx_ll_usb.c ****     }
 4593              		.loc 1 1779 13 is_stmt 0 view .LVU1453
 4594 0122 0023     		movs	r3, #0
ARM GAS  C:\Users\User\AppData\Local\Temp\ccY05dYU.s 			page 135


 4595 0124 0093     		str	r3, [sp]
 4596 0126 0B8A     		ldrh	r3, [r1, #16]
 4597 0128 4A78     		ldrb	r2, [r1, #1]	@ zero_extendqisi2
 4598 012a C968     		ldr	r1, [r1, #12]
 4599              	.LVL376:
1779:Drivers/STM32F2xx_HAL_Driver/Src/stm32f2xx_ll_usb.c ****     }
 4600              		.loc 1 1779 13 view .LVU1454
 4601 012c FFF7FEFF 		bl	USB_WritePacket
 4602              	.LVL377:
 4603              	.L281:
1784:Drivers/STM32F2xx_HAL_Driver/Src/stm32f2xx_ll_usb.c **** 
 4604              		.loc 1 1784 1 view .LVU1455
 4605 0130 0020     		movs	r0, #0
 4606 0132 02B0     		add	sp, sp, #8
 4607              	.LCFI61:
 4608              		.cfi_remember_state
 4609              		.cfi_def_cfa_offset 16
 4610              		@ sp needed
 4611 0134 70BD     		pop	{r4, r5, r6, pc}
 4612              	.LVL378:
 4613              	.L288:
 4614              	.LCFI62:
 4615              		.cfi_restore_state
1765:Drivers/STM32F2xx_HAL_Driver/Src/stm32f2xx_ll_usb.c ****           /* check if there is enough space in FIFO space */
 4616              		.loc 1 1765 11 is_stmt 1 view .LVU1456
1765:Drivers/STM32F2xx_HAL_Driver/Src/stm32f2xx_ll_usb.c ****           /* check if there is enough space in FIFO space */
 4617              		.loc 1 1765 48 is_stmt 0 view .LVU1457
 4618 0136 0333     		adds	r3, r3, #3
 4619              	.LVL379:
1767:Drivers/STM32F2xx_HAL_Driver/Src/stm32f2xx_ll_usb.c ****           {
 4620              		.loc 1 1767 11 is_stmt 1 view .LVU1458
1767:Drivers/STM32F2xx_HAL_Driver/Src/stm32f2xx_ll_usb.c ****           {
 4621              		.loc 1 1767 37 is_stmt 0 view .LVU1459
 4622 0138 3269     		ldr	r2, [r6, #16]
1767:Drivers/STM32F2xx_HAL_Driver/Src/stm32f2xx_ll_usb.c ****           {
 4623              		.loc 1 1767 47 view .LVU1460
 4624 013a 92B2     		uxth	r2, r2
1767:Drivers/STM32F2xx_HAL_Driver/Src/stm32f2xx_ll_usb.c ****           {
 4625              		.loc 1 1767 14 view .LVU1461
 4626 013c C3F38F03 		ubfx	r3, r3, #2, #16
 4627              	.LVL380:
1767:Drivers/STM32F2xx_HAL_Driver/Src/stm32f2xx_ll_usb.c ****           {
 4628              		.loc 1 1767 14 view .LVU1462
 4629 0140 9A42     		cmp	r2, r3
 4630 0142 EED2     		bcs	.L287
1770:Drivers/STM32F2xx_HAL_Driver/Src/stm32f2xx_ll_usb.c ****           }
 4631              		.loc 1 1770 13 is_stmt 1 view .LVU1463
1770:Drivers/STM32F2xx_HAL_Driver/Src/stm32f2xx_ll_usb.c ****           }
 4632              		.loc 1 1770 27 is_stmt 0 view .LVU1464
 4633 0144 8369     		ldr	r3, [r0, #24]
 4634 0146 43F08063 		orr	r3, r3, #67108864
 4635 014a 8361     		str	r3, [r0, #24]
 4636              	.LVL381:
1770:Drivers/STM32F2xx_HAL_Driver/Src/stm32f2xx_ll_usb.c ****           }
 4637              		.loc 1 1770 27 view .LVU1465
 4638 014c E9E7     		b	.L287
 4639              	.L296:
ARM GAS  C:\Users\User\AppData\Local\Temp\ccY05dYU.s 			page 136


 4640 014e 00BF     		.align	2
 4641              	.L295:
 4642 0150 0000F81F 		.word	536346624
 4643 0154 00000000 		.word	.LANCHOR0
 4644              		.cfi_endproc
 4645              	.LFE113:
 4647              		.section	.text.USB_StopHost,"ax",%progbits
 4648              		.align	1
 4649              		.global	USB_StopHost
 4650              		.syntax unified
 4651              		.thumb
 4652              		.thumb_func
 4653              		.fpu softvfp
 4655              	USB_StopHost:
 4656              	.LVL382:
 4657              	.LFB117:
1888:Drivers/STM32F2xx_HAL_Driver/Src/stm32f2xx_ll_usb.c **** 
1889:Drivers/STM32F2xx_HAL_Driver/Src/stm32f2xx_ll_usb.c **** /**
1890:Drivers/STM32F2xx_HAL_Driver/Src/stm32f2xx_ll_usb.c ****   * @brief  Stop Host Core
1891:Drivers/STM32F2xx_HAL_Driver/Src/stm32f2xx_ll_usb.c ****   * @param  USBx  Selected device
1892:Drivers/STM32F2xx_HAL_Driver/Src/stm32f2xx_ll_usb.c ****   * @retval HAL state
1893:Drivers/STM32F2xx_HAL_Driver/Src/stm32f2xx_ll_usb.c ****   */
1894:Drivers/STM32F2xx_HAL_Driver/Src/stm32f2xx_ll_usb.c **** HAL_StatusTypeDef USB_StopHost(USB_OTG_GlobalTypeDef *USBx)
1895:Drivers/STM32F2xx_HAL_Driver/Src/stm32f2xx_ll_usb.c **** {
 4658              		.loc 1 1895 1 is_stmt 1 view -0
 4659              		.cfi_startproc
 4660              		@ args = 0, pretend = 0, frame = 0
 4661              		@ frame_needed = 0, uses_anonymous_args = 0
 4662              		.loc 1 1895 1 is_stmt 0 view .LVU1467
 4663 0000 70B5     		push	{r4, r5, r6, lr}
 4664              	.LCFI63:
 4665              		.cfi_def_cfa_offset 16
 4666              		.cfi_offset 4, -16
 4667              		.cfi_offset 5, -12
 4668              		.cfi_offset 6, -8
 4669              		.cfi_offset 14, -4
 4670 0002 0546     		mov	r5, r0
1896:Drivers/STM32F2xx_HAL_Driver/Src/stm32f2xx_ll_usb.c ****   uint32_t USBx_BASE = (uint32_t)USBx;
 4671              		.loc 1 1896 3 is_stmt 1 view .LVU1468
 4672              		.loc 1 1896 12 is_stmt 0 view .LVU1469
 4673 0004 0446     		mov	r4, r0
 4674              	.LVL383:
1897:Drivers/STM32F2xx_HAL_Driver/Src/stm32f2xx_ll_usb.c ****   uint32_t count = 0U;
 4675              		.loc 1 1897 3 is_stmt 1 view .LVU1470
1898:Drivers/STM32F2xx_HAL_Driver/Src/stm32f2xx_ll_usb.c ****   uint32_t value;
 4676              		.loc 1 1898 3 view .LVU1471
1899:Drivers/STM32F2xx_HAL_Driver/Src/stm32f2xx_ll_usb.c ****   uint32_t i;
 4677              		.loc 1 1899 3 view .LVU1472
1900:Drivers/STM32F2xx_HAL_Driver/Src/stm32f2xx_ll_usb.c **** 
1901:Drivers/STM32F2xx_HAL_Driver/Src/stm32f2xx_ll_usb.c ****   (void)USB_DisableGlobalInt(USBx);
 4678              		.loc 1 1901 3 view .LVU1473
 4679              		.loc 1 1901 9 is_stmt 0 view .LVU1474
 4680 0006 FFF7FEFF 		bl	USB_DisableGlobalInt
 4681              	.LVL384:
1902:Drivers/STM32F2xx_HAL_Driver/Src/stm32f2xx_ll_usb.c **** 
1903:Drivers/STM32F2xx_HAL_Driver/Src/stm32f2xx_ll_usb.c ****   /* Flush FIFO */
1904:Drivers/STM32F2xx_HAL_Driver/Src/stm32f2xx_ll_usb.c ****   (void)USB_FlushTxFifo(USBx, 0x10U);
ARM GAS  C:\Users\User\AppData\Local\Temp\ccY05dYU.s 			page 137


 4682              		.loc 1 1904 3 is_stmt 1 view .LVU1475
 4683              		.loc 1 1904 9 is_stmt 0 view .LVU1476
 4684 000a 1021     		movs	r1, #16
 4685 000c 2846     		mov	r0, r5
 4686 000e FFF7FEFF 		bl	USB_FlushTxFifo
 4687              	.LVL385:
1905:Drivers/STM32F2xx_HAL_Driver/Src/stm32f2xx_ll_usb.c ****   (void)USB_FlushRxFifo(USBx);
 4688              		.loc 1 1905 3 is_stmt 1 view .LVU1477
 4689              		.loc 1 1905 9 is_stmt 0 view .LVU1478
 4690 0012 2846     		mov	r0, r5
 4691 0014 FFF7FEFF 		bl	USB_FlushRxFifo
 4692              	.LVL386:
1906:Drivers/STM32F2xx_HAL_Driver/Src/stm32f2xx_ll_usb.c **** 
1907:Drivers/STM32F2xx_HAL_Driver/Src/stm32f2xx_ll_usb.c ****   /* Flush out any leftover queued requests. */
1908:Drivers/STM32F2xx_HAL_Driver/Src/stm32f2xx_ll_usb.c ****   for (i = 0U; i <= 15U; i++)
 4693              		.loc 1 1908 3 is_stmt 1 view .LVU1479
 4694              		.loc 1 1908 10 is_stmt 0 view .LVU1480
 4695 0018 0022     		movs	r2, #0
 4696              		.loc 1 1908 3 view .LVU1481
 4697 001a 0AE0     		b	.L298
 4698              	.LVL387:
 4699              	.L299:
1909:Drivers/STM32F2xx_HAL_Driver/Src/stm32f2xx_ll_usb.c ****   {
1910:Drivers/STM32F2xx_HAL_Driver/Src/stm32f2xx_ll_usb.c ****     value = USBx_HC(i)->HCCHAR;
 4700              		.loc 1 1910 5 is_stmt 1 discriminator 3 view .LVU1482
 4701              		.loc 1 1910 13 is_stmt 0 discriminator 3 view .LVU1483
 4702 001c 04EB4211 		add	r1, r4, r2, lsl #5
 4703              		.loc 1 1910 11 discriminator 3 view .LVU1484
 4704 0020 D1F80035 		ldr	r3, [r1, #1280]
 4705              	.LVL388:
1911:Drivers/STM32F2xx_HAL_Driver/Src/stm32f2xx_ll_usb.c ****     value |=  USB_OTG_HCCHAR_CHDIS;
 4706              		.loc 1 1911 5 is_stmt 1 discriminator 3 view .LVU1485
1912:Drivers/STM32F2xx_HAL_Driver/Src/stm32f2xx_ll_usb.c ****     value &= ~USB_OTG_HCCHAR_CHENA;
 4707              		.loc 1 1912 5 discriminator 3 view .LVU1486
1913:Drivers/STM32F2xx_HAL_Driver/Src/stm32f2xx_ll_usb.c ****     value &= ~USB_OTG_HCCHAR_EPDIR;
 4708              		.loc 1 1913 5 discriminator 3 view .LVU1487
 4709 0024 23F08023 		bic	r3, r3, #-2147450880
 4710              	.LVL389:
 4711              		.loc 1 1913 11 is_stmt 0 discriminator 3 view .LVU1488
 4712 0028 43F08043 		orr	r3, r3, #1073741824
 4713              	.LVL390:
1914:Drivers/STM32F2xx_HAL_Driver/Src/stm32f2xx_ll_usb.c ****     USBx_HC(i)->HCCHAR = value;
 4714              		.loc 1 1914 5 is_stmt 1 discriminator 3 view .LVU1489
 4715              		.loc 1 1914 24 is_stmt 0 discriminator 3 view .LVU1490
 4716 002c C1F80035 		str	r3, [r1, #1280]
1908:Drivers/STM32F2xx_HAL_Driver/Src/stm32f2xx_ll_usb.c ****   {
 4717              		.loc 1 1908 27 discriminator 3 view .LVU1491
 4718 0030 0132     		adds	r2, r2, #1
 4719              	.LVL391:
 4720              	.L298:
1908:Drivers/STM32F2xx_HAL_Driver/Src/stm32f2xx_ll_usb.c ****   {
 4721              		.loc 1 1908 3 discriminator 1 view .LVU1492
 4722 0032 0F2A     		cmp	r2, #15
 4723 0034 F2D9     		bls	.L299
1915:Drivers/STM32F2xx_HAL_Driver/Src/stm32f2xx_ll_usb.c ****   }
1916:Drivers/STM32F2xx_HAL_Driver/Src/stm32f2xx_ll_usb.c **** 
1917:Drivers/STM32F2xx_HAL_Driver/Src/stm32f2xx_ll_usb.c ****   /* Halt all channels to put them into a known state. */
ARM GAS  C:\Users\User\AppData\Local\Temp\ccY05dYU.s 			page 138


1918:Drivers/STM32F2xx_HAL_Driver/Src/stm32f2xx_ll_usb.c ****   for (i = 0U; i <= 15U; i++)
 4724              		.loc 1 1918 10 view .LVU1493
 4725 0036 0020     		movs	r0, #0
1897:Drivers/STM32F2xx_HAL_Driver/Src/stm32f2xx_ll_usb.c ****   uint32_t value;
 4726              		.loc 1 1897 12 view .LVU1494
 4727 0038 0346     		mov	r3, r0
 4728 003a 00E0     		b	.L300
 4729              	.LVL392:
 4730              	.L301:
 4731              		.loc 1 1918 27 discriminator 2 view .LVU1495
 4732 003c 0130     		adds	r0, r0, #1
 4733              	.LVL393:
 4734              	.L300:
 4735              		.loc 1 1918 3 discriminator 1 view .LVU1496
 4736 003e 0F28     		cmp	r0, #15
 4737 0040 13D8     		bhi	.L305
1919:Drivers/STM32F2xx_HAL_Driver/Src/stm32f2xx_ll_usb.c ****   {
1920:Drivers/STM32F2xx_HAL_Driver/Src/stm32f2xx_ll_usb.c ****     value = USBx_HC(i)->HCCHAR;
 4738              		.loc 1 1920 5 is_stmt 1 view .LVU1497
 4739              		.loc 1 1920 13 is_stmt 0 view .LVU1498
 4740 0042 04EB4016 		add	r6, r4, r0, lsl #5
 4741 0046 06F5A061 		add	r1, r6, #1280
 4742              		.loc 1 1920 11 view .LVU1499
 4743 004a D6F80025 		ldr	r2, [r6, #1280]
 4744              	.LVL394:
1921:Drivers/STM32F2xx_HAL_Driver/Src/stm32f2xx_ll_usb.c ****     value |= USB_OTG_HCCHAR_CHDIS;
 4745              		.loc 1 1921 5 is_stmt 1 view .LVU1500
1922:Drivers/STM32F2xx_HAL_Driver/Src/stm32f2xx_ll_usb.c ****     value |= USB_OTG_HCCHAR_CHENA;
 4746              		.loc 1 1922 5 view .LVU1501
1923:Drivers/STM32F2xx_HAL_Driver/Src/stm32f2xx_ll_usb.c ****     value &= ~USB_OTG_HCCHAR_EPDIR;
 4747              		.loc 1 1923 5 view .LVU1502
 4748 004e 22F40042 		bic	r2, r2, #32768
 4749              	.LVL395:
 4750              		.loc 1 1923 11 is_stmt 0 view .LVU1503
 4751 0052 42F04042 		orr	r2, r2, #-1073741824
 4752              	.LVL396:
1924:Drivers/STM32F2xx_HAL_Driver/Src/stm32f2xx_ll_usb.c ****     USBx_HC(i)->HCCHAR = value;
 4753              		.loc 1 1924 5 is_stmt 1 view .LVU1504
 4754              		.loc 1 1924 24 is_stmt 0 view .LVU1505
 4755 0056 C6F80025 		str	r2, [r6, #1280]
 4756              	.LVL397:
 4757              	.L302:
1925:Drivers/STM32F2xx_HAL_Driver/Src/stm32f2xx_ll_usb.c **** 
1926:Drivers/STM32F2xx_HAL_Driver/Src/stm32f2xx_ll_usb.c ****     do
 4758              		.loc 1 1926 5 is_stmt 1 view .LVU1506
1927:Drivers/STM32F2xx_HAL_Driver/Src/stm32f2xx_ll_usb.c ****     {
1928:Drivers/STM32F2xx_HAL_Driver/Src/stm32f2xx_ll_usb.c ****       if (++count > 1000U)
 4759              		.loc 1 1928 7 view .LVU1507
 4760              		.loc 1 1928 10 is_stmt 0 view .LVU1508
 4761 005a 0133     		adds	r3, r3, #1
 4762              	.LVL398:
 4763              		.loc 1 1928 10 view .LVU1509
 4764 005c B3F57A7F 		cmp	r3, #1000
 4765 0060 ECD8     		bhi	.L301
1929:Drivers/STM32F2xx_HAL_Driver/Src/stm32f2xx_ll_usb.c ****       {
1930:Drivers/STM32F2xx_HAL_Driver/Src/stm32f2xx_ll_usb.c ****         break;
1931:Drivers/STM32F2xx_HAL_Driver/Src/stm32f2xx_ll_usb.c ****       }
ARM GAS  C:\Users\User\AppData\Local\Temp\ccY05dYU.s 			page 139


1932:Drivers/STM32F2xx_HAL_Driver/Src/stm32f2xx_ll_usb.c ****     }
1933:Drivers/STM32F2xx_HAL_Driver/Src/stm32f2xx_ll_usb.c ****     while ((USBx_HC(i)->HCCHAR & USB_OTG_HCCHAR_CHENA) == USB_OTG_HCCHAR_CHENA);
 4766              		.loc 1 1933 23 view .LVU1510
 4767 0062 0A68     		ldr	r2, [r1]
 4768              		.loc 1 1933 5 view .LVU1511
 4769 0064 002A     		cmp	r2, #0
 4770 0066 F8DB     		blt	.L302
 4771 0068 E8E7     		b	.L301
 4772              	.LVL399:
 4773              	.L305:
1934:Drivers/STM32F2xx_HAL_Driver/Src/stm32f2xx_ll_usb.c ****   }
1935:Drivers/STM32F2xx_HAL_Driver/Src/stm32f2xx_ll_usb.c **** 
1936:Drivers/STM32F2xx_HAL_Driver/Src/stm32f2xx_ll_usb.c ****   /* Clear any pending Host interrupts */
1937:Drivers/STM32F2xx_HAL_Driver/Src/stm32f2xx_ll_usb.c ****   USBx_HOST->HAINT = 0xFFFFFFFFU;
 4774              		.loc 1 1937 3 is_stmt 1 view .LVU1512
 4775              		.loc 1 1937 20 is_stmt 0 view .LVU1513
 4776 006a 4FF0FF33 		mov	r3, #-1
 4777              	.LVL400:
 4778              		.loc 1 1937 20 view .LVU1514
 4779 006e C5F81434 		str	r3, [r5, #1044]
1938:Drivers/STM32F2xx_HAL_Driver/Src/stm32f2xx_ll_usb.c ****   USBx->GINTSTS = 0xFFFFFFFFU;
 4780              		.loc 1 1938 3 is_stmt 1 view .LVU1515
 4781              		.loc 1 1938 17 is_stmt 0 view .LVU1516
 4782 0072 6B61     		str	r3, [r5, #20]
1939:Drivers/STM32F2xx_HAL_Driver/Src/stm32f2xx_ll_usb.c **** 
1940:Drivers/STM32F2xx_HAL_Driver/Src/stm32f2xx_ll_usb.c ****   (void)USB_EnableGlobalInt(USBx);
 4783              		.loc 1 1940 3 is_stmt 1 view .LVU1517
 4784              		.loc 1 1940 9 is_stmt 0 view .LVU1518
 4785 0074 2846     		mov	r0, r5
 4786              	.LVL401:
 4787              		.loc 1 1940 9 view .LVU1519
 4788 0076 FFF7FEFF 		bl	USB_EnableGlobalInt
 4789              	.LVL402:
1941:Drivers/STM32F2xx_HAL_Driver/Src/stm32f2xx_ll_usb.c **** 
1942:Drivers/STM32F2xx_HAL_Driver/Src/stm32f2xx_ll_usb.c ****   return HAL_OK;
 4790              		.loc 1 1942 3 is_stmt 1 view .LVU1520
1943:Drivers/STM32F2xx_HAL_Driver/Src/stm32f2xx_ll_usb.c **** }
 4791              		.loc 1 1943 1 is_stmt 0 view .LVU1521
 4792 007a 0020     		movs	r0, #0
 4793 007c 70BD     		pop	{r4, r5, r6, pc}
 4794              		.loc 1 1943 1 view .LVU1522
 4795              		.cfi_endproc
 4796              	.LFE117:
 4798              		.section	.text.USB_ActivateRemoteWakeup,"ax",%progbits
 4799              		.align	1
 4800              		.global	USB_ActivateRemoteWakeup
 4801              		.syntax unified
 4802              		.thumb
 4803              		.thumb_func
 4804              		.fpu softvfp
 4806              	USB_ActivateRemoteWakeup:
 4807              	.LVL403:
 4808              	.LFB118:
1944:Drivers/STM32F2xx_HAL_Driver/Src/stm32f2xx_ll_usb.c **** 
1945:Drivers/STM32F2xx_HAL_Driver/Src/stm32f2xx_ll_usb.c **** /**
1946:Drivers/STM32F2xx_HAL_Driver/Src/stm32f2xx_ll_usb.c ****   * @brief  USB_ActivateRemoteWakeup active remote wakeup signalling
1947:Drivers/STM32F2xx_HAL_Driver/Src/stm32f2xx_ll_usb.c ****   * @param  USBx Selected device
ARM GAS  C:\Users\User\AppData\Local\Temp\ccY05dYU.s 			page 140


1948:Drivers/STM32F2xx_HAL_Driver/Src/stm32f2xx_ll_usb.c ****   * @retval HAL status
1949:Drivers/STM32F2xx_HAL_Driver/Src/stm32f2xx_ll_usb.c ****   */
1950:Drivers/STM32F2xx_HAL_Driver/Src/stm32f2xx_ll_usb.c **** HAL_StatusTypeDef USB_ActivateRemoteWakeup(USB_OTG_GlobalTypeDef *USBx)
1951:Drivers/STM32F2xx_HAL_Driver/Src/stm32f2xx_ll_usb.c **** {
 4809              		.loc 1 1951 1 is_stmt 1 view -0
 4810              		.cfi_startproc
 4811              		@ args = 0, pretend = 0, frame = 0
 4812              		@ frame_needed = 0, uses_anonymous_args = 0
 4813              		@ link register save eliminated.
1952:Drivers/STM32F2xx_HAL_Driver/Src/stm32f2xx_ll_usb.c ****   uint32_t USBx_BASE = (uint32_t)USBx;
 4814              		.loc 1 1952 3 view .LVU1524
1953:Drivers/STM32F2xx_HAL_Driver/Src/stm32f2xx_ll_usb.c **** 
1954:Drivers/STM32F2xx_HAL_Driver/Src/stm32f2xx_ll_usb.c ****   if ((USBx_DEVICE->DSTS & USB_OTG_DSTS_SUSPSTS) == USB_OTG_DSTS_SUSPSTS)
 4815              		.loc 1 1954 3 view .LVU1525
 4816              		.loc 1 1954 19 is_stmt 0 view .LVU1526
 4817 0000 D0F80838 		ldr	r3, [r0, #2056]
 4818              		.loc 1 1954 8 view .LVU1527
 4819 0004 00F50060 		add	r0, r0, #2048
 4820              	.LVL404:
 4821              		.loc 1 1954 6 view .LVU1528
 4822 0008 13F0010F 		tst	r3, #1
 4823 000c 03D0     		beq	.L307
1955:Drivers/STM32F2xx_HAL_Driver/Src/stm32f2xx_ll_usb.c ****   {
1956:Drivers/STM32F2xx_HAL_Driver/Src/stm32f2xx_ll_usb.c ****     /* active Remote wakeup signalling */
1957:Drivers/STM32F2xx_HAL_Driver/Src/stm32f2xx_ll_usb.c ****     USBx_DEVICE->DCTL |= USB_OTG_DCTL_RWUSIG;
 4824              		.loc 1 1957 5 is_stmt 1 view .LVU1529
 4825              		.loc 1 1957 23 is_stmt 0 view .LVU1530
 4826 000e 4368     		ldr	r3, [r0, #4]
 4827 0010 43F00103 		orr	r3, r3, #1
 4828 0014 4360     		str	r3, [r0, #4]
 4829              	.L307:
1958:Drivers/STM32F2xx_HAL_Driver/Src/stm32f2xx_ll_usb.c ****   }
1959:Drivers/STM32F2xx_HAL_Driver/Src/stm32f2xx_ll_usb.c **** 
1960:Drivers/STM32F2xx_HAL_Driver/Src/stm32f2xx_ll_usb.c ****   return HAL_OK;
 4830              		.loc 1 1960 3 is_stmt 1 view .LVU1531
1961:Drivers/STM32F2xx_HAL_Driver/Src/stm32f2xx_ll_usb.c **** }
 4831              		.loc 1 1961 1 is_stmt 0 view .LVU1532
 4832 0016 0020     		movs	r0, #0
 4833              	.LVL405:
 4834              		.loc 1 1961 1 view .LVU1533
 4835 0018 7047     		bx	lr
 4836              		.cfi_endproc
 4837              	.LFE118:
 4839              		.section	.text.USB_DeActivateRemoteWakeup,"ax",%progbits
 4840              		.align	1
 4841              		.global	USB_DeActivateRemoteWakeup
 4842              		.syntax unified
 4843              		.thumb
 4844              		.thumb_func
 4845              		.fpu softvfp
 4847              	USB_DeActivateRemoteWakeup:
 4848              	.LVL406:
 4849              	.LFB119:
1962:Drivers/STM32F2xx_HAL_Driver/Src/stm32f2xx_ll_usb.c **** 
1963:Drivers/STM32F2xx_HAL_Driver/Src/stm32f2xx_ll_usb.c **** /**
1964:Drivers/STM32F2xx_HAL_Driver/Src/stm32f2xx_ll_usb.c ****   * @brief  USB_DeActivateRemoteWakeup de-active remote wakeup signalling
1965:Drivers/STM32F2xx_HAL_Driver/Src/stm32f2xx_ll_usb.c ****   * @param  USBx Selected device
ARM GAS  C:\Users\User\AppData\Local\Temp\ccY05dYU.s 			page 141


1966:Drivers/STM32F2xx_HAL_Driver/Src/stm32f2xx_ll_usb.c ****   * @retval HAL status
1967:Drivers/STM32F2xx_HAL_Driver/Src/stm32f2xx_ll_usb.c ****   */
1968:Drivers/STM32F2xx_HAL_Driver/Src/stm32f2xx_ll_usb.c **** HAL_StatusTypeDef USB_DeActivateRemoteWakeup(USB_OTG_GlobalTypeDef *USBx)
1969:Drivers/STM32F2xx_HAL_Driver/Src/stm32f2xx_ll_usb.c **** {
 4850              		.loc 1 1969 1 is_stmt 1 view -0
 4851              		.cfi_startproc
 4852              		@ args = 0, pretend = 0, frame = 0
 4853              		@ frame_needed = 0, uses_anonymous_args = 0
 4854              		@ link register save eliminated.
1970:Drivers/STM32F2xx_HAL_Driver/Src/stm32f2xx_ll_usb.c ****   uint32_t USBx_BASE = (uint32_t)USBx;
 4855              		.loc 1 1970 3 view .LVU1535
1971:Drivers/STM32F2xx_HAL_Driver/Src/stm32f2xx_ll_usb.c **** 
1972:Drivers/STM32F2xx_HAL_Driver/Src/stm32f2xx_ll_usb.c ****   /* active Remote wakeup signalling */
1973:Drivers/STM32F2xx_HAL_Driver/Src/stm32f2xx_ll_usb.c ****   USBx_DEVICE->DCTL &= ~(USB_OTG_DCTL_RWUSIG);
 4856              		.loc 1 1973 3 view .LVU1536
 4857              		.loc 1 1973 21 is_stmt 0 view .LVU1537
 4858 0000 D0F80438 		ldr	r3, [r0, #2052]
 4859 0004 23F00103 		bic	r3, r3, #1
 4860 0008 C0F80438 		str	r3, [r0, #2052]
1974:Drivers/STM32F2xx_HAL_Driver/Src/stm32f2xx_ll_usb.c **** 
1975:Drivers/STM32F2xx_HAL_Driver/Src/stm32f2xx_ll_usb.c ****   return HAL_OK;
 4861              		.loc 1 1975 3 is_stmt 1 view .LVU1538
1976:Drivers/STM32F2xx_HAL_Driver/Src/stm32f2xx_ll_usb.c **** }
 4862              		.loc 1 1976 1 is_stmt 0 view .LVU1539
 4863 000c 0020     		movs	r0, #0
 4864              	.LVL407:
 4865              		.loc 1 1976 1 view .LVU1540
 4866 000e 7047     		bx	lr
 4867              		.cfi_endproc
 4868              	.LFE119:
 4870              		.section	.bss.tmpreg.7537,"aw",%nobits
 4871              		.align	2
 4872              		.set	.LANCHOR0,. + 0
 4875              	tmpreg.7537:
 4876 0000 00000000 		.space	4
 4877              		.text
 4878              	.Letext0:
 4879              		.file 2 "c:\\users\\user\\appdata\\roaming\\gnumcueclipse\\armembeddedgcc\\arm-none-eabi\\include\
 4880              		.file 3 "c:\\users\\user\\appdata\\roaming\\gnumcueclipse\\armembeddedgcc\\arm-none-eabi\\include\
 4881              		.file 4 "Drivers/CMSIS/Include/cmsis_gcc.h"
 4882              		.file 5 "Drivers/CMSIS/Include/core_cm3.h"
 4883              		.file 6 "Drivers/CMSIS/Device/ST/STM32F2xx/Include/system_stm32f2xx.h"
 4884              		.file 7 "Drivers/CMSIS/Device/ST/STM32F2xx/Include/stm32f215xx.h"
 4885              		.file 8 "Drivers/STM32F2xx_HAL_Driver/Inc/stm32f2xx_hal_def.h"
 4886              		.file 9 "Drivers/STM32F2xx_HAL_Driver/Inc/stm32f2xx_ll_usb.h"
 4887              		.file 10 "Drivers/STM32F2xx_HAL_Driver/Inc/stm32f2xx_hal.h"
ARM GAS  C:\Users\User\AppData\Local\Temp\ccY05dYU.s 			page 142


DEFINED SYMBOLS
                            *ABS*:0000000000000000 stm32f2xx_ll_usb.c
C:\Users\User\AppData\Local\Temp\ccY05dYU.s:16     .text.USB_CoreReset:0000000000000000 $t
C:\Users\User\AppData\Local\Temp\ccY05dYU.s:23     .text.USB_CoreReset:0000000000000000 USB_CoreReset
C:\Users\User\AppData\Local\Temp\ccY05dYU.s:98     .text.USB_CoreReset:0000000000000038 $d
C:\Users\User\AppData\Local\Temp\ccY05dYU.s:103    .text.USB_CoreInit:0000000000000000 $t
C:\Users\User\AppData\Local\Temp\ccY05dYU.s:110    .text.USB_CoreInit:0000000000000000 USB_CoreInit
C:\Users\User\AppData\Local\Temp\ccY05dYU.s:231    .text.USB_SetTurnaroundTime:0000000000000000 $t
C:\Users\User\AppData\Local\Temp\ccY05dYU.s:238    .text.USB_SetTurnaroundTime:0000000000000000 USB_SetTurnaroundTime
C:\Users\User\AppData\Local\Temp\ccY05dYU.s:423    .text.USB_SetTurnaroundTime:00000000000000c4 $d
C:\Users\User\AppData\Local\Temp\ccY05dYU.s:437    .text.USB_EnableGlobalInt:0000000000000000 $t
C:\Users\User\AppData\Local\Temp\ccY05dYU.s:444    .text.USB_EnableGlobalInt:0000000000000000 USB_EnableGlobalInt
C:\Users\User\AppData\Local\Temp\ccY05dYU.s:467    .text.USB_DisableGlobalInt:0000000000000000 $t
C:\Users\User\AppData\Local\Temp\ccY05dYU.s:474    .text.USB_DisableGlobalInt:0000000000000000 USB_DisableGlobalInt
C:\Users\User\AppData\Local\Temp\ccY05dYU.s:497    .text.USB_SetCurrentMode:0000000000000000 $t
C:\Users\User\AppData\Local\Temp\ccY05dYU.s:504    .text.USB_SetCurrentMode:0000000000000000 USB_SetCurrentMode
C:\Users\User\AppData\Local\Temp\ccY05dYU.s:565    .text.USB_FlushTxFifo:0000000000000000 $t
C:\Users\User\AppData\Local\Temp\ccY05dYU.s:572    .text.USB_FlushTxFifo:0000000000000000 USB_FlushTxFifo
C:\Users\User\AppData\Local\Temp\ccY05dYU.s:622    .text.USB_FlushTxFifo:0000000000000024 $d
C:\Users\User\AppData\Local\Temp\ccY05dYU.s:627    .text.USB_FlushRxFifo:0000000000000000 $t
C:\Users\User\AppData\Local\Temp\ccY05dYU.s:634    .text.USB_FlushRxFifo:0000000000000000 USB_FlushRxFifo
C:\Users\User\AppData\Local\Temp\ccY05dYU.s:680    .text.USB_FlushRxFifo:0000000000000020 $d
C:\Users\User\AppData\Local\Temp\ccY05dYU.s:685    .text.USB_SetDevSpeed:0000000000000000 $t
C:\Users\User\AppData\Local\Temp\ccY05dYU.s:692    .text.USB_SetDevSpeed:0000000000000000 USB_SetDevSpeed
C:\Users\User\AppData\Local\Temp\ccY05dYU.s:718    .text.USB_DevInit:0000000000000000 $t
C:\Users\User\AppData\Local\Temp\ccY05dYU.s:725    .text.USB_DevInit:0000000000000000 USB_DevInit
C:\Users\User\AppData\Local\Temp\ccY05dYU.s:1093   .text.USB_DevInit:0000000000000194 $d
C:\Users\User\AppData\Local\Temp\ccY05dYU.s:1099   .text.USB_GetDevSpeed:0000000000000000 $t
C:\Users\User\AppData\Local\Temp\ccY05dYU.s:1106   .text.USB_GetDevSpeed:0000000000000000 USB_GetDevSpeed
C:\Users\User\AppData\Local\Temp\ccY05dYU.s:1164   .text.USB_ActivateEndpoint:0000000000000000 $t
C:\Users\User\AppData\Local\Temp\ccY05dYU.s:1171   .text.USB_ActivateEndpoint:0000000000000000 USB_ActivateEndpoint
C:\Users\User\AppData\Local\Temp\ccY05dYU.s:1298   .text.USB_ActivateDedicatedEndpoint:0000000000000000 $t
C:\Users\User\AppData\Local\Temp\ccY05dYU.s:1305   .text.USB_ActivateDedicatedEndpoint:0000000000000000 USB_ActivateDedicatedEndpoint
C:\Users\User\AppData\Local\Temp\ccY05dYU.s:1441   .text.USB_DeactivateEndpoint:0000000000000000 $t
C:\Users\User\AppData\Local\Temp\ccY05dYU.s:1448   .text.USB_DeactivateEndpoint:0000000000000000 USB_DeactivateEndpoint
C:\Users\User\AppData\Local\Temp\ccY05dYU.s:1568   .text.USB_DeactivateEndpoint:0000000000000088 $d
C:\Users\User\AppData\Local\Temp\ccY05dYU.s:1574   .text.USB_DeactivateDedicatedEndpoint:0000000000000000 $t
C:\Users\User\AppData\Local\Temp\ccY05dYU.s:1581   .text.USB_DeactivateDedicatedEndpoint:0000000000000000 USB_DeactivateDedicatedEndpoint
C:\Users\User\AppData\Local\Temp\ccY05dYU.s:1662   .text.USB_EP0StartXfer:0000000000000000 $t
C:\Users\User\AppData\Local\Temp\ccY05dYU.s:1669   .text.USB_EP0StartXfer:0000000000000000 USB_EP0StartXfer
C:\Users\User\AppData\Local\Temp\ccY05dYU.s:1911   .text.USB_WritePacket:0000000000000000 $t
C:\Users\User\AppData\Local\Temp\ccY05dYU.s:1918   .text.USB_WritePacket:0000000000000000 USB_WritePacket
C:\Users\User\AppData\Local\Temp\ccY05dYU.s:1988   .text.USB_EPStartXfer:0000000000000000 $t
C:\Users\User\AppData\Local\Temp\ccY05dYU.s:1995   .text.USB_EPStartXfer:0000000000000000 USB_EPStartXfer
C:\Users\User\AppData\Local\Temp\ccY05dYU.s:2390   .text.USB_EPStartXfer:0000000000000214 $d
C:\Users\User\AppData\Local\Temp\ccY05dYU.s:2395   .text.USB_ReadPacket:0000000000000000 $t
C:\Users\User\AppData\Local\Temp\ccY05dYU.s:2402   .text.USB_ReadPacket:0000000000000000 USB_ReadPacket
C:\Users\User\AppData\Local\Temp\ccY05dYU.s:2468   .text.USB_EPSetStall:0000000000000000 $t
C:\Users\User\AppData\Local\Temp\ccY05dYU.s:2475   .text.USB_EPSetStall:0000000000000000 USB_EPSetStall
C:\Users\User\AppData\Local\Temp\ccY05dYU.s:2556   .text.USB_EPClearStall:0000000000000000 $t
C:\Users\User\AppData\Local\Temp\ccY05dYU.s:2563   .text.USB_EPClearStall:0000000000000000 USB_EPClearStall
C:\Users\User\AppData\Local\Temp\ccY05dYU.s:2646   .text.USB_StopDevice:0000000000000000 $t
C:\Users\User\AppData\Local\Temp\ccY05dYU.s:2653   .text.USB_StopDevice:0000000000000000 USB_StopDevice
C:\Users\User\AppData\Local\Temp\ccY05dYU.s:2743   .text.USB_SetDevAddress:0000000000000000 $t
C:\Users\User\AppData\Local\Temp\ccY05dYU.s:2750   .text.USB_SetDevAddress:0000000000000000 USB_SetDevAddress
C:\Users\User\AppData\Local\Temp\ccY05dYU.s:2785   .text.USB_DevConnect:0000000000000000 $t
C:\Users\User\AppData\Local\Temp\ccY05dYU.s:2792   .text.USB_DevConnect:0000000000000000 USB_DevConnect
ARM GAS  C:\Users\User\AppData\Local\Temp\ccY05dYU.s 			page 143


C:\Users\User\AppData\Local\Temp\ccY05dYU.s:2826   .text.USB_DevDisconnect:0000000000000000 $t
C:\Users\User\AppData\Local\Temp\ccY05dYU.s:2833   .text.USB_DevDisconnect:0000000000000000 USB_DevDisconnect
C:\Users\User\AppData\Local\Temp\ccY05dYU.s:2867   .text.USB_ReadInterrupts:0000000000000000 $t
C:\Users\User\AppData\Local\Temp\ccY05dYU.s:2874   .text.USB_ReadInterrupts:0000000000000000 USB_ReadInterrupts
C:\Users\User\AppData\Local\Temp\ccY05dYU.s:2901   .text.USB_ReadDevAllOutEpInterrupt:0000000000000000 $t
C:\Users\User\AppData\Local\Temp\ccY05dYU.s:2908   .text.USB_ReadDevAllOutEpInterrupt:0000000000000000 USB_ReadDevAllOutEpInterrupt
C:\Users\User\AppData\Local\Temp\ccY05dYU.s:2941   .text.USB_ReadDevAllInEpInterrupt:0000000000000000 $t
C:\Users\User\AppData\Local\Temp\ccY05dYU.s:2948   .text.USB_ReadDevAllInEpInterrupt:0000000000000000 USB_ReadDevAllInEpInterrupt
C:\Users\User\AppData\Local\Temp\ccY05dYU.s:2981   .text.USB_ReadDevOutEPInterrupt:0000000000000000 $t
C:\Users\User\AppData\Local\Temp\ccY05dYU.s:2988   .text.USB_ReadDevOutEPInterrupt:0000000000000000 USB_ReadDevOutEPInterrupt
C:\Users\User\AppData\Local\Temp\ccY05dYU.s:3022   .text.USB_ReadDevInEPInterrupt:0000000000000000 $t
C:\Users\User\AppData\Local\Temp\ccY05dYU.s:3029   .text.USB_ReadDevInEPInterrupt:0000000000000000 USB_ReadDevInEPInterrupt
C:\Users\User\AppData\Local\Temp\ccY05dYU.s:3088   .text.USB_ClearInterrupts:0000000000000000 $t
C:\Users\User\AppData\Local\Temp\ccY05dYU.s:3095   .text.USB_ClearInterrupts:0000000000000000 USB_ClearInterrupts
C:\Users\User\AppData\Local\Temp\ccY05dYU.s:3116   .text.USB_GetMode:0000000000000000 $t
C:\Users\User\AppData\Local\Temp\ccY05dYU.s:3123   .text.USB_GetMode:0000000000000000 USB_GetMode
C:\Users\User\AppData\Local\Temp\ccY05dYU.s:3142   .text.USB_ActivateSetup:0000000000000000 $t
C:\Users\User\AppData\Local\Temp\ccY05dYU.s:3149   .text.USB_ActivateSetup:0000000000000000 USB_ActivateSetup
C:\Users\User\AppData\Local\Temp\ccY05dYU.s:3198   .text.USB_EP0_OutStart:0000000000000000 $t
C:\Users\User\AppData\Local\Temp\ccY05dYU.s:3205   .text.USB_EP0_OutStart:0000000000000000 USB_EP0_OutStart
C:\Users\User\AppData\Local\Temp\ccY05dYU.s:3288   .text.USB_EP0_OutStart:0000000000000058 $d
C:\Users\User\AppData\Local\Temp\ccY05dYU.s:3293   .text.USB_InitFSLSPClkSel:0000000000000000 $t
C:\Users\User\AppData\Local\Temp\ccY05dYU.s:3300   .text.USB_InitFSLSPClkSel:0000000000000000 USB_InitFSLSPClkSel
C:\Users\User\AppData\Local\Temp\ccY05dYU.s:3371   .text.USB_ResetPort:0000000000000000 $t
C:\Users\User\AppData\Local\Temp\ccY05dYU.s:3378   .text.USB_ResetPort:0000000000000000 USB_ResetPort
C:\Users\User\AppData\Local\Temp\ccY05dYU.s:3447   .text.USB_DriveVbus:0000000000000000 $t
C:\Users\User\AppData\Local\Temp\ccY05dYU.s:3454   .text.USB_DriveVbus:0000000000000000 USB_DriveVbus
C:\Users\User\AppData\Local\Temp\ccY05dYU.s:3533   .text.USB_HostInit:0000000000000000 $t
C:\Users\User\AppData\Local\Temp\ccY05dYU.s:3540   .text.USB_HostInit:0000000000000000 USB_HostInit
C:\Users\User\AppData\Local\Temp\ccY05dYU.s:3746   .text.USB_HostInit:00000000000000f0 $d
C:\Users\User\AppData\Local\Temp\ccY05dYU.s:3753   .text.USB_GetHostSpeed:0000000000000000 $t
C:\Users\User\AppData\Local\Temp\ccY05dYU.s:3760   .text.USB_GetHostSpeed:0000000000000000 USB_GetHostSpeed
C:\Users\User\AppData\Local\Temp\ccY05dYU.s:3798   .text.USB_GetCurrentFrame:0000000000000000 $t
C:\Users\User\AppData\Local\Temp\ccY05dYU.s:3805   .text.USB_GetCurrentFrame:0000000000000000 USB_GetCurrentFrame
C:\Users\User\AppData\Local\Temp\ccY05dYU.s:3828   .text.USB_HC_Init:0000000000000000 $t
C:\Users\User\AppData\Local\Temp\ccY05dYU.s:3835   .text.USB_HC_Init:0000000000000000 USB_HC_Init
C:\Users\User\AppData\Local\Temp\ccY05dYU.s:3869   .text.USB_HC_Init:000000000000001e $d
C:\Users\User\AppData\Local\Temp\ccY05dYU.s:3873   .text.USB_HC_Init:0000000000000022 $t
C:\Users\User\AppData\Local\Temp\ccY05dYU.s:4055   .text.USB_HC_ReadInterrupt:0000000000000000 $t
C:\Users\User\AppData\Local\Temp\ccY05dYU.s:4062   .text.USB_HC_ReadInterrupt:0000000000000000 USB_HC_ReadInterrupt
C:\Users\User\AppData\Local\Temp\ccY05dYU.s:4085   .text.USB_HC_Halt:0000000000000000 $t
C:\Users\User\AppData\Local\Temp\ccY05dYU.s:4092   .text.USB_HC_Halt:0000000000000000 USB_HC_Halt
C:\Users\User\AppData\Local\Temp\ccY05dYU.s:4254   .text.USB_DoPing:0000000000000000 $t
C:\Users\User\AppData\Local\Temp\ccY05dYU.s:4261   .text.USB_DoPing:0000000000000000 USB_DoPing
C:\Users\User\AppData\Local\Temp\ccY05dYU.s:4303   .text.USB_DoPing:0000000000000020 $d
C:\Users\User\AppData\Local\Temp\ccY05dYU.s:4308   .text.USB_HC_StartXfer:0000000000000000 $t
C:\Users\User\AppData\Local\Temp\ccY05dYU.s:4315   .text.USB_HC_StartXfer:0000000000000000 USB_HC_StartXfer
C:\Users\User\AppData\Local\Temp\ccY05dYU.s:4554   .text.USB_HC_StartXfer:00000000000000fc $d
C:\Users\User\AppData\Local\Temp\ccY05dYU.s:4559   .text.USB_HC_StartXfer:0000000000000100 $t
C:\Users\User\AppData\Local\Temp\ccY05dYU.s:4642   .text.USB_HC_StartXfer:0000000000000150 $d
C:\Users\User\AppData\Local\Temp\ccY05dYU.s:4648   .text.USB_StopHost:0000000000000000 $t
C:\Users\User\AppData\Local\Temp\ccY05dYU.s:4655   .text.USB_StopHost:0000000000000000 USB_StopHost
C:\Users\User\AppData\Local\Temp\ccY05dYU.s:4799   .text.USB_ActivateRemoteWakeup:0000000000000000 $t
C:\Users\User\AppData\Local\Temp\ccY05dYU.s:4806   .text.USB_ActivateRemoteWakeup:0000000000000000 USB_ActivateRemoteWakeup
C:\Users\User\AppData\Local\Temp\ccY05dYU.s:4840   .text.USB_DeActivateRemoteWakeup:0000000000000000 $t
C:\Users\User\AppData\Local\Temp\ccY05dYU.s:4847   .text.USB_DeActivateRemoteWakeup:0000000000000000 USB_DeActivateRemoteWakeup
C:\Users\User\AppData\Local\Temp\ccY05dYU.s:4871   .bss.tmpreg.7537:0000000000000000 $d
ARM GAS  C:\Users\User\AppData\Local\Temp\ccY05dYU.s 			page 144


C:\Users\User\AppData\Local\Temp\ccY05dYU.s:4875   .bss.tmpreg.7537:0000000000000000 tmpreg.7537

UNDEFINED SYMBOLS
HAL_Delay
