ARM GAS  C:\Users\User\AppData\Local\Temp\ccyHe4C4.s 			page 1


   1              		.cpu cortex-m3
   2              		.eabi_attribute 20, 1
   3              		.eabi_attribute 21, 1
   4              		.eabi_attribute 23, 3
   5              		.eabi_attribute 24, 1
   6              		.eabi_attribute 25, 1
   7              		.eabi_attribute 26, 1
   8              		.eabi_attribute 30, 1
   9              		.eabi_attribute 34, 1
  10              		.eabi_attribute 18, 4
  11              		.file	"stm32f2xx_hal_pcd_ex.c"
  12              		.text
  13              	.Ltext0:
  14              		.cfi_sections	.debug_frame
  15              		.section	.text.HAL_PCDEx_SetTxFiFo,"ax",%progbits
  16              		.align	1
  17              		.global	HAL_PCDEx_SetTxFiFo
  18              		.arch armv7-m
  19              		.syntax unified
  20              		.thumb
  21              		.thumb_func
  22              		.fpu softvfp
  24              	HAL_PCDEx_SetTxFiFo:
  25              	.LVL0:
  26              	.LFB72:
  27              		.file 1 "Drivers/STM32F2xx_HAL_Driver/Src/stm32f2xx_hal_pcd_ex.c"
   1:Drivers/STM32F2xx_HAL_Driver/Src/stm32f2xx_hal_pcd_ex.c **** /**
   2:Drivers/STM32F2xx_HAL_Driver/Src/stm32f2xx_hal_pcd_ex.c ****   ******************************************************************************
   3:Drivers/STM32F2xx_HAL_Driver/Src/stm32f2xx_hal_pcd_ex.c ****   * @file    stm32f2xx_hal_pcd_ex.c
   4:Drivers/STM32F2xx_HAL_Driver/Src/stm32f2xx_hal_pcd_ex.c ****   * @author  MCD Application Team
   5:Drivers/STM32F2xx_HAL_Driver/Src/stm32f2xx_hal_pcd_ex.c ****   * @brief   PCD Extended HAL module driver.
   6:Drivers/STM32F2xx_HAL_Driver/Src/stm32f2xx_hal_pcd_ex.c ****   *          This file provides firmware functions to manage the following
   7:Drivers/STM32F2xx_HAL_Driver/Src/stm32f2xx_hal_pcd_ex.c ****   *          functionalities of the USB Peripheral Controller:
   8:Drivers/STM32F2xx_HAL_Driver/Src/stm32f2xx_hal_pcd_ex.c ****   *           + Extended features functions
   9:Drivers/STM32F2xx_HAL_Driver/Src/stm32f2xx_hal_pcd_ex.c ****   *
  10:Drivers/STM32F2xx_HAL_Driver/Src/stm32f2xx_hal_pcd_ex.c ****   ******************************************************************************
  11:Drivers/STM32F2xx_HAL_Driver/Src/stm32f2xx_hal_pcd_ex.c ****   * @attention
  12:Drivers/STM32F2xx_HAL_Driver/Src/stm32f2xx_hal_pcd_ex.c ****   *
  13:Drivers/STM32F2xx_HAL_Driver/Src/stm32f2xx_hal_pcd_ex.c ****   * <h2><center>&copy; Copyright (c) 2016 STMicroelectronics.
  14:Drivers/STM32F2xx_HAL_Driver/Src/stm32f2xx_hal_pcd_ex.c ****   * All rights reserved.</center></h2>
  15:Drivers/STM32F2xx_HAL_Driver/Src/stm32f2xx_hal_pcd_ex.c ****   *
  16:Drivers/STM32F2xx_HAL_Driver/Src/stm32f2xx_hal_pcd_ex.c ****   * This software component is licensed by ST under BSD 3-Clause license,
  17:Drivers/STM32F2xx_HAL_Driver/Src/stm32f2xx_hal_pcd_ex.c ****   * the "License"; You may not use this file except in compliance with the
  18:Drivers/STM32F2xx_HAL_Driver/Src/stm32f2xx_hal_pcd_ex.c ****   * License. You may obtain a copy of the License at:
  19:Drivers/STM32F2xx_HAL_Driver/Src/stm32f2xx_hal_pcd_ex.c ****   *                        opensource.org/licenses/BSD-3-Clause
  20:Drivers/STM32F2xx_HAL_Driver/Src/stm32f2xx_hal_pcd_ex.c ****   *
  21:Drivers/STM32F2xx_HAL_Driver/Src/stm32f2xx_hal_pcd_ex.c ****   ******************************************************************************
  22:Drivers/STM32F2xx_HAL_Driver/Src/stm32f2xx_hal_pcd_ex.c ****   */
  23:Drivers/STM32F2xx_HAL_Driver/Src/stm32f2xx_hal_pcd_ex.c **** 
  24:Drivers/STM32F2xx_HAL_Driver/Src/stm32f2xx_hal_pcd_ex.c **** /* Includes ------------------------------------------------------------------*/
  25:Drivers/STM32F2xx_HAL_Driver/Src/stm32f2xx_hal_pcd_ex.c **** #include "stm32f2xx_hal.h"
  26:Drivers/STM32F2xx_HAL_Driver/Src/stm32f2xx_hal_pcd_ex.c **** 
  27:Drivers/STM32F2xx_HAL_Driver/Src/stm32f2xx_hal_pcd_ex.c **** /** @addtogroup STM32F2xx_HAL_Driver
  28:Drivers/STM32F2xx_HAL_Driver/Src/stm32f2xx_hal_pcd_ex.c ****   * @{
  29:Drivers/STM32F2xx_HAL_Driver/Src/stm32f2xx_hal_pcd_ex.c ****   */
  30:Drivers/STM32F2xx_HAL_Driver/Src/stm32f2xx_hal_pcd_ex.c **** 
  31:Drivers/STM32F2xx_HAL_Driver/Src/stm32f2xx_hal_pcd_ex.c **** /** @defgroup PCDEx PCDEx
ARM GAS  C:\Users\User\AppData\Local\Temp\ccyHe4C4.s 			page 2


  32:Drivers/STM32F2xx_HAL_Driver/Src/stm32f2xx_hal_pcd_ex.c ****   * @brief PCD Extended HAL module driver
  33:Drivers/STM32F2xx_HAL_Driver/Src/stm32f2xx_hal_pcd_ex.c ****   * @{
  34:Drivers/STM32F2xx_HAL_Driver/Src/stm32f2xx_hal_pcd_ex.c ****   */
  35:Drivers/STM32F2xx_HAL_Driver/Src/stm32f2xx_hal_pcd_ex.c **** 
  36:Drivers/STM32F2xx_HAL_Driver/Src/stm32f2xx_hal_pcd_ex.c **** #ifdef HAL_PCD_MODULE_ENABLED
  37:Drivers/STM32F2xx_HAL_Driver/Src/stm32f2xx_hal_pcd_ex.c **** 
  38:Drivers/STM32F2xx_HAL_Driver/Src/stm32f2xx_hal_pcd_ex.c **** #if defined (USB_OTG_FS) || defined (USB_OTG_HS)
  39:Drivers/STM32F2xx_HAL_Driver/Src/stm32f2xx_hal_pcd_ex.c **** /* Private types -------------------------------------------------------------*/
  40:Drivers/STM32F2xx_HAL_Driver/Src/stm32f2xx_hal_pcd_ex.c **** /* Private variables ---------------------------------------------------------*/
  41:Drivers/STM32F2xx_HAL_Driver/Src/stm32f2xx_hal_pcd_ex.c **** /* Private constants ---------------------------------------------------------*/
  42:Drivers/STM32F2xx_HAL_Driver/Src/stm32f2xx_hal_pcd_ex.c **** /* Private macros ------------------------------------------------------------*/
  43:Drivers/STM32F2xx_HAL_Driver/Src/stm32f2xx_hal_pcd_ex.c **** /* Private functions ---------------------------------------------------------*/
  44:Drivers/STM32F2xx_HAL_Driver/Src/stm32f2xx_hal_pcd_ex.c **** /* Exported functions --------------------------------------------------------*/
  45:Drivers/STM32F2xx_HAL_Driver/Src/stm32f2xx_hal_pcd_ex.c **** 
  46:Drivers/STM32F2xx_HAL_Driver/Src/stm32f2xx_hal_pcd_ex.c **** /** @defgroup PCDEx_Exported_Functions PCDEx Exported Functions
  47:Drivers/STM32F2xx_HAL_Driver/Src/stm32f2xx_hal_pcd_ex.c ****   * @{
  48:Drivers/STM32F2xx_HAL_Driver/Src/stm32f2xx_hal_pcd_ex.c ****   */
  49:Drivers/STM32F2xx_HAL_Driver/Src/stm32f2xx_hal_pcd_ex.c **** 
  50:Drivers/STM32F2xx_HAL_Driver/Src/stm32f2xx_hal_pcd_ex.c **** /** @defgroup PCDEx_Exported_Functions_Group1 Peripheral Control functions
  51:Drivers/STM32F2xx_HAL_Driver/Src/stm32f2xx_hal_pcd_ex.c ****   * @brief    PCDEx control functions
  52:Drivers/STM32F2xx_HAL_Driver/Src/stm32f2xx_hal_pcd_ex.c ****  *
  53:Drivers/STM32F2xx_HAL_Driver/Src/stm32f2xx_hal_pcd_ex.c **** @verbatim
  54:Drivers/STM32F2xx_HAL_Driver/Src/stm32f2xx_hal_pcd_ex.c ****  ===============================================================================
  55:Drivers/STM32F2xx_HAL_Driver/Src/stm32f2xx_hal_pcd_ex.c ****                  ##### Extended features functions #####
  56:Drivers/STM32F2xx_HAL_Driver/Src/stm32f2xx_hal_pcd_ex.c ****  ===============================================================================
  57:Drivers/STM32F2xx_HAL_Driver/Src/stm32f2xx_hal_pcd_ex.c ****     [..]  This section provides functions allowing to:
  58:Drivers/STM32F2xx_HAL_Driver/Src/stm32f2xx_hal_pcd_ex.c ****       (+) Update FIFO configuration
  59:Drivers/STM32F2xx_HAL_Driver/Src/stm32f2xx_hal_pcd_ex.c **** 
  60:Drivers/STM32F2xx_HAL_Driver/Src/stm32f2xx_hal_pcd_ex.c **** @endverbatim
  61:Drivers/STM32F2xx_HAL_Driver/Src/stm32f2xx_hal_pcd_ex.c ****   * @{
  62:Drivers/STM32F2xx_HAL_Driver/Src/stm32f2xx_hal_pcd_ex.c ****   */
  63:Drivers/STM32F2xx_HAL_Driver/Src/stm32f2xx_hal_pcd_ex.c **** #if defined (USB_OTG_FS) || defined (USB_OTG_HS)
  64:Drivers/STM32F2xx_HAL_Driver/Src/stm32f2xx_hal_pcd_ex.c **** /**
  65:Drivers/STM32F2xx_HAL_Driver/Src/stm32f2xx_hal_pcd_ex.c ****   * @brief  Set Tx FIFO
  66:Drivers/STM32F2xx_HAL_Driver/Src/stm32f2xx_hal_pcd_ex.c ****   * @param  hpcd PCD handle
  67:Drivers/STM32F2xx_HAL_Driver/Src/stm32f2xx_hal_pcd_ex.c ****   * @param  fifo The number of Tx fifo
  68:Drivers/STM32F2xx_HAL_Driver/Src/stm32f2xx_hal_pcd_ex.c ****   * @param  size Fifo size
  69:Drivers/STM32F2xx_HAL_Driver/Src/stm32f2xx_hal_pcd_ex.c ****   * @retval HAL status
  70:Drivers/STM32F2xx_HAL_Driver/Src/stm32f2xx_hal_pcd_ex.c ****   */
  71:Drivers/STM32F2xx_HAL_Driver/Src/stm32f2xx_hal_pcd_ex.c **** HAL_StatusTypeDef HAL_PCDEx_SetTxFiFo(PCD_HandleTypeDef *hpcd, uint8_t fifo, uint16_t size)
  72:Drivers/STM32F2xx_HAL_Driver/Src/stm32f2xx_hal_pcd_ex.c **** {
  28              		.loc 1 72 1 view -0
  29              		.cfi_startproc
  30              		@ args = 0, pretend = 0, frame = 0
  31              		@ frame_needed = 0, uses_anonymous_args = 0
  32              		@ link register save eliminated.
  33              		.loc 1 72 1 is_stmt 0 view .LVU1
  34 0000 30B4     		push	{r4, r5}
  35              	.LCFI0:
  36              		.cfi_def_cfa_offset 8
  37              		.cfi_offset 4, -8
  38              		.cfi_offset 5, -4
  73:Drivers/STM32F2xx_HAL_Driver/Src/stm32f2xx_hal_pcd_ex.c ****   uint8_t i;
  39              		.loc 1 73 3 is_stmt 1 view .LVU2
  74:Drivers/STM32F2xx_HAL_Driver/Src/stm32f2xx_hal_pcd_ex.c ****   uint32_t Tx_Offset;
  40              		.loc 1 74 3 view .LVU3
  75:Drivers/STM32F2xx_HAL_Driver/Src/stm32f2xx_hal_pcd_ex.c **** 
ARM GAS  C:\Users\User\AppData\Local\Temp\ccyHe4C4.s 			page 3


  76:Drivers/STM32F2xx_HAL_Driver/Src/stm32f2xx_hal_pcd_ex.c ****   /*  TXn min size = 16 words. (n  : Transmit FIFO index)
  77:Drivers/STM32F2xx_HAL_Driver/Src/stm32f2xx_hal_pcd_ex.c ****       When a TxFIFO is not used, the Configuration should be as follows:
  78:Drivers/STM32F2xx_HAL_Driver/Src/stm32f2xx_hal_pcd_ex.c ****           case 1 :  n > m    and Txn is not used    (n,m  : Transmit FIFO indexes)
  79:Drivers/STM32F2xx_HAL_Driver/Src/stm32f2xx_hal_pcd_ex.c ****          --> Txm can use the space allocated for Txn.
  80:Drivers/STM32F2xx_HAL_Driver/Src/stm32f2xx_hal_pcd_ex.c ****          case2  :  n < m    and Txn is not used    (n,m  : Transmit FIFO indexes)
  81:Drivers/STM32F2xx_HAL_Driver/Src/stm32f2xx_hal_pcd_ex.c ****          --> Txn should be configured with the minimum space of 16 words
  82:Drivers/STM32F2xx_HAL_Driver/Src/stm32f2xx_hal_pcd_ex.c ****      The FIFO is used optimally when used TxFIFOs are allocated in the top
  83:Drivers/STM32F2xx_HAL_Driver/Src/stm32f2xx_hal_pcd_ex.c ****          of the FIFO.Ex: use EP1 and EP2 as IN instead of EP1 and EP3 as IN ones.
  84:Drivers/STM32F2xx_HAL_Driver/Src/stm32f2xx_hal_pcd_ex.c ****      When DMA is used 3n * FIFO locations should be reserved for internal DMA registers */
  85:Drivers/STM32F2xx_HAL_Driver/Src/stm32f2xx_hal_pcd_ex.c **** 
  86:Drivers/STM32F2xx_HAL_Driver/Src/stm32f2xx_hal_pcd_ex.c ****   Tx_Offset = hpcd->Instance->GRXFSIZ;
  41              		.loc 1 86 3 view .LVU4
  42              		.loc 1 86 19 is_stmt 0 view .LVU5
  43 0002 0468     		ldr	r4, [r0]
  44              		.loc 1 86 13 view .LVU6
  45 0004 606A     		ldr	r0, [r4, #36]
  46              	.LVL1:
  87:Drivers/STM32F2xx_HAL_Driver/Src/stm32f2xx_hal_pcd_ex.c **** 
  88:Drivers/STM32F2xx_HAL_Driver/Src/stm32f2xx_hal_pcd_ex.c ****   if (fifo == 0U)
  47              		.loc 1 88 3 is_stmt 1 view .LVU7
  48              		.loc 1 88 6 is_stmt 0 view .LVU8
  49 0006 29B9     		cbnz	r1, .L2
  89:Drivers/STM32F2xx_HAL_Driver/Src/stm32f2xx_hal_pcd_ex.c ****   {
  90:Drivers/STM32F2xx_HAL_Driver/Src/stm32f2xx_hal_pcd_ex.c ****     hpcd->Instance->DIEPTXF0_HNPTXFSIZ = ((uint32_t)size << 16) | Tx_Offset;
  50              		.loc 1 90 5 is_stmt 1 view .LVU9
  51              		.loc 1 90 65 is_stmt 0 view .LVU10
  52 0008 40EA0240 		orr	r0, r0, r2, lsl #16
  53              	.LVL2:
  54              		.loc 1 90 40 view .LVU11
  55 000c A062     		str	r0, [r4, #40]
  56              	.LVL3:
  57              	.L3:
  91:Drivers/STM32F2xx_HAL_Driver/Src/stm32f2xx_hal_pcd_ex.c ****   }
  92:Drivers/STM32F2xx_HAL_Driver/Src/stm32f2xx_hal_pcd_ex.c ****   else
  93:Drivers/STM32F2xx_HAL_Driver/Src/stm32f2xx_hal_pcd_ex.c ****   {
  94:Drivers/STM32F2xx_HAL_Driver/Src/stm32f2xx_hal_pcd_ex.c ****     Tx_Offset += (hpcd->Instance->DIEPTXF0_HNPTXFSIZ) >> 16;
  95:Drivers/STM32F2xx_HAL_Driver/Src/stm32f2xx_hal_pcd_ex.c ****     for (i = 0U; i < (fifo - 1U); i++)
  96:Drivers/STM32F2xx_HAL_Driver/Src/stm32f2xx_hal_pcd_ex.c ****     {
  97:Drivers/STM32F2xx_HAL_Driver/Src/stm32f2xx_hal_pcd_ex.c ****       Tx_Offset += (hpcd->Instance->DIEPTXF[i] >> 16);
  98:Drivers/STM32F2xx_HAL_Driver/Src/stm32f2xx_hal_pcd_ex.c ****     }
  99:Drivers/STM32F2xx_HAL_Driver/Src/stm32f2xx_hal_pcd_ex.c **** 
 100:Drivers/STM32F2xx_HAL_Driver/Src/stm32f2xx_hal_pcd_ex.c ****     /* Multiply Tx_Size by 2 to get higher performance */
 101:Drivers/STM32F2xx_HAL_Driver/Src/stm32f2xx_hal_pcd_ex.c ****     hpcd->Instance->DIEPTXF[fifo - 1U] = ((uint32_t)size << 16) | Tx_Offset;
 102:Drivers/STM32F2xx_HAL_Driver/Src/stm32f2xx_hal_pcd_ex.c ****   }
 103:Drivers/STM32F2xx_HAL_Driver/Src/stm32f2xx_hal_pcd_ex.c **** 
 104:Drivers/STM32F2xx_HAL_Driver/Src/stm32f2xx_hal_pcd_ex.c ****   return HAL_OK;
  58              		.loc 1 104 3 is_stmt 1 view .LVU12
 105:Drivers/STM32F2xx_HAL_Driver/Src/stm32f2xx_hal_pcd_ex.c **** }
  59              		.loc 1 105 1 is_stmt 0 view .LVU13
  60 000e 0020     		movs	r0, #0
  61 0010 30BC     		pop	{r4, r5}
  62              	.LCFI1:
  63              		.cfi_remember_state
  64              		.cfi_restore 5
  65              		.cfi_restore 4
  66              		.cfi_def_cfa_offset 0
  67 0012 7047     		bx	lr
ARM GAS  C:\Users\User\AppData\Local\Temp\ccyHe4C4.s 			page 4


  68              	.LVL4:
  69              	.L2:
  70              	.LCFI2:
  71              		.cfi_restore_state
  72              		.loc 1 105 1 view .LVU14
  73 0014 0D46     		mov	r5, r1
  94:Drivers/STM32F2xx_HAL_Driver/Src/stm32f2xx_hal_pcd_ex.c ****     for (i = 0U; i < (fifo - 1U); i++)
  74              		.loc 1 94 5 is_stmt 1 view .LVU15
  94:Drivers/STM32F2xx_HAL_Driver/Src/stm32f2xx_hal_pcd_ex.c ****     for (i = 0U; i < (fifo - 1U); i++)
  75              		.loc 1 94 33 is_stmt 0 view .LVU16
  76 0016 A36A     		ldr	r3, [r4, #40]
  94:Drivers/STM32F2xx_HAL_Driver/Src/stm32f2xx_hal_pcd_ex.c ****     for (i = 0U; i < (fifo - 1U); i++)
  77              		.loc 1 94 15 view .LVU17
  78 0018 00EB1340 		add	r0, r0, r3, lsr #16
  79              	.LVL5:
  95:Drivers/STM32F2xx_HAL_Driver/Src/stm32f2xx_hal_pcd_ex.c ****     {
  80              		.loc 1 95 5 is_stmt 1 view .LVU18
  95:Drivers/STM32F2xx_HAL_Driver/Src/stm32f2xx_hal_pcd_ex.c ****     {
  81              		.loc 1 95 12 is_stmt 0 view .LVU19
  82 001c 0023     		movs	r3, #0
  83              	.LVL6:
  84              	.L4:
  95:Drivers/STM32F2xx_HAL_Driver/Src/stm32f2xx_hal_pcd_ex.c ****     {
  85              		.loc 1 95 28 discriminator 1 view .LVU20
  86 001e 691E     		subs	r1, r5, #1
  95:Drivers/STM32F2xx_HAL_Driver/Src/stm32f2xx_hal_pcd_ex.c ****     {
  87              		.loc 1 95 5 discriminator 1 view .LVU21
  88 0020 8B42     		cmp	r3, r1
  89 0022 09D2     		bcs	.L7
  97:Drivers/STM32F2xx_HAL_Driver/Src/stm32f2xx_hal_pcd_ex.c ****     }
  90              		.loc 1 97 7 is_stmt 1 discriminator 3 view .LVU22
  97:Drivers/STM32F2xx_HAL_Driver/Src/stm32f2xx_hal_pcd_ex.c ****     }
  91              		.loc 1 97 44 is_stmt 0 discriminator 3 view .LVU23
  92 0024 03F14001 		add	r1, r3, #64
  93 0028 04EB8101 		add	r1, r4, r1, lsl #2
  94 002c 4968     		ldr	r1, [r1, #4]
  97:Drivers/STM32F2xx_HAL_Driver/Src/stm32f2xx_hal_pcd_ex.c ****     }
  95              		.loc 1 97 17 discriminator 3 view .LVU24
  96 002e 00EB1140 		add	r0, r0, r1, lsr #16
  97              	.LVL7:
  95:Drivers/STM32F2xx_HAL_Driver/Src/stm32f2xx_hal_pcd_ex.c ****     {
  98              		.loc 1 95 36 discriminator 3 view .LVU25
  99 0032 0133     		adds	r3, r3, #1
 100              	.LVL8:
  95:Drivers/STM32F2xx_HAL_Driver/Src/stm32f2xx_hal_pcd_ex.c ****     {
 101              		.loc 1 95 36 discriminator 3 view .LVU26
 102 0034 DBB2     		uxtb	r3, r3
 103              	.LVL9:
  95:Drivers/STM32F2xx_HAL_Driver/Src/stm32f2xx_hal_pcd_ex.c ****     {
 104              		.loc 1 95 36 discriminator 3 view .LVU27
 105 0036 F2E7     		b	.L4
 106              	.L7:
 101:Drivers/STM32F2xx_HAL_Driver/Src/stm32f2xx_hal_pcd_ex.c ****   }
 107              		.loc 1 101 5 is_stmt 1 view .LVU28
 101:Drivers/STM32F2xx_HAL_Driver/Src/stm32f2xx_hal_pcd_ex.c ****   }
 108              		.loc 1 101 65 is_stmt 0 view .LVU29
 109 0038 40EA0240 		orr	r0, r0, r2, lsl #16
ARM GAS  C:\Users\User\AppData\Local\Temp\ccyHe4C4.s 			page 5


 110              	.LVL10:
 101:Drivers/STM32F2xx_HAL_Driver/Src/stm32f2xx_hal_pcd_ex.c ****   }
 111              		.loc 1 101 40 view .LVU30
 112 003c 05F13F01 		add	r1, r5, #63
 113 0040 04EB8101 		add	r1, r4, r1, lsl #2
 114 0044 4860     		str	r0, [r1, #4]
 115 0046 E2E7     		b	.L3
 116              		.cfi_endproc
 117              	.LFE72:
 119              		.section	.text.HAL_PCDEx_SetRxFiFo,"ax",%progbits
 120              		.align	1
 121              		.global	HAL_PCDEx_SetRxFiFo
 122              		.syntax unified
 123              		.thumb
 124              		.thumb_func
 125              		.fpu softvfp
 127              	HAL_PCDEx_SetRxFiFo:
 128              	.LVL11:
 129              	.LFB73:
 106:Drivers/STM32F2xx_HAL_Driver/Src/stm32f2xx_hal_pcd_ex.c **** 
 107:Drivers/STM32F2xx_HAL_Driver/Src/stm32f2xx_hal_pcd_ex.c **** /**
 108:Drivers/STM32F2xx_HAL_Driver/Src/stm32f2xx_hal_pcd_ex.c ****   * @brief  Set Rx FIFO
 109:Drivers/STM32F2xx_HAL_Driver/Src/stm32f2xx_hal_pcd_ex.c ****   * @param  hpcd PCD handle
 110:Drivers/STM32F2xx_HAL_Driver/Src/stm32f2xx_hal_pcd_ex.c ****   * @param  size Size of Rx fifo
 111:Drivers/STM32F2xx_HAL_Driver/Src/stm32f2xx_hal_pcd_ex.c ****   * @retval HAL status
 112:Drivers/STM32F2xx_HAL_Driver/Src/stm32f2xx_hal_pcd_ex.c ****   */
 113:Drivers/STM32F2xx_HAL_Driver/Src/stm32f2xx_hal_pcd_ex.c **** HAL_StatusTypeDef HAL_PCDEx_SetRxFiFo(PCD_HandleTypeDef *hpcd, uint16_t size)
 114:Drivers/STM32F2xx_HAL_Driver/Src/stm32f2xx_hal_pcd_ex.c **** {
 130              		.loc 1 114 1 is_stmt 1 view -0
 131              		.cfi_startproc
 132              		@ args = 0, pretend = 0, frame = 0
 133              		@ frame_needed = 0, uses_anonymous_args = 0
 134              		@ link register save eliminated.
 115:Drivers/STM32F2xx_HAL_Driver/Src/stm32f2xx_hal_pcd_ex.c ****   hpcd->Instance->GRXFSIZ = size;
 135              		.loc 1 115 3 view .LVU32
 136              		.loc 1 115 7 is_stmt 0 view .LVU33
 137 0000 0368     		ldr	r3, [r0]
 138              		.loc 1 115 27 view .LVU34
 139 0002 5962     		str	r1, [r3, #36]
 116:Drivers/STM32F2xx_HAL_Driver/Src/stm32f2xx_hal_pcd_ex.c **** 
 117:Drivers/STM32F2xx_HAL_Driver/Src/stm32f2xx_hal_pcd_ex.c ****   return HAL_OK;
 140              		.loc 1 117 3 is_stmt 1 view .LVU35
 118:Drivers/STM32F2xx_HAL_Driver/Src/stm32f2xx_hal_pcd_ex.c **** }
 141              		.loc 1 118 1 is_stmt 0 view .LVU36
 142 0004 0020     		movs	r0, #0
 143              	.LVL12:
 144              		.loc 1 118 1 view .LVU37
 145 0006 7047     		bx	lr
 146              		.cfi_endproc
 147              	.LFE73:
 149              		.section	.text.HAL_PCDEx_LPM_Callback,"ax",%progbits
 150              		.align	1
 151              		.weak	HAL_PCDEx_LPM_Callback
 152              		.syntax unified
 153              		.thumb
 154              		.thumb_func
 155              		.fpu softvfp
ARM GAS  C:\Users\User\AppData\Local\Temp\ccyHe4C4.s 			page 6


 157              	HAL_PCDEx_LPM_Callback:
 158              	.LVL13:
 159              	.LFB74:
 119:Drivers/STM32F2xx_HAL_Driver/Src/stm32f2xx_hal_pcd_ex.c **** #endif /* defined (USB_OTG_FS) || defined (USB_OTG_HS) */
 120:Drivers/STM32F2xx_HAL_Driver/Src/stm32f2xx_hal_pcd_ex.c **** 
 121:Drivers/STM32F2xx_HAL_Driver/Src/stm32f2xx_hal_pcd_ex.c **** /**
 122:Drivers/STM32F2xx_HAL_Driver/Src/stm32f2xx_hal_pcd_ex.c ****   * @brief  Send LPM message to user layer callback.
 123:Drivers/STM32F2xx_HAL_Driver/Src/stm32f2xx_hal_pcd_ex.c ****   * @param  hpcd PCD handle
 124:Drivers/STM32F2xx_HAL_Driver/Src/stm32f2xx_hal_pcd_ex.c ****   * @param  msg LPM message
 125:Drivers/STM32F2xx_HAL_Driver/Src/stm32f2xx_hal_pcd_ex.c ****   * @retval HAL status
 126:Drivers/STM32F2xx_HAL_Driver/Src/stm32f2xx_hal_pcd_ex.c ****   */
 127:Drivers/STM32F2xx_HAL_Driver/Src/stm32f2xx_hal_pcd_ex.c **** __weak void HAL_PCDEx_LPM_Callback(PCD_HandleTypeDef *hpcd, PCD_LPM_MsgTypeDef msg)
 128:Drivers/STM32F2xx_HAL_Driver/Src/stm32f2xx_hal_pcd_ex.c **** {
 160              		.loc 1 128 1 is_stmt 1 view -0
 161              		.cfi_startproc
 162              		@ args = 0, pretend = 0, frame = 0
 163              		@ frame_needed = 0, uses_anonymous_args = 0
 164              		@ link register save eliminated.
 129:Drivers/STM32F2xx_HAL_Driver/Src/stm32f2xx_hal_pcd_ex.c ****   /* Prevent unused argument(s) compilation warning */
 130:Drivers/STM32F2xx_HAL_Driver/Src/stm32f2xx_hal_pcd_ex.c ****   UNUSED(hpcd);
 165              		.loc 1 130 3 view .LVU39
 131:Drivers/STM32F2xx_HAL_Driver/Src/stm32f2xx_hal_pcd_ex.c ****   UNUSED(msg);
 166              		.loc 1 131 3 view .LVU40
 132:Drivers/STM32F2xx_HAL_Driver/Src/stm32f2xx_hal_pcd_ex.c **** 
 133:Drivers/STM32F2xx_HAL_Driver/Src/stm32f2xx_hal_pcd_ex.c ****   /* NOTE : This function should not be modified, when the callback is needed,
 134:Drivers/STM32F2xx_HAL_Driver/Src/stm32f2xx_hal_pcd_ex.c ****             the HAL_PCDEx_LPM_Callback could be implemented in the user file
 135:Drivers/STM32F2xx_HAL_Driver/Src/stm32f2xx_hal_pcd_ex.c ****    */
 136:Drivers/STM32F2xx_HAL_Driver/Src/stm32f2xx_hal_pcd_ex.c **** }
 167              		.loc 1 136 1 is_stmt 0 view .LVU41
 168 0000 7047     		bx	lr
 169              		.cfi_endproc
 170              	.LFE74:
 172              		.section	.text.HAL_PCDEx_BCD_Callback,"ax",%progbits
 173              		.align	1
 174              		.weak	HAL_PCDEx_BCD_Callback
 175              		.syntax unified
 176              		.thumb
 177              		.thumb_func
 178              		.fpu softvfp
 180              	HAL_PCDEx_BCD_Callback:
 181              	.LVL14:
 182              	.LFB75:
 137:Drivers/STM32F2xx_HAL_Driver/Src/stm32f2xx_hal_pcd_ex.c **** 
 138:Drivers/STM32F2xx_HAL_Driver/Src/stm32f2xx_hal_pcd_ex.c **** /**
 139:Drivers/STM32F2xx_HAL_Driver/Src/stm32f2xx_hal_pcd_ex.c ****   * @brief  Send BatteryCharging message to user layer callback.
 140:Drivers/STM32F2xx_HAL_Driver/Src/stm32f2xx_hal_pcd_ex.c ****   * @param  hpcd PCD handle
 141:Drivers/STM32F2xx_HAL_Driver/Src/stm32f2xx_hal_pcd_ex.c ****   * @param  msg LPM message
 142:Drivers/STM32F2xx_HAL_Driver/Src/stm32f2xx_hal_pcd_ex.c ****   * @retval HAL status
 143:Drivers/STM32F2xx_HAL_Driver/Src/stm32f2xx_hal_pcd_ex.c ****   */
 144:Drivers/STM32F2xx_HAL_Driver/Src/stm32f2xx_hal_pcd_ex.c **** __weak void HAL_PCDEx_BCD_Callback(PCD_HandleTypeDef *hpcd, PCD_BCD_MsgTypeDef msg)
 145:Drivers/STM32F2xx_HAL_Driver/Src/stm32f2xx_hal_pcd_ex.c **** {
 183              		.loc 1 145 1 is_stmt 1 view -0
 184              		.cfi_startproc
 185              		@ args = 0, pretend = 0, frame = 0
 186              		@ frame_needed = 0, uses_anonymous_args = 0
 187              		@ link register save eliminated.
 146:Drivers/STM32F2xx_HAL_Driver/Src/stm32f2xx_hal_pcd_ex.c ****   /* Prevent unused argument(s) compilation warning */
ARM GAS  C:\Users\User\AppData\Local\Temp\ccyHe4C4.s 			page 7


 147:Drivers/STM32F2xx_HAL_Driver/Src/stm32f2xx_hal_pcd_ex.c ****   UNUSED(hpcd);
 188              		.loc 1 147 3 view .LVU43
 148:Drivers/STM32F2xx_HAL_Driver/Src/stm32f2xx_hal_pcd_ex.c ****   UNUSED(msg);
 189              		.loc 1 148 3 view .LVU44
 149:Drivers/STM32F2xx_HAL_Driver/Src/stm32f2xx_hal_pcd_ex.c **** 
 150:Drivers/STM32F2xx_HAL_Driver/Src/stm32f2xx_hal_pcd_ex.c ****   /* NOTE : This function should not be modified, when the callback is needed,
 151:Drivers/STM32F2xx_HAL_Driver/Src/stm32f2xx_hal_pcd_ex.c ****             the HAL_PCDEx_BCD_Callback could be implemented in the user file
 152:Drivers/STM32F2xx_HAL_Driver/Src/stm32f2xx_hal_pcd_ex.c ****    */
 153:Drivers/STM32F2xx_HAL_Driver/Src/stm32f2xx_hal_pcd_ex.c **** }
 190              		.loc 1 153 1 is_stmt 0 view .LVU45
 191 0000 7047     		bx	lr
 192              		.cfi_endproc
 193              	.LFE75:
 195              		.text
 196              	.Letext0:
 197              		.file 2 "c:\\users\\user\\appdata\\roaming\\gnumcueclipse\\armembeddedgcc\\arm-none-eabi\\include\
 198              		.file 3 "c:\\users\\user\\appdata\\roaming\\gnumcueclipse\\armembeddedgcc\\arm-none-eabi\\include\
 199              		.file 4 "Drivers/CMSIS/Include/core_cm3.h"
 200              		.file 5 "Drivers/CMSIS/Device/ST/STM32F2xx/Include/system_stm32f2xx.h"
 201              		.file 6 "Drivers/CMSIS/Device/ST/STM32F2xx/Include/stm32f215xx.h"
 202              		.file 7 "Drivers/STM32F2xx_HAL_Driver/Inc/stm32f2xx_hal_def.h"
 203              		.file 8 "Drivers/STM32F2xx_HAL_Driver/Inc/stm32f2xx_ll_usb.h"
 204              		.file 9 "Drivers/STM32F2xx_HAL_Driver/Inc/stm32f2xx_hal_pcd.h"
 205              		.file 10 "Drivers/STM32F2xx_HAL_Driver/Inc/stm32f2xx_hal.h"
ARM GAS  C:\Users\User\AppData\Local\Temp\ccyHe4C4.s 			page 8

