ARM GAS  C:\Users\User\AppData\Local\Temp\cc2bsKoj.s 			page 1


   1              		.cpu cortex-m3
   2              		.eabi_attribute 20, 1
   3              		.eabi_attribute 21, 1
   4              		.eabi_attribute 23, 3
   5              		.eabi_attribute 24, 1
   6              		.eabi_attribute 25, 1
   7              		.eabi_attribute 26, 1
   8              		.eabi_attribute 30, 1
   9              		.eabi_attribute 34, 1
  10              		.eabi_attribute 18, 4
  11              		.file	"stm32f2xx_hal_dma.c"
  12              		.text
  13              	.Ltext0:
  14              		.cfi_sections	.debug_frame
  15              		.section	.text.DMA_SetConfig,"ax",%progbits
  16              		.align	1
  17              		.arch armv7-m
  18              		.syntax unified
  19              		.thumb
  20              		.thumb_func
  21              		.fpu softvfp
  23              	DMA_SetConfig:
  24              	.LVL0:
  25              	.LFB84:
  26              		.file 1 "Drivers/STM32F2xx_HAL_Driver/Src/stm32f2xx_hal_dma.c"
   1:Drivers/STM32F2xx_HAL_Driver/Src/stm32f2xx_hal_dma.c **** /**
   2:Drivers/STM32F2xx_HAL_Driver/Src/stm32f2xx_hal_dma.c ****   ******************************************************************************
   3:Drivers/STM32F2xx_HAL_Driver/Src/stm32f2xx_hal_dma.c ****   * @file    stm32f2xx_hal_dma.c
   4:Drivers/STM32F2xx_HAL_Driver/Src/stm32f2xx_hal_dma.c ****   * @author  MCD Application Team
   5:Drivers/STM32F2xx_HAL_Driver/Src/stm32f2xx_hal_dma.c ****   * @brief   DMA HAL module driver.
   6:Drivers/STM32F2xx_HAL_Driver/Src/stm32f2xx_hal_dma.c ****   *    
   7:Drivers/STM32F2xx_HAL_Driver/Src/stm32f2xx_hal_dma.c ****   *          This file provides firmware functions to manage the following 
   8:Drivers/STM32F2xx_HAL_Driver/Src/stm32f2xx_hal_dma.c ****   *          functionalities of the Direct Memory Access (DMA) peripheral:
   9:Drivers/STM32F2xx_HAL_Driver/Src/stm32f2xx_hal_dma.c ****   *           + Initialization and de-initialization functions
  10:Drivers/STM32F2xx_HAL_Driver/Src/stm32f2xx_hal_dma.c ****   *           + IO operation functions
  11:Drivers/STM32F2xx_HAL_Driver/Src/stm32f2xx_hal_dma.c ****   *           + Peripheral State and errors functions
  12:Drivers/STM32F2xx_HAL_Driver/Src/stm32f2xx_hal_dma.c ****   @verbatim     
  13:Drivers/STM32F2xx_HAL_Driver/Src/stm32f2xx_hal_dma.c ****   ==============================================================================
  14:Drivers/STM32F2xx_HAL_Driver/Src/stm32f2xx_hal_dma.c ****                         ##### How to use this driver #####
  15:Drivers/STM32F2xx_HAL_Driver/Src/stm32f2xx_hal_dma.c ****   ==============================================================================
  16:Drivers/STM32F2xx_HAL_Driver/Src/stm32f2xx_hal_dma.c ****   [..]
  17:Drivers/STM32F2xx_HAL_Driver/Src/stm32f2xx_hal_dma.c ****    (#) Enable and configure the peripheral to be connected to the DMA Stream
  18:Drivers/STM32F2xx_HAL_Driver/Src/stm32f2xx_hal_dma.c ****        (except for internal SRAM/FLASH memories: no initialization is 
  19:Drivers/STM32F2xx_HAL_Driver/Src/stm32f2xx_hal_dma.c ****        necessary) please refer to Reference manual for connection between peripherals
  20:Drivers/STM32F2xx_HAL_Driver/Src/stm32f2xx_hal_dma.c ****        and DMA requests.
  21:Drivers/STM32F2xx_HAL_Driver/Src/stm32f2xx_hal_dma.c **** 
  22:Drivers/STM32F2xx_HAL_Driver/Src/stm32f2xx_hal_dma.c ****    (#) For a given Stream, program the required configuration through the following parameters:
  23:Drivers/STM32F2xx_HAL_Driver/Src/stm32f2xx_hal_dma.c ****        Transfer Direction, Source and Destination data formats, 
  24:Drivers/STM32F2xx_HAL_Driver/Src/stm32f2xx_hal_dma.c ****        Circular, Normal or peripheral flow control mode, Stream Priority level, 
  25:Drivers/STM32F2xx_HAL_Driver/Src/stm32f2xx_hal_dma.c ****        Source and Destination Increment mode, FIFO mode and its Threshold (if needed), 
  26:Drivers/STM32F2xx_HAL_Driver/Src/stm32f2xx_hal_dma.c ****        Burst mode for Source and/or Destination (if needed) using HAL_DMA_Init() function.
  27:Drivers/STM32F2xx_HAL_Driver/Src/stm32f2xx_hal_dma.c **** 
  28:Drivers/STM32F2xx_HAL_Driver/Src/stm32f2xx_hal_dma.c ****    -@-   Prior to HAL_DMA_Init() the clock must be enabled for DMA through the following macros:
  29:Drivers/STM32F2xx_HAL_Driver/Src/stm32f2xx_hal_dma.c ****          __HAL_RCC_DMA1_CLK_ENABLE() or __HAL_RCC_DMA2_CLK_ENABLE().
  30:Drivers/STM32F2xx_HAL_Driver/Src/stm32f2xx_hal_dma.c **** 
  31:Drivers/STM32F2xx_HAL_Driver/Src/stm32f2xx_hal_dma.c ****      *** Polling mode IO operation ***
  32:Drivers/STM32F2xx_HAL_Driver/Src/stm32f2xx_hal_dma.c ****      =================================
ARM GAS  C:\Users\User\AppData\Local\Temp\cc2bsKoj.s 			page 2


  33:Drivers/STM32F2xx_HAL_Driver/Src/stm32f2xx_hal_dma.c ****     [..]
  34:Drivers/STM32F2xx_HAL_Driver/Src/stm32f2xx_hal_dma.c ****           (+) Use HAL_DMA_Start() to start DMA transfer after the configuration of Source 
  35:Drivers/STM32F2xx_HAL_Driver/Src/stm32f2xx_hal_dma.c ****               address and destination address and the Length of data to be transferred.
  36:Drivers/STM32F2xx_HAL_Driver/Src/stm32f2xx_hal_dma.c ****           (+) Use HAL_DMA_PollForTransfer() to poll for the end of current transfer, in this  
  37:Drivers/STM32F2xx_HAL_Driver/Src/stm32f2xx_hal_dma.c ****               case a fixed Timeout can be configured by User depending from his application.
  38:Drivers/STM32F2xx_HAL_Driver/Src/stm32f2xx_hal_dma.c ****           (+) Use HAL_DMA_Abort() function to abort the current transfer.
  39:Drivers/STM32F2xx_HAL_Driver/Src/stm32f2xx_hal_dma.c **** 
  40:Drivers/STM32F2xx_HAL_Driver/Src/stm32f2xx_hal_dma.c ****      *** Interrupt mode IO operation ***
  41:Drivers/STM32F2xx_HAL_Driver/Src/stm32f2xx_hal_dma.c ****      ===================================
  42:Drivers/STM32F2xx_HAL_Driver/Src/stm32f2xx_hal_dma.c ****     [..]
  43:Drivers/STM32F2xx_HAL_Driver/Src/stm32f2xx_hal_dma.c ****           (+) Configure the DMA interrupt priority using HAL_NVIC_SetPriority()
  44:Drivers/STM32F2xx_HAL_Driver/Src/stm32f2xx_hal_dma.c ****           (+) Enable the DMA IRQ handler using HAL_NVIC_EnableIRQ() 
  45:Drivers/STM32F2xx_HAL_Driver/Src/stm32f2xx_hal_dma.c ****           (+) Use HAL_DMA_Start_IT() to start DMA transfer after the configuration of  
  46:Drivers/STM32F2xx_HAL_Driver/Src/stm32f2xx_hal_dma.c ****               Source address and destination address and the Length of data to be transferred. In t
  47:Drivers/STM32F2xx_HAL_Driver/Src/stm32f2xx_hal_dma.c ****               case the DMA interrupt is configured 
  48:Drivers/STM32F2xx_HAL_Driver/Src/stm32f2xx_hal_dma.c ****           (+) Use HAL_DMA_IRQHandler() called under DMA_IRQHandler() Interrupt subroutine
  49:Drivers/STM32F2xx_HAL_Driver/Src/stm32f2xx_hal_dma.c ****           (+) At the end of data transfer HAL_DMA_IRQHandler() function is executed and user can 
  50:Drivers/STM32F2xx_HAL_Driver/Src/stm32f2xx_hal_dma.c ****               add his own function by customization of function pointer XferCpltCallback and 
  51:Drivers/STM32F2xx_HAL_Driver/Src/stm32f2xx_hal_dma.c ****               XferErrorCallback (i.e a member of DMA handle structure).
  52:Drivers/STM32F2xx_HAL_Driver/Src/stm32f2xx_hal_dma.c ****     [..]
  53:Drivers/STM32F2xx_HAL_Driver/Src/stm32f2xx_hal_dma.c ****      (#) Use HAL_DMA_GetState() function to return the DMA state and HAL_DMA_GetError() in case of 
  54:Drivers/STM32F2xx_HAL_Driver/Src/stm32f2xx_hal_dma.c ****          detection.
  55:Drivers/STM32F2xx_HAL_Driver/Src/stm32f2xx_hal_dma.c **** 
  56:Drivers/STM32F2xx_HAL_Driver/Src/stm32f2xx_hal_dma.c ****      (#) Use HAL_DMA_Abort_IT() function to abort the current transfer
  57:Drivers/STM32F2xx_HAL_Driver/Src/stm32f2xx_hal_dma.c **** 
  58:Drivers/STM32F2xx_HAL_Driver/Src/stm32f2xx_hal_dma.c ****      -@-   In Memory-to-Memory transfer mode, Circular mode is not allowed.
  59:Drivers/STM32F2xx_HAL_Driver/Src/stm32f2xx_hal_dma.c **** 
  60:Drivers/STM32F2xx_HAL_Driver/Src/stm32f2xx_hal_dma.c ****      -@-   The FIFO is used mainly to reduce bus usage and to allow data packing/unpacking: it is
  61:Drivers/STM32F2xx_HAL_Driver/Src/stm32f2xx_hal_dma.c ****            possible to set different Data Sizes for the Peripheral and the Memory (ie. you can set
  62:Drivers/STM32F2xx_HAL_Driver/Src/stm32f2xx_hal_dma.c ****            Half-Word data size for the peripheral to access its data register and set Word data siz
  63:Drivers/STM32F2xx_HAL_Driver/Src/stm32f2xx_hal_dma.c ****            for the Memory to gain in access time. Each two half words will be packed and written in
  64:Drivers/STM32F2xx_HAL_Driver/Src/stm32f2xx_hal_dma.c ****            a single access to a Word in the Memory).
  65:Drivers/STM32F2xx_HAL_Driver/Src/stm32f2xx_hal_dma.c **** 
  66:Drivers/STM32F2xx_HAL_Driver/Src/stm32f2xx_hal_dma.c ****      -@-   When FIFO is disabled, it is not allowed to configure different Data Sizes for Source
  67:Drivers/STM32F2xx_HAL_Driver/Src/stm32f2xx_hal_dma.c ****            and Destination. In this case the Peripheral Data Size will be applied to both Source
  68:Drivers/STM32F2xx_HAL_Driver/Src/stm32f2xx_hal_dma.c ****            and Destination.
  69:Drivers/STM32F2xx_HAL_Driver/Src/stm32f2xx_hal_dma.c **** 
  70:Drivers/STM32F2xx_HAL_Driver/Src/stm32f2xx_hal_dma.c ****      *** DMA HAL driver macros list ***
  71:Drivers/STM32F2xx_HAL_Driver/Src/stm32f2xx_hal_dma.c ****      =============================================
  72:Drivers/STM32F2xx_HAL_Driver/Src/stm32f2xx_hal_dma.c ****      [..]
  73:Drivers/STM32F2xx_HAL_Driver/Src/stm32f2xx_hal_dma.c ****        Below the list of most used macros in DMA HAL driver.
  74:Drivers/STM32F2xx_HAL_Driver/Src/stm32f2xx_hal_dma.c ****        
  75:Drivers/STM32F2xx_HAL_Driver/Src/stm32f2xx_hal_dma.c ****       (+) __HAL_DMA_ENABLE: Enable the specified DMA Stream.
  76:Drivers/STM32F2xx_HAL_Driver/Src/stm32f2xx_hal_dma.c ****       (+) __HAL_DMA_DISABLE: Disable the specified DMA Stream.
  77:Drivers/STM32F2xx_HAL_Driver/Src/stm32f2xx_hal_dma.c ****       (+) __HAL_DMA_GET_IT_SOURCE: Check whether the specified DMA Stream interrupt has occurred or
  78:Drivers/STM32F2xx_HAL_Driver/Src/stm32f2xx_hal_dma.c **** 
  79:Drivers/STM32F2xx_HAL_Driver/Src/stm32f2xx_hal_dma.c ****      [..]
  80:Drivers/STM32F2xx_HAL_Driver/Src/stm32f2xx_hal_dma.c ****       (@) You can refer to the DMA HAL driver header file for more useful macros
  81:Drivers/STM32F2xx_HAL_Driver/Src/stm32f2xx_hal_dma.c **** 
  82:Drivers/STM32F2xx_HAL_Driver/Src/stm32f2xx_hal_dma.c ****   @endverbatim
  83:Drivers/STM32F2xx_HAL_Driver/Src/stm32f2xx_hal_dma.c ****   ******************************************************************************
  84:Drivers/STM32F2xx_HAL_Driver/Src/stm32f2xx_hal_dma.c ****   * @attention
  85:Drivers/STM32F2xx_HAL_Driver/Src/stm32f2xx_hal_dma.c ****   *
  86:Drivers/STM32F2xx_HAL_Driver/Src/stm32f2xx_hal_dma.c ****   * <h2><center>&copy; Copyright (c) 2016 STMicroelectronics.
  87:Drivers/STM32F2xx_HAL_Driver/Src/stm32f2xx_hal_dma.c ****   * All rights reserved.</center></h2>
  88:Drivers/STM32F2xx_HAL_Driver/Src/stm32f2xx_hal_dma.c ****   *
  89:Drivers/STM32F2xx_HAL_Driver/Src/stm32f2xx_hal_dma.c ****   * This software component is licensed by ST under BSD 3-Clause license,
ARM GAS  C:\Users\User\AppData\Local\Temp\cc2bsKoj.s 			page 3


  90:Drivers/STM32F2xx_HAL_Driver/Src/stm32f2xx_hal_dma.c ****   * the "License"; You may not use this file except in compliance with the
  91:Drivers/STM32F2xx_HAL_Driver/Src/stm32f2xx_hal_dma.c ****   * License. You may obtain a copy of the License at:
  92:Drivers/STM32F2xx_HAL_Driver/Src/stm32f2xx_hal_dma.c ****   *                        opensource.org/licenses/BSD-3-Clause
  93:Drivers/STM32F2xx_HAL_Driver/Src/stm32f2xx_hal_dma.c ****   *
  94:Drivers/STM32F2xx_HAL_Driver/Src/stm32f2xx_hal_dma.c ****   ******************************************************************************
  95:Drivers/STM32F2xx_HAL_Driver/Src/stm32f2xx_hal_dma.c ****   */
  96:Drivers/STM32F2xx_HAL_Driver/Src/stm32f2xx_hal_dma.c **** 
  97:Drivers/STM32F2xx_HAL_Driver/Src/stm32f2xx_hal_dma.c **** /* Includes ------------------------------------------------------------------*/
  98:Drivers/STM32F2xx_HAL_Driver/Src/stm32f2xx_hal_dma.c **** #include "stm32f2xx_hal.h"
  99:Drivers/STM32F2xx_HAL_Driver/Src/stm32f2xx_hal_dma.c **** 
 100:Drivers/STM32F2xx_HAL_Driver/Src/stm32f2xx_hal_dma.c **** /** @addtogroup STM32F2xx_HAL_Driver
 101:Drivers/STM32F2xx_HAL_Driver/Src/stm32f2xx_hal_dma.c ****   * @{
 102:Drivers/STM32F2xx_HAL_Driver/Src/stm32f2xx_hal_dma.c ****   */
 103:Drivers/STM32F2xx_HAL_Driver/Src/stm32f2xx_hal_dma.c **** 
 104:Drivers/STM32F2xx_HAL_Driver/Src/stm32f2xx_hal_dma.c **** /** @defgroup DMA DMA
 105:Drivers/STM32F2xx_HAL_Driver/Src/stm32f2xx_hal_dma.c ****   * @brief DMA HAL module driver
 106:Drivers/STM32F2xx_HAL_Driver/Src/stm32f2xx_hal_dma.c ****   * @{
 107:Drivers/STM32F2xx_HAL_Driver/Src/stm32f2xx_hal_dma.c ****   */
 108:Drivers/STM32F2xx_HAL_Driver/Src/stm32f2xx_hal_dma.c **** 
 109:Drivers/STM32F2xx_HAL_Driver/Src/stm32f2xx_hal_dma.c **** #ifdef HAL_DMA_MODULE_ENABLED
 110:Drivers/STM32F2xx_HAL_Driver/Src/stm32f2xx_hal_dma.c **** 
 111:Drivers/STM32F2xx_HAL_Driver/Src/stm32f2xx_hal_dma.c **** /* Private types -------------------------------------------------------------*/
 112:Drivers/STM32F2xx_HAL_Driver/Src/stm32f2xx_hal_dma.c **** typedef struct
 113:Drivers/STM32F2xx_HAL_Driver/Src/stm32f2xx_hal_dma.c **** {
 114:Drivers/STM32F2xx_HAL_Driver/Src/stm32f2xx_hal_dma.c ****   __IO uint32_t ISR;   /*!< DMA interrupt status register */
 115:Drivers/STM32F2xx_HAL_Driver/Src/stm32f2xx_hal_dma.c ****   __IO uint32_t Reserved0;
 116:Drivers/STM32F2xx_HAL_Driver/Src/stm32f2xx_hal_dma.c ****   __IO uint32_t IFCR;  /*!< DMA interrupt flag clear register */
 117:Drivers/STM32F2xx_HAL_Driver/Src/stm32f2xx_hal_dma.c **** } DMA_Base_Registers;
 118:Drivers/STM32F2xx_HAL_Driver/Src/stm32f2xx_hal_dma.c **** 
 119:Drivers/STM32F2xx_HAL_Driver/Src/stm32f2xx_hal_dma.c **** /* Private variables ---------------------------------------------------------*/
 120:Drivers/STM32F2xx_HAL_Driver/Src/stm32f2xx_hal_dma.c **** /* Private constants ---------------------------------------------------------*/
 121:Drivers/STM32F2xx_HAL_Driver/Src/stm32f2xx_hal_dma.c **** /** @addtogroup DMA_Private_Constants
 122:Drivers/STM32F2xx_HAL_Driver/Src/stm32f2xx_hal_dma.c ****  * @{
 123:Drivers/STM32F2xx_HAL_Driver/Src/stm32f2xx_hal_dma.c ****  */
 124:Drivers/STM32F2xx_HAL_Driver/Src/stm32f2xx_hal_dma.c ****  #define HAL_TIMEOUT_DMA_ABORT    5U  /* 5 ms */
 125:Drivers/STM32F2xx_HAL_Driver/Src/stm32f2xx_hal_dma.c **** /**
 126:Drivers/STM32F2xx_HAL_Driver/Src/stm32f2xx_hal_dma.c ****   * @}
 127:Drivers/STM32F2xx_HAL_Driver/Src/stm32f2xx_hal_dma.c ****   */
 128:Drivers/STM32F2xx_HAL_Driver/Src/stm32f2xx_hal_dma.c **** /* Private macros ------------------------------------------------------------*/
 129:Drivers/STM32F2xx_HAL_Driver/Src/stm32f2xx_hal_dma.c **** /* Private functions ---------------------------------------------------------*/
 130:Drivers/STM32F2xx_HAL_Driver/Src/stm32f2xx_hal_dma.c **** /** @addtogroup DMA_Private_Functions
 131:Drivers/STM32F2xx_HAL_Driver/Src/stm32f2xx_hal_dma.c ****   * @{
 132:Drivers/STM32F2xx_HAL_Driver/Src/stm32f2xx_hal_dma.c ****   */
 133:Drivers/STM32F2xx_HAL_Driver/Src/stm32f2xx_hal_dma.c **** static void DMA_SetConfig(DMA_HandleTypeDef *hdma, uint32_t SrcAddress, uint32_t DstAddress, uint32
 134:Drivers/STM32F2xx_HAL_Driver/Src/stm32f2xx_hal_dma.c **** static uint32_t DMA_CalcBaseAndBitshift(DMA_HandleTypeDef *hdma);
 135:Drivers/STM32F2xx_HAL_Driver/Src/stm32f2xx_hal_dma.c **** static HAL_StatusTypeDef DMA_CheckFifoParam(DMA_HandleTypeDef *hdma);
 136:Drivers/STM32F2xx_HAL_Driver/Src/stm32f2xx_hal_dma.c **** 
 137:Drivers/STM32F2xx_HAL_Driver/Src/stm32f2xx_hal_dma.c **** /**
 138:Drivers/STM32F2xx_HAL_Driver/Src/stm32f2xx_hal_dma.c ****   * @}
 139:Drivers/STM32F2xx_HAL_Driver/Src/stm32f2xx_hal_dma.c ****   */  
 140:Drivers/STM32F2xx_HAL_Driver/Src/stm32f2xx_hal_dma.c **** 
 141:Drivers/STM32F2xx_HAL_Driver/Src/stm32f2xx_hal_dma.c **** /* Exported functions ---------------------------------------------------------*/
 142:Drivers/STM32F2xx_HAL_Driver/Src/stm32f2xx_hal_dma.c **** /** @addtogroup DMA_Exported_Functions
 143:Drivers/STM32F2xx_HAL_Driver/Src/stm32f2xx_hal_dma.c ****   * @{
 144:Drivers/STM32F2xx_HAL_Driver/Src/stm32f2xx_hal_dma.c ****   */
 145:Drivers/STM32F2xx_HAL_Driver/Src/stm32f2xx_hal_dma.c **** 
 146:Drivers/STM32F2xx_HAL_Driver/Src/stm32f2xx_hal_dma.c **** /** @addtogroup DMA_Exported_Functions_Group1
ARM GAS  C:\Users\User\AppData\Local\Temp\cc2bsKoj.s 			page 4


 147:Drivers/STM32F2xx_HAL_Driver/Src/stm32f2xx_hal_dma.c ****   *
 148:Drivers/STM32F2xx_HAL_Driver/Src/stm32f2xx_hal_dma.c **** @verbatim
 149:Drivers/STM32F2xx_HAL_Driver/Src/stm32f2xx_hal_dma.c ****  ===============================================================================
 150:Drivers/STM32F2xx_HAL_Driver/Src/stm32f2xx_hal_dma.c ****              ##### Initialization and de-initialization functions  #####
 151:Drivers/STM32F2xx_HAL_Driver/Src/stm32f2xx_hal_dma.c ****  ===============================================================================
 152:Drivers/STM32F2xx_HAL_Driver/Src/stm32f2xx_hal_dma.c ****     [..]
 153:Drivers/STM32F2xx_HAL_Driver/Src/stm32f2xx_hal_dma.c ****     This section provides functions allowing to initialize the DMA Stream source
 154:Drivers/STM32F2xx_HAL_Driver/Src/stm32f2xx_hal_dma.c ****     and destination addresses, incrementation and data sizes, transfer direction, 
 155:Drivers/STM32F2xx_HAL_Driver/Src/stm32f2xx_hal_dma.c ****     circular/normal mode selection, memory-to-memory mode selection and Stream priority value.
 156:Drivers/STM32F2xx_HAL_Driver/Src/stm32f2xx_hal_dma.c ****     [..]
 157:Drivers/STM32F2xx_HAL_Driver/Src/stm32f2xx_hal_dma.c ****     The HAL_DMA_Init() function follows the DMA configuration procedures as described in
 158:Drivers/STM32F2xx_HAL_Driver/Src/stm32f2xx_hal_dma.c ****     reference manual.
 159:Drivers/STM32F2xx_HAL_Driver/Src/stm32f2xx_hal_dma.c **** 
 160:Drivers/STM32F2xx_HAL_Driver/Src/stm32f2xx_hal_dma.c **** @endverbatim
 161:Drivers/STM32F2xx_HAL_Driver/Src/stm32f2xx_hal_dma.c ****   * @{
 162:Drivers/STM32F2xx_HAL_Driver/Src/stm32f2xx_hal_dma.c ****   */
 163:Drivers/STM32F2xx_HAL_Driver/Src/stm32f2xx_hal_dma.c ****   
 164:Drivers/STM32F2xx_HAL_Driver/Src/stm32f2xx_hal_dma.c **** /**
 165:Drivers/STM32F2xx_HAL_Driver/Src/stm32f2xx_hal_dma.c ****   * @brief  Initialize the DMA according to the specified
 166:Drivers/STM32F2xx_HAL_Driver/Src/stm32f2xx_hal_dma.c ****   *         parameters in the DMA_InitTypeDef and create the associated handle.
 167:Drivers/STM32F2xx_HAL_Driver/Src/stm32f2xx_hal_dma.c ****   * @param  hdma Pointer to a DMA_HandleTypeDef structure that contains
 168:Drivers/STM32F2xx_HAL_Driver/Src/stm32f2xx_hal_dma.c ****   *               the configuration information for the specified DMA Stream.  
 169:Drivers/STM32F2xx_HAL_Driver/Src/stm32f2xx_hal_dma.c ****   * @retval HAL status
 170:Drivers/STM32F2xx_HAL_Driver/Src/stm32f2xx_hal_dma.c ****   */
 171:Drivers/STM32F2xx_HAL_Driver/Src/stm32f2xx_hal_dma.c **** HAL_StatusTypeDef HAL_DMA_Init(DMA_HandleTypeDef *hdma)
 172:Drivers/STM32F2xx_HAL_Driver/Src/stm32f2xx_hal_dma.c **** {
 173:Drivers/STM32F2xx_HAL_Driver/Src/stm32f2xx_hal_dma.c ****   uint32_t tmp = 0U;
 174:Drivers/STM32F2xx_HAL_Driver/Src/stm32f2xx_hal_dma.c ****   uint32_t tickstart = HAL_GetTick();
 175:Drivers/STM32F2xx_HAL_Driver/Src/stm32f2xx_hal_dma.c ****   DMA_Base_Registers *regs;
 176:Drivers/STM32F2xx_HAL_Driver/Src/stm32f2xx_hal_dma.c **** 
 177:Drivers/STM32F2xx_HAL_Driver/Src/stm32f2xx_hal_dma.c ****   /* Check the DMA peripheral state */
 178:Drivers/STM32F2xx_HAL_Driver/Src/stm32f2xx_hal_dma.c ****   if(hdma == NULL)
 179:Drivers/STM32F2xx_HAL_Driver/Src/stm32f2xx_hal_dma.c ****   {
 180:Drivers/STM32F2xx_HAL_Driver/Src/stm32f2xx_hal_dma.c ****     return HAL_ERROR;
 181:Drivers/STM32F2xx_HAL_Driver/Src/stm32f2xx_hal_dma.c ****   }
 182:Drivers/STM32F2xx_HAL_Driver/Src/stm32f2xx_hal_dma.c **** 
 183:Drivers/STM32F2xx_HAL_Driver/Src/stm32f2xx_hal_dma.c ****   /* Check the parameters */
 184:Drivers/STM32F2xx_HAL_Driver/Src/stm32f2xx_hal_dma.c ****   assert_param(IS_DMA_STREAM_ALL_INSTANCE(hdma->Instance));
 185:Drivers/STM32F2xx_HAL_Driver/Src/stm32f2xx_hal_dma.c ****   assert_param(IS_DMA_CHANNEL(hdma->Init.Channel));
 186:Drivers/STM32F2xx_HAL_Driver/Src/stm32f2xx_hal_dma.c ****   assert_param(IS_DMA_DIRECTION(hdma->Init.Direction));
 187:Drivers/STM32F2xx_HAL_Driver/Src/stm32f2xx_hal_dma.c ****   assert_param(IS_DMA_PERIPHERAL_INC_STATE(hdma->Init.PeriphInc));
 188:Drivers/STM32F2xx_HAL_Driver/Src/stm32f2xx_hal_dma.c ****   assert_param(IS_DMA_MEMORY_INC_STATE(hdma->Init.MemInc));
 189:Drivers/STM32F2xx_HAL_Driver/Src/stm32f2xx_hal_dma.c ****   assert_param(IS_DMA_PERIPHERAL_DATA_SIZE(hdma->Init.PeriphDataAlignment));
 190:Drivers/STM32F2xx_HAL_Driver/Src/stm32f2xx_hal_dma.c ****   assert_param(IS_DMA_MEMORY_DATA_SIZE(hdma->Init.MemDataAlignment));
 191:Drivers/STM32F2xx_HAL_Driver/Src/stm32f2xx_hal_dma.c ****   assert_param(IS_DMA_MODE(hdma->Init.Mode));
 192:Drivers/STM32F2xx_HAL_Driver/Src/stm32f2xx_hal_dma.c ****   assert_param(IS_DMA_PRIORITY(hdma->Init.Priority));
 193:Drivers/STM32F2xx_HAL_Driver/Src/stm32f2xx_hal_dma.c ****   assert_param(IS_DMA_FIFO_MODE_STATE(hdma->Init.FIFOMode));
 194:Drivers/STM32F2xx_HAL_Driver/Src/stm32f2xx_hal_dma.c ****   /* Check the memory burst, peripheral burst and FIFO threshold parameters only
 195:Drivers/STM32F2xx_HAL_Driver/Src/stm32f2xx_hal_dma.c ****      when FIFO mode is enabled */
 196:Drivers/STM32F2xx_HAL_Driver/Src/stm32f2xx_hal_dma.c ****   if(hdma->Init.FIFOMode != DMA_FIFOMODE_DISABLE)
 197:Drivers/STM32F2xx_HAL_Driver/Src/stm32f2xx_hal_dma.c ****   {
 198:Drivers/STM32F2xx_HAL_Driver/Src/stm32f2xx_hal_dma.c ****     assert_param(IS_DMA_FIFO_THRESHOLD(hdma->Init.FIFOThreshold));
 199:Drivers/STM32F2xx_HAL_Driver/Src/stm32f2xx_hal_dma.c ****     assert_param(IS_DMA_MEMORY_BURST(hdma->Init.MemBurst));
 200:Drivers/STM32F2xx_HAL_Driver/Src/stm32f2xx_hal_dma.c ****     assert_param(IS_DMA_PERIPHERAL_BURST(hdma->Init.PeriphBurst));
 201:Drivers/STM32F2xx_HAL_Driver/Src/stm32f2xx_hal_dma.c ****   }
 202:Drivers/STM32F2xx_HAL_Driver/Src/stm32f2xx_hal_dma.c ****   
 203:Drivers/STM32F2xx_HAL_Driver/Src/stm32f2xx_hal_dma.c ****   /* Allocate lock resource */
ARM GAS  C:\Users\User\AppData\Local\Temp\cc2bsKoj.s 			page 5


 204:Drivers/STM32F2xx_HAL_Driver/Src/stm32f2xx_hal_dma.c ****   __HAL_UNLOCK(hdma);
 205:Drivers/STM32F2xx_HAL_Driver/Src/stm32f2xx_hal_dma.c **** 
 206:Drivers/STM32F2xx_HAL_Driver/Src/stm32f2xx_hal_dma.c ****   /* Change DMA peripheral state */
 207:Drivers/STM32F2xx_HAL_Driver/Src/stm32f2xx_hal_dma.c ****   hdma->State = HAL_DMA_STATE_BUSY;
 208:Drivers/STM32F2xx_HAL_Driver/Src/stm32f2xx_hal_dma.c ****   
 209:Drivers/STM32F2xx_HAL_Driver/Src/stm32f2xx_hal_dma.c ****   /* Disable the peripheral */
 210:Drivers/STM32F2xx_HAL_Driver/Src/stm32f2xx_hal_dma.c ****   __HAL_DMA_DISABLE(hdma);
 211:Drivers/STM32F2xx_HAL_Driver/Src/stm32f2xx_hal_dma.c ****   
 212:Drivers/STM32F2xx_HAL_Driver/Src/stm32f2xx_hal_dma.c ****   /* Check if the DMA Stream is effectively disabled */
 213:Drivers/STM32F2xx_HAL_Driver/Src/stm32f2xx_hal_dma.c ****   while((hdma->Instance->CR & DMA_SxCR_EN) != RESET)
 214:Drivers/STM32F2xx_HAL_Driver/Src/stm32f2xx_hal_dma.c ****   {
 215:Drivers/STM32F2xx_HAL_Driver/Src/stm32f2xx_hal_dma.c ****     /* Check for the Timeout */
 216:Drivers/STM32F2xx_HAL_Driver/Src/stm32f2xx_hal_dma.c ****     if((HAL_GetTick() - tickstart ) > HAL_TIMEOUT_DMA_ABORT)
 217:Drivers/STM32F2xx_HAL_Driver/Src/stm32f2xx_hal_dma.c ****     {
 218:Drivers/STM32F2xx_HAL_Driver/Src/stm32f2xx_hal_dma.c ****       /* Update error code */
 219:Drivers/STM32F2xx_HAL_Driver/Src/stm32f2xx_hal_dma.c ****       hdma->ErrorCode = HAL_DMA_ERROR_TIMEOUT;
 220:Drivers/STM32F2xx_HAL_Driver/Src/stm32f2xx_hal_dma.c ****       
 221:Drivers/STM32F2xx_HAL_Driver/Src/stm32f2xx_hal_dma.c ****       /* Change the DMA state */
 222:Drivers/STM32F2xx_HAL_Driver/Src/stm32f2xx_hal_dma.c ****       hdma->State = HAL_DMA_STATE_TIMEOUT;
 223:Drivers/STM32F2xx_HAL_Driver/Src/stm32f2xx_hal_dma.c ****       
 224:Drivers/STM32F2xx_HAL_Driver/Src/stm32f2xx_hal_dma.c ****       return HAL_TIMEOUT;
 225:Drivers/STM32F2xx_HAL_Driver/Src/stm32f2xx_hal_dma.c ****     }
 226:Drivers/STM32F2xx_HAL_Driver/Src/stm32f2xx_hal_dma.c ****   }
 227:Drivers/STM32F2xx_HAL_Driver/Src/stm32f2xx_hal_dma.c ****   
 228:Drivers/STM32F2xx_HAL_Driver/Src/stm32f2xx_hal_dma.c ****   /* Get the CR register value */
 229:Drivers/STM32F2xx_HAL_Driver/Src/stm32f2xx_hal_dma.c ****   tmp = hdma->Instance->CR;
 230:Drivers/STM32F2xx_HAL_Driver/Src/stm32f2xx_hal_dma.c **** 
 231:Drivers/STM32F2xx_HAL_Driver/Src/stm32f2xx_hal_dma.c ****   /* Clear CHSEL, MBURST, PBURST, PL, MSIZE, PSIZE, MINC, PINC, CIRC, DIR, CT and DBM bits */
 232:Drivers/STM32F2xx_HAL_Driver/Src/stm32f2xx_hal_dma.c ****   tmp &= ((uint32_t)~(DMA_SxCR_CHSEL | DMA_SxCR_MBURST | DMA_SxCR_PBURST | \
 233:Drivers/STM32F2xx_HAL_Driver/Src/stm32f2xx_hal_dma.c ****                       DMA_SxCR_PL    | DMA_SxCR_MSIZE  | DMA_SxCR_PSIZE  | \
 234:Drivers/STM32F2xx_HAL_Driver/Src/stm32f2xx_hal_dma.c ****                       DMA_SxCR_MINC  | DMA_SxCR_PINC   | DMA_SxCR_CIRC   | \
 235:Drivers/STM32F2xx_HAL_Driver/Src/stm32f2xx_hal_dma.c ****                       DMA_SxCR_DIR   | DMA_SxCR_CT     | DMA_SxCR_DBM));
 236:Drivers/STM32F2xx_HAL_Driver/Src/stm32f2xx_hal_dma.c **** 
 237:Drivers/STM32F2xx_HAL_Driver/Src/stm32f2xx_hal_dma.c ****   /* Prepare the DMA Stream configuration */
 238:Drivers/STM32F2xx_HAL_Driver/Src/stm32f2xx_hal_dma.c ****   tmp |=  hdma->Init.Channel             | hdma->Init.Direction        |
 239:Drivers/STM32F2xx_HAL_Driver/Src/stm32f2xx_hal_dma.c ****           hdma->Init.PeriphInc           | hdma->Init.MemInc           |
 240:Drivers/STM32F2xx_HAL_Driver/Src/stm32f2xx_hal_dma.c ****           hdma->Init.PeriphDataAlignment | hdma->Init.MemDataAlignment |
 241:Drivers/STM32F2xx_HAL_Driver/Src/stm32f2xx_hal_dma.c ****           hdma->Init.Mode                | hdma->Init.Priority;
 242:Drivers/STM32F2xx_HAL_Driver/Src/stm32f2xx_hal_dma.c **** 
 243:Drivers/STM32F2xx_HAL_Driver/Src/stm32f2xx_hal_dma.c ****   /* the Memory burst and peripheral burst are not used when the FIFO is disabled */
 244:Drivers/STM32F2xx_HAL_Driver/Src/stm32f2xx_hal_dma.c ****   if(hdma->Init.FIFOMode == DMA_FIFOMODE_ENABLE)
 245:Drivers/STM32F2xx_HAL_Driver/Src/stm32f2xx_hal_dma.c ****   {
 246:Drivers/STM32F2xx_HAL_Driver/Src/stm32f2xx_hal_dma.c ****     /* Get memory burst and peripheral burst */
 247:Drivers/STM32F2xx_HAL_Driver/Src/stm32f2xx_hal_dma.c ****     tmp |=  hdma->Init.MemBurst | hdma->Init.PeriphBurst;
 248:Drivers/STM32F2xx_HAL_Driver/Src/stm32f2xx_hal_dma.c ****   }
 249:Drivers/STM32F2xx_HAL_Driver/Src/stm32f2xx_hal_dma.c ****   
 250:Drivers/STM32F2xx_HAL_Driver/Src/stm32f2xx_hal_dma.c ****   /* Write to DMA Stream CR register */
 251:Drivers/STM32F2xx_HAL_Driver/Src/stm32f2xx_hal_dma.c ****   hdma->Instance->CR = tmp;  
 252:Drivers/STM32F2xx_HAL_Driver/Src/stm32f2xx_hal_dma.c **** 
 253:Drivers/STM32F2xx_HAL_Driver/Src/stm32f2xx_hal_dma.c ****   /* Get the FCR register value */
 254:Drivers/STM32F2xx_HAL_Driver/Src/stm32f2xx_hal_dma.c ****   tmp = hdma->Instance->FCR;
 255:Drivers/STM32F2xx_HAL_Driver/Src/stm32f2xx_hal_dma.c **** 
 256:Drivers/STM32F2xx_HAL_Driver/Src/stm32f2xx_hal_dma.c ****   /* Clear Direct mode and FIFO threshold bits */
 257:Drivers/STM32F2xx_HAL_Driver/Src/stm32f2xx_hal_dma.c ****   tmp &= (uint32_t)~(DMA_SxFCR_DMDIS | DMA_SxFCR_FTH);
 258:Drivers/STM32F2xx_HAL_Driver/Src/stm32f2xx_hal_dma.c **** 
 259:Drivers/STM32F2xx_HAL_Driver/Src/stm32f2xx_hal_dma.c ****   /* Prepare the DMA Stream FIFO configuration */
 260:Drivers/STM32F2xx_HAL_Driver/Src/stm32f2xx_hal_dma.c ****   tmp |= hdma->Init.FIFOMode;
ARM GAS  C:\Users\User\AppData\Local\Temp\cc2bsKoj.s 			page 6


 261:Drivers/STM32F2xx_HAL_Driver/Src/stm32f2xx_hal_dma.c **** 
 262:Drivers/STM32F2xx_HAL_Driver/Src/stm32f2xx_hal_dma.c ****   /* The FIFO threshold is not used when the FIFO mode is disabled */
 263:Drivers/STM32F2xx_HAL_Driver/Src/stm32f2xx_hal_dma.c ****   if(hdma->Init.FIFOMode == DMA_FIFOMODE_ENABLE)
 264:Drivers/STM32F2xx_HAL_Driver/Src/stm32f2xx_hal_dma.c ****   {
 265:Drivers/STM32F2xx_HAL_Driver/Src/stm32f2xx_hal_dma.c ****     /* Get the FIFO threshold */
 266:Drivers/STM32F2xx_HAL_Driver/Src/stm32f2xx_hal_dma.c ****     tmp |= hdma->Init.FIFOThreshold;
 267:Drivers/STM32F2xx_HAL_Driver/Src/stm32f2xx_hal_dma.c ****     
 268:Drivers/STM32F2xx_HAL_Driver/Src/stm32f2xx_hal_dma.c ****     /* Check compatibility between FIFO threshold level and size of the memory burst */
 269:Drivers/STM32F2xx_HAL_Driver/Src/stm32f2xx_hal_dma.c ****     /* for INCR4, INCR8, INCR16 bursts */
 270:Drivers/STM32F2xx_HAL_Driver/Src/stm32f2xx_hal_dma.c ****     if (hdma->Init.MemBurst != DMA_MBURST_SINGLE)
 271:Drivers/STM32F2xx_HAL_Driver/Src/stm32f2xx_hal_dma.c ****     {
 272:Drivers/STM32F2xx_HAL_Driver/Src/stm32f2xx_hal_dma.c ****       if (DMA_CheckFifoParam(hdma) != HAL_OK)
 273:Drivers/STM32F2xx_HAL_Driver/Src/stm32f2xx_hal_dma.c ****       {
 274:Drivers/STM32F2xx_HAL_Driver/Src/stm32f2xx_hal_dma.c ****         /* Update error code */
 275:Drivers/STM32F2xx_HAL_Driver/Src/stm32f2xx_hal_dma.c ****         hdma->ErrorCode = HAL_DMA_ERROR_PARAM;
 276:Drivers/STM32F2xx_HAL_Driver/Src/stm32f2xx_hal_dma.c ****         
 277:Drivers/STM32F2xx_HAL_Driver/Src/stm32f2xx_hal_dma.c ****         /* Change the DMA state */
 278:Drivers/STM32F2xx_HAL_Driver/Src/stm32f2xx_hal_dma.c ****         hdma->State = HAL_DMA_STATE_READY;
 279:Drivers/STM32F2xx_HAL_Driver/Src/stm32f2xx_hal_dma.c ****         
 280:Drivers/STM32F2xx_HAL_Driver/Src/stm32f2xx_hal_dma.c ****         return HAL_ERROR; 
 281:Drivers/STM32F2xx_HAL_Driver/Src/stm32f2xx_hal_dma.c ****       }
 282:Drivers/STM32F2xx_HAL_Driver/Src/stm32f2xx_hal_dma.c ****     }
 283:Drivers/STM32F2xx_HAL_Driver/Src/stm32f2xx_hal_dma.c ****   }
 284:Drivers/STM32F2xx_HAL_Driver/Src/stm32f2xx_hal_dma.c ****   
 285:Drivers/STM32F2xx_HAL_Driver/Src/stm32f2xx_hal_dma.c ****   /* Write to DMA Stream FCR */
 286:Drivers/STM32F2xx_HAL_Driver/Src/stm32f2xx_hal_dma.c ****   hdma->Instance->FCR = tmp;
 287:Drivers/STM32F2xx_HAL_Driver/Src/stm32f2xx_hal_dma.c **** 
 288:Drivers/STM32F2xx_HAL_Driver/Src/stm32f2xx_hal_dma.c ****   /* Initialize StreamBaseAddress and StreamIndex parameters to be used to calculate
 289:Drivers/STM32F2xx_HAL_Driver/Src/stm32f2xx_hal_dma.c ****      DMA steam Base Address needed by HAL_DMA_IRQHandler() and HAL_DMA_PollForTransfer() */
 290:Drivers/STM32F2xx_HAL_Driver/Src/stm32f2xx_hal_dma.c ****   regs = (DMA_Base_Registers *)DMA_CalcBaseAndBitshift(hdma);
 291:Drivers/STM32F2xx_HAL_Driver/Src/stm32f2xx_hal_dma.c ****   
 292:Drivers/STM32F2xx_HAL_Driver/Src/stm32f2xx_hal_dma.c ****   /* Clear all interrupt flags */
 293:Drivers/STM32F2xx_HAL_Driver/Src/stm32f2xx_hal_dma.c ****   regs->IFCR = 0x3FU << hdma->StreamIndex;
 294:Drivers/STM32F2xx_HAL_Driver/Src/stm32f2xx_hal_dma.c **** 
 295:Drivers/STM32F2xx_HAL_Driver/Src/stm32f2xx_hal_dma.c ****   /* Initialize the error code */
 296:Drivers/STM32F2xx_HAL_Driver/Src/stm32f2xx_hal_dma.c ****   hdma->ErrorCode = HAL_DMA_ERROR_NONE;
 297:Drivers/STM32F2xx_HAL_Driver/Src/stm32f2xx_hal_dma.c ****                                                                                      
 298:Drivers/STM32F2xx_HAL_Driver/Src/stm32f2xx_hal_dma.c ****   /* Initialize the DMA state */
 299:Drivers/STM32F2xx_HAL_Driver/Src/stm32f2xx_hal_dma.c ****   hdma->State = HAL_DMA_STATE_READY;
 300:Drivers/STM32F2xx_HAL_Driver/Src/stm32f2xx_hal_dma.c **** 
 301:Drivers/STM32F2xx_HAL_Driver/Src/stm32f2xx_hal_dma.c ****   return HAL_OK;
 302:Drivers/STM32F2xx_HAL_Driver/Src/stm32f2xx_hal_dma.c **** }
 303:Drivers/STM32F2xx_HAL_Driver/Src/stm32f2xx_hal_dma.c **** 
 304:Drivers/STM32F2xx_HAL_Driver/Src/stm32f2xx_hal_dma.c **** /**
 305:Drivers/STM32F2xx_HAL_Driver/Src/stm32f2xx_hal_dma.c ****   * @brief  DeInitializes the DMA peripheral 
 306:Drivers/STM32F2xx_HAL_Driver/Src/stm32f2xx_hal_dma.c ****   * @param  hdma pointer to a DMA_HandleTypeDef structure that contains
 307:Drivers/STM32F2xx_HAL_Driver/Src/stm32f2xx_hal_dma.c ****   *               the configuration information for the specified DMA Stream.  
 308:Drivers/STM32F2xx_HAL_Driver/Src/stm32f2xx_hal_dma.c ****   * @retval HAL status
 309:Drivers/STM32F2xx_HAL_Driver/Src/stm32f2xx_hal_dma.c ****   */
 310:Drivers/STM32F2xx_HAL_Driver/Src/stm32f2xx_hal_dma.c **** HAL_StatusTypeDef HAL_DMA_DeInit(DMA_HandleTypeDef *hdma)
 311:Drivers/STM32F2xx_HAL_Driver/Src/stm32f2xx_hal_dma.c **** {
 312:Drivers/STM32F2xx_HAL_Driver/Src/stm32f2xx_hal_dma.c ****   DMA_Base_Registers *regs;
 313:Drivers/STM32F2xx_HAL_Driver/Src/stm32f2xx_hal_dma.c **** 
 314:Drivers/STM32F2xx_HAL_Driver/Src/stm32f2xx_hal_dma.c ****   /* Check the DMA peripheral state */
 315:Drivers/STM32F2xx_HAL_Driver/Src/stm32f2xx_hal_dma.c ****   if(hdma == NULL)
 316:Drivers/STM32F2xx_HAL_Driver/Src/stm32f2xx_hal_dma.c ****   {
 317:Drivers/STM32F2xx_HAL_Driver/Src/stm32f2xx_hal_dma.c ****     return HAL_ERROR;
ARM GAS  C:\Users\User\AppData\Local\Temp\cc2bsKoj.s 			page 7


 318:Drivers/STM32F2xx_HAL_Driver/Src/stm32f2xx_hal_dma.c ****   }
 319:Drivers/STM32F2xx_HAL_Driver/Src/stm32f2xx_hal_dma.c ****   
 320:Drivers/STM32F2xx_HAL_Driver/Src/stm32f2xx_hal_dma.c ****   /* Check the DMA peripheral state */
 321:Drivers/STM32F2xx_HAL_Driver/Src/stm32f2xx_hal_dma.c ****   if(hdma->State == HAL_DMA_STATE_BUSY)
 322:Drivers/STM32F2xx_HAL_Driver/Src/stm32f2xx_hal_dma.c ****   {
 323:Drivers/STM32F2xx_HAL_Driver/Src/stm32f2xx_hal_dma.c ****     /* Return error status */
 324:Drivers/STM32F2xx_HAL_Driver/Src/stm32f2xx_hal_dma.c ****     return HAL_BUSY;
 325:Drivers/STM32F2xx_HAL_Driver/Src/stm32f2xx_hal_dma.c ****   }
 326:Drivers/STM32F2xx_HAL_Driver/Src/stm32f2xx_hal_dma.c **** 
 327:Drivers/STM32F2xx_HAL_Driver/Src/stm32f2xx_hal_dma.c ****   /* Check the parameters */
 328:Drivers/STM32F2xx_HAL_Driver/Src/stm32f2xx_hal_dma.c ****   assert_param(IS_DMA_STREAM_ALL_INSTANCE(hdma->Instance));
 329:Drivers/STM32F2xx_HAL_Driver/Src/stm32f2xx_hal_dma.c **** 
 330:Drivers/STM32F2xx_HAL_Driver/Src/stm32f2xx_hal_dma.c ****   /* Disable the selected DMA Streamx */
 331:Drivers/STM32F2xx_HAL_Driver/Src/stm32f2xx_hal_dma.c ****   __HAL_DMA_DISABLE(hdma);
 332:Drivers/STM32F2xx_HAL_Driver/Src/stm32f2xx_hal_dma.c **** 
 333:Drivers/STM32F2xx_HAL_Driver/Src/stm32f2xx_hal_dma.c ****   /* Reset DMA Streamx control register */
 334:Drivers/STM32F2xx_HAL_Driver/Src/stm32f2xx_hal_dma.c ****   hdma->Instance->CR   = 0U;
 335:Drivers/STM32F2xx_HAL_Driver/Src/stm32f2xx_hal_dma.c **** 
 336:Drivers/STM32F2xx_HAL_Driver/Src/stm32f2xx_hal_dma.c ****   /* Reset DMA Streamx number of data to transfer register */
 337:Drivers/STM32F2xx_HAL_Driver/Src/stm32f2xx_hal_dma.c ****   hdma->Instance->NDTR = 0U;
 338:Drivers/STM32F2xx_HAL_Driver/Src/stm32f2xx_hal_dma.c **** 
 339:Drivers/STM32F2xx_HAL_Driver/Src/stm32f2xx_hal_dma.c ****   /* Reset DMA Streamx peripheral address register */
 340:Drivers/STM32F2xx_HAL_Driver/Src/stm32f2xx_hal_dma.c ****   hdma->Instance->PAR  = 0U;
 341:Drivers/STM32F2xx_HAL_Driver/Src/stm32f2xx_hal_dma.c **** 
 342:Drivers/STM32F2xx_HAL_Driver/Src/stm32f2xx_hal_dma.c ****   /* Reset DMA Streamx memory 0 address register */
 343:Drivers/STM32F2xx_HAL_Driver/Src/stm32f2xx_hal_dma.c ****   hdma->Instance->M0AR = 0U;
 344:Drivers/STM32F2xx_HAL_Driver/Src/stm32f2xx_hal_dma.c ****   
 345:Drivers/STM32F2xx_HAL_Driver/Src/stm32f2xx_hal_dma.c ****   /* Reset DMA Streamx memory 1 address register */
 346:Drivers/STM32F2xx_HAL_Driver/Src/stm32f2xx_hal_dma.c ****   hdma->Instance->M1AR = 0U;
 347:Drivers/STM32F2xx_HAL_Driver/Src/stm32f2xx_hal_dma.c ****   
 348:Drivers/STM32F2xx_HAL_Driver/Src/stm32f2xx_hal_dma.c ****   /* Reset DMA Streamx FIFO control register */
 349:Drivers/STM32F2xx_HAL_Driver/Src/stm32f2xx_hal_dma.c ****   hdma->Instance->FCR  = 0x00000021U;
 350:Drivers/STM32F2xx_HAL_Driver/Src/stm32f2xx_hal_dma.c ****   
 351:Drivers/STM32F2xx_HAL_Driver/Src/stm32f2xx_hal_dma.c ****   /* Get DMA steam Base Address */  
 352:Drivers/STM32F2xx_HAL_Driver/Src/stm32f2xx_hal_dma.c ****   regs = (DMA_Base_Registers *)DMA_CalcBaseAndBitshift(hdma);
 353:Drivers/STM32F2xx_HAL_Driver/Src/stm32f2xx_hal_dma.c ****   
 354:Drivers/STM32F2xx_HAL_Driver/Src/stm32f2xx_hal_dma.c ****   /* Clean all callbacks */
 355:Drivers/STM32F2xx_HAL_Driver/Src/stm32f2xx_hal_dma.c ****   hdma->XferCpltCallback = NULL;
 356:Drivers/STM32F2xx_HAL_Driver/Src/stm32f2xx_hal_dma.c ****   hdma->XferHalfCpltCallback = NULL;
 357:Drivers/STM32F2xx_HAL_Driver/Src/stm32f2xx_hal_dma.c ****   hdma->XferM1CpltCallback = NULL;
 358:Drivers/STM32F2xx_HAL_Driver/Src/stm32f2xx_hal_dma.c ****   hdma->XferM1HalfCpltCallback = NULL;
 359:Drivers/STM32F2xx_HAL_Driver/Src/stm32f2xx_hal_dma.c ****   hdma->XferErrorCallback = NULL;
 360:Drivers/STM32F2xx_HAL_Driver/Src/stm32f2xx_hal_dma.c ****   hdma->XferAbortCallback = NULL;
 361:Drivers/STM32F2xx_HAL_Driver/Src/stm32f2xx_hal_dma.c **** 
 362:Drivers/STM32F2xx_HAL_Driver/Src/stm32f2xx_hal_dma.c ****   /* Clear all interrupt flags at correct offset within the register */
 363:Drivers/STM32F2xx_HAL_Driver/Src/stm32f2xx_hal_dma.c ****   regs->IFCR = 0x3FU << hdma->StreamIndex;
 364:Drivers/STM32F2xx_HAL_Driver/Src/stm32f2xx_hal_dma.c **** 
 365:Drivers/STM32F2xx_HAL_Driver/Src/stm32f2xx_hal_dma.c ****   /* Reset the error code */
 366:Drivers/STM32F2xx_HAL_Driver/Src/stm32f2xx_hal_dma.c ****   hdma->ErrorCode = HAL_DMA_ERROR_NONE;
 367:Drivers/STM32F2xx_HAL_Driver/Src/stm32f2xx_hal_dma.c **** 
 368:Drivers/STM32F2xx_HAL_Driver/Src/stm32f2xx_hal_dma.c ****   /* Reset the DMA state */
 369:Drivers/STM32F2xx_HAL_Driver/Src/stm32f2xx_hal_dma.c ****   hdma->State = HAL_DMA_STATE_RESET;
 370:Drivers/STM32F2xx_HAL_Driver/Src/stm32f2xx_hal_dma.c **** 
 371:Drivers/STM32F2xx_HAL_Driver/Src/stm32f2xx_hal_dma.c ****   /* Release Lock */
 372:Drivers/STM32F2xx_HAL_Driver/Src/stm32f2xx_hal_dma.c ****   __HAL_UNLOCK(hdma);
 373:Drivers/STM32F2xx_HAL_Driver/Src/stm32f2xx_hal_dma.c **** 
 374:Drivers/STM32F2xx_HAL_Driver/Src/stm32f2xx_hal_dma.c ****   return HAL_OK;
ARM GAS  C:\Users\User\AppData\Local\Temp\cc2bsKoj.s 			page 8


 375:Drivers/STM32F2xx_HAL_Driver/Src/stm32f2xx_hal_dma.c **** }
 376:Drivers/STM32F2xx_HAL_Driver/Src/stm32f2xx_hal_dma.c **** 
 377:Drivers/STM32F2xx_HAL_Driver/Src/stm32f2xx_hal_dma.c **** /**
 378:Drivers/STM32F2xx_HAL_Driver/Src/stm32f2xx_hal_dma.c ****   * @}
 379:Drivers/STM32F2xx_HAL_Driver/Src/stm32f2xx_hal_dma.c ****   */
 380:Drivers/STM32F2xx_HAL_Driver/Src/stm32f2xx_hal_dma.c **** 
 381:Drivers/STM32F2xx_HAL_Driver/Src/stm32f2xx_hal_dma.c **** /** @addtogroup DMA_Exported_Functions_Group2
 382:Drivers/STM32F2xx_HAL_Driver/Src/stm32f2xx_hal_dma.c ****   *
 383:Drivers/STM32F2xx_HAL_Driver/Src/stm32f2xx_hal_dma.c **** @verbatim   
 384:Drivers/STM32F2xx_HAL_Driver/Src/stm32f2xx_hal_dma.c ****  ===============================================================================
 385:Drivers/STM32F2xx_HAL_Driver/Src/stm32f2xx_hal_dma.c ****                       #####  IO operation functions  #####
 386:Drivers/STM32F2xx_HAL_Driver/Src/stm32f2xx_hal_dma.c ****  ===============================================================================
 387:Drivers/STM32F2xx_HAL_Driver/Src/stm32f2xx_hal_dma.c ****     [..]  This section provides functions allowing to:
 388:Drivers/STM32F2xx_HAL_Driver/Src/stm32f2xx_hal_dma.c ****       (+) Configure the source, destination address and data length and Start DMA transfer
 389:Drivers/STM32F2xx_HAL_Driver/Src/stm32f2xx_hal_dma.c ****       (+) Configure the source, destination address and data length and 
 390:Drivers/STM32F2xx_HAL_Driver/Src/stm32f2xx_hal_dma.c ****           Start DMA transfer with interrupt
 391:Drivers/STM32F2xx_HAL_Driver/Src/stm32f2xx_hal_dma.c ****       (+) Abort DMA transfer
 392:Drivers/STM32F2xx_HAL_Driver/Src/stm32f2xx_hal_dma.c ****       (+) Poll for transfer complete
 393:Drivers/STM32F2xx_HAL_Driver/Src/stm32f2xx_hal_dma.c ****       (+) Handle DMA interrupt request  
 394:Drivers/STM32F2xx_HAL_Driver/Src/stm32f2xx_hal_dma.c **** 
 395:Drivers/STM32F2xx_HAL_Driver/Src/stm32f2xx_hal_dma.c **** @endverbatim
 396:Drivers/STM32F2xx_HAL_Driver/Src/stm32f2xx_hal_dma.c ****   * @{
 397:Drivers/STM32F2xx_HAL_Driver/Src/stm32f2xx_hal_dma.c ****   */
 398:Drivers/STM32F2xx_HAL_Driver/Src/stm32f2xx_hal_dma.c **** 
 399:Drivers/STM32F2xx_HAL_Driver/Src/stm32f2xx_hal_dma.c **** /**
 400:Drivers/STM32F2xx_HAL_Driver/Src/stm32f2xx_hal_dma.c ****   * @brief  Starts the DMA Transfer.
 401:Drivers/STM32F2xx_HAL_Driver/Src/stm32f2xx_hal_dma.c ****   * @param  hdma pointer to a DMA_HandleTypeDef structure that contains
 402:Drivers/STM32F2xx_HAL_Driver/Src/stm32f2xx_hal_dma.c ****   *              the configuration information for the specified DMA Stream.
 403:Drivers/STM32F2xx_HAL_Driver/Src/stm32f2xx_hal_dma.c ****   * @param  SrcAddress The source memory Buffer address
 404:Drivers/STM32F2xx_HAL_Driver/Src/stm32f2xx_hal_dma.c ****   * @param  DstAddress The destination memory Buffer address
 405:Drivers/STM32F2xx_HAL_Driver/Src/stm32f2xx_hal_dma.c ****   * @param  DataLength The length of data to be transferred from source to destination
 406:Drivers/STM32F2xx_HAL_Driver/Src/stm32f2xx_hal_dma.c ****   * @retval HAL status
 407:Drivers/STM32F2xx_HAL_Driver/Src/stm32f2xx_hal_dma.c ****   */
 408:Drivers/STM32F2xx_HAL_Driver/Src/stm32f2xx_hal_dma.c **** HAL_StatusTypeDef HAL_DMA_Start(DMA_HandleTypeDef *hdma, uint32_t SrcAddress, uint32_t DstAddress, 
 409:Drivers/STM32F2xx_HAL_Driver/Src/stm32f2xx_hal_dma.c **** {
 410:Drivers/STM32F2xx_HAL_Driver/Src/stm32f2xx_hal_dma.c ****   HAL_StatusTypeDef status = HAL_OK;
 411:Drivers/STM32F2xx_HAL_Driver/Src/stm32f2xx_hal_dma.c ****   
 412:Drivers/STM32F2xx_HAL_Driver/Src/stm32f2xx_hal_dma.c ****   /* Check the parameters */
 413:Drivers/STM32F2xx_HAL_Driver/Src/stm32f2xx_hal_dma.c ****   assert_param(IS_DMA_BUFFER_SIZE(DataLength));
 414:Drivers/STM32F2xx_HAL_Driver/Src/stm32f2xx_hal_dma.c **** 
 415:Drivers/STM32F2xx_HAL_Driver/Src/stm32f2xx_hal_dma.c ****   /* Process locked */
 416:Drivers/STM32F2xx_HAL_Driver/Src/stm32f2xx_hal_dma.c ****   __HAL_LOCK(hdma);
 417:Drivers/STM32F2xx_HAL_Driver/Src/stm32f2xx_hal_dma.c **** 
 418:Drivers/STM32F2xx_HAL_Driver/Src/stm32f2xx_hal_dma.c ****   if(HAL_DMA_STATE_READY == hdma->State)
 419:Drivers/STM32F2xx_HAL_Driver/Src/stm32f2xx_hal_dma.c ****   {
 420:Drivers/STM32F2xx_HAL_Driver/Src/stm32f2xx_hal_dma.c ****     /* Change DMA peripheral state */
 421:Drivers/STM32F2xx_HAL_Driver/Src/stm32f2xx_hal_dma.c ****     hdma->State = HAL_DMA_STATE_BUSY;
 422:Drivers/STM32F2xx_HAL_Driver/Src/stm32f2xx_hal_dma.c ****     
 423:Drivers/STM32F2xx_HAL_Driver/Src/stm32f2xx_hal_dma.c ****     /* Initialize the error code */
 424:Drivers/STM32F2xx_HAL_Driver/Src/stm32f2xx_hal_dma.c ****     hdma->ErrorCode = HAL_DMA_ERROR_NONE;
 425:Drivers/STM32F2xx_HAL_Driver/Src/stm32f2xx_hal_dma.c ****     
 426:Drivers/STM32F2xx_HAL_Driver/Src/stm32f2xx_hal_dma.c ****     /* Configure the source, destination address and the data length */
 427:Drivers/STM32F2xx_HAL_Driver/Src/stm32f2xx_hal_dma.c ****     DMA_SetConfig(hdma, SrcAddress, DstAddress, DataLength);
 428:Drivers/STM32F2xx_HAL_Driver/Src/stm32f2xx_hal_dma.c **** 
 429:Drivers/STM32F2xx_HAL_Driver/Src/stm32f2xx_hal_dma.c ****     /* Enable the Peripheral */
 430:Drivers/STM32F2xx_HAL_Driver/Src/stm32f2xx_hal_dma.c ****     __HAL_DMA_ENABLE(hdma);
 431:Drivers/STM32F2xx_HAL_Driver/Src/stm32f2xx_hal_dma.c ****   }
ARM GAS  C:\Users\User\AppData\Local\Temp\cc2bsKoj.s 			page 9


 432:Drivers/STM32F2xx_HAL_Driver/Src/stm32f2xx_hal_dma.c ****   else
 433:Drivers/STM32F2xx_HAL_Driver/Src/stm32f2xx_hal_dma.c ****   {
 434:Drivers/STM32F2xx_HAL_Driver/Src/stm32f2xx_hal_dma.c ****     /* Process unlocked */
 435:Drivers/STM32F2xx_HAL_Driver/Src/stm32f2xx_hal_dma.c ****     __HAL_UNLOCK(hdma);
 436:Drivers/STM32F2xx_HAL_Driver/Src/stm32f2xx_hal_dma.c ****     
 437:Drivers/STM32F2xx_HAL_Driver/Src/stm32f2xx_hal_dma.c ****     /* Return error status */
 438:Drivers/STM32F2xx_HAL_Driver/Src/stm32f2xx_hal_dma.c ****     status = HAL_BUSY;
 439:Drivers/STM32F2xx_HAL_Driver/Src/stm32f2xx_hal_dma.c ****   } 
 440:Drivers/STM32F2xx_HAL_Driver/Src/stm32f2xx_hal_dma.c ****   return status; 
 441:Drivers/STM32F2xx_HAL_Driver/Src/stm32f2xx_hal_dma.c **** }
 442:Drivers/STM32F2xx_HAL_Driver/Src/stm32f2xx_hal_dma.c **** 
 443:Drivers/STM32F2xx_HAL_Driver/Src/stm32f2xx_hal_dma.c **** /**
 444:Drivers/STM32F2xx_HAL_Driver/Src/stm32f2xx_hal_dma.c ****   * @brief  Start the DMA Transfer with interrupt enabled.
 445:Drivers/STM32F2xx_HAL_Driver/Src/stm32f2xx_hal_dma.c ****   * @param  hdma       pointer to a DMA_HandleTypeDef structure that contains
 446:Drivers/STM32F2xx_HAL_Driver/Src/stm32f2xx_hal_dma.c ****   *                     the configuration information for the specified DMA Stream.  
 447:Drivers/STM32F2xx_HAL_Driver/Src/stm32f2xx_hal_dma.c ****   * @param  SrcAddress The source memory Buffer address
 448:Drivers/STM32F2xx_HAL_Driver/Src/stm32f2xx_hal_dma.c ****   * @param  DstAddress The destination memory Buffer address
 449:Drivers/STM32F2xx_HAL_Driver/Src/stm32f2xx_hal_dma.c ****   * @param  DataLength The length of data to be transferred from source to destination
 450:Drivers/STM32F2xx_HAL_Driver/Src/stm32f2xx_hal_dma.c ****   * @retval HAL status
 451:Drivers/STM32F2xx_HAL_Driver/Src/stm32f2xx_hal_dma.c ****   */
 452:Drivers/STM32F2xx_HAL_Driver/Src/stm32f2xx_hal_dma.c **** HAL_StatusTypeDef HAL_DMA_Start_IT(DMA_HandleTypeDef *hdma, uint32_t SrcAddress, uint32_t DstAddres
 453:Drivers/STM32F2xx_HAL_Driver/Src/stm32f2xx_hal_dma.c **** {
 454:Drivers/STM32F2xx_HAL_Driver/Src/stm32f2xx_hal_dma.c ****   HAL_StatusTypeDef status = HAL_OK;
 455:Drivers/STM32F2xx_HAL_Driver/Src/stm32f2xx_hal_dma.c **** 
 456:Drivers/STM32F2xx_HAL_Driver/Src/stm32f2xx_hal_dma.c ****   /* calculate DMA base and stream number */
 457:Drivers/STM32F2xx_HAL_Driver/Src/stm32f2xx_hal_dma.c ****   DMA_Base_Registers *regs = (DMA_Base_Registers *)hdma->StreamBaseAddress;
 458:Drivers/STM32F2xx_HAL_Driver/Src/stm32f2xx_hal_dma.c ****   
 459:Drivers/STM32F2xx_HAL_Driver/Src/stm32f2xx_hal_dma.c ****   /* Check the parameters */
 460:Drivers/STM32F2xx_HAL_Driver/Src/stm32f2xx_hal_dma.c ****   assert_param(IS_DMA_BUFFER_SIZE(DataLength));
 461:Drivers/STM32F2xx_HAL_Driver/Src/stm32f2xx_hal_dma.c ****  
 462:Drivers/STM32F2xx_HAL_Driver/Src/stm32f2xx_hal_dma.c ****   /* Process locked */
 463:Drivers/STM32F2xx_HAL_Driver/Src/stm32f2xx_hal_dma.c ****   __HAL_LOCK(hdma);
 464:Drivers/STM32F2xx_HAL_Driver/Src/stm32f2xx_hal_dma.c ****   
 465:Drivers/STM32F2xx_HAL_Driver/Src/stm32f2xx_hal_dma.c ****   if(HAL_DMA_STATE_READY == hdma->State)
 466:Drivers/STM32F2xx_HAL_Driver/Src/stm32f2xx_hal_dma.c ****   {
 467:Drivers/STM32F2xx_HAL_Driver/Src/stm32f2xx_hal_dma.c ****     /* Change DMA peripheral state */
 468:Drivers/STM32F2xx_HAL_Driver/Src/stm32f2xx_hal_dma.c ****     hdma->State = HAL_DMA_STATE_BUSY;
 469:Drivers/STM32F2xx_HAL_Driver/Src/stm32f2xx_hal_dma.c ****     
 470:Drivers/STM32F2xx_HAL_Driver/Src/stm32f2xx_hal_dma.c ****     /* Initialize the error code */
 471:Drivers/STM32F2xx_HAL_Driver/Src/stm32f2xx_hal_dma.c ****     hdma->ErrorCode = HAL_DMA_ERROR_NONE;
 472:Drivers/STM32F2xx_HAL_Driver/Src/stm32f2xx_hal_dma.c ****     
 473:Drivers/STM32F2xx_HAL_Driver/Src/stm32f2xx_hal_dma.c ****     /* Configure the source, destination address and the data length */
 474:Drivers/STM32F2xx_HAL_Driver/Src/stm32f2xx_hal_dma.c ****     DMA_SetConfig(hdma, SrcAddress, DstAddress, DataLength);
 475:Drivers/STM32F2xx_HAL_Driver/Src/stm32f2xx_hal_dma.c ****     
 476:Drivers/STM32F2xx_HAL_Driver/Src/stm32f2xx_hal_dma.c ****     /* Clear all interrupt flags at correct offset within the register */
 477:Drivers/STM32F2xx_HAL_Driver/Src/stm32f2xx_hal_dma.c ****     regs->IFCR = 0x3FU << hdma->StreamIndex;
 478:Drivers/STM32F2xx_HAL_Driver/Src/stm32f2xx_hal_dma.c ****     
 479:Drivers/STM32F2xx_HAL_Driver/Src/stm32f2xx_hal_dma.c ****     /* Enable Common interrupts*/
 480:Drivers/STM32F2xx_HAL_Driver/Src/stm32f2xx_hal_dma.c ****     hdma->Instance->CR  |= DMA_IT_TC | DMA_IT_TE | DMA_IT_DME;
 481:Drivers/STM32F2xx_HAL_Driver/Src/stm32f2xx_hal_dma.c ****     
 482:Drivers/STM32F2xx_HAL_Driver/Src/stm32f2xx_hal_dma.c ****     if(hdma->XferHalfCpltCallback != NULL)
 483:Drivers/STM32F2xx_HAL_Driver/Src/stm32f2xx_hal_dma.c ****     {
 484:Drivers/STM32F2xx_HAL_Driver/Src/stm32f2xx_hal_dma.c ****       hdma->Instance->CR  |= DMA_IT_HT;
 485:Drivers/STM32F2xx_HAL_Driver/Src/stm32f2xx_hal_dma.c ****     }
 486:Drivers/STM32F2xx_HAL_Driver/Src/stm32f2xx_hal_dma.c ****     
 487:Drivers/STM32F2xx_HAL_Driver/Src/stm32f2xx_hal_dma.c ****     /* Enable the Peripheral */
 488:Drivers/STM32F2xx_HAL_Driver/Src/stm32f2xx_hal_dma.c ****     __HAL_DMA_ENABLE(hdma);
ARM GAS  C:\Users\User\AppData\Local\Temp\cc2bsKoj.s 			page 10


 489:Drivers/STM32F2xx_HAL_Driver/Src/stm32f2xx_hal_dma.c ****   }
 490:Drivers/STM32F2xx_HAL_Driver/Src/stm32f2xx_hal_dma.c ****   else
 491:Drivers/STM32F2xx_HAL_Driver/Src/stm32f2xx_hal_dma.c ****   {
 492:Drivers/STM32F2xx_HAL_Driver/Src/stm32f2xx_hal_dma.c ****     /* Process unlocked */
 493:Drivers/STM32F2xx_HAL_Driver/Src/stm32f2xx_hal_dma.c ****     __HAL_UNLOCK(hdma);	  
 494:Drivers/STM32F2xx_HAL_Driver/Src/stm32f2xx_hal_dma.c ****     
 495:Drivers/STM32F2xx_HAL_Driver/Src/stm32f2xx_hal_dma.c ****     /* Return error status */
 496:Drivers/STM32F2xx_HAL_Driver/Src/stm32f2xx_hal_dma.c ****     status = HAL_BUSY;
 497:Drivers/STM32F2xx_HAL_Driver/Src/stm32f2xx_hal_dma.c ****   }
 498:Drivers/STM32F2xx_HAL_Driver/Src/stm32f2xx_hal_dma.c ****   
 499:Drivers/STM32F2xx_HAL_Driver/Src/stm32f2xx_hal_dma.c ****   return status;
 500:Drivers/STM32F2xx_HAL_Driver/Src/stm32f2xx_hal_dma.c **** }
 501:Drivers/STM32F2xx_HAL_Driver/Src/stm32f2xx_hal_dma.c **** 
 502:Drivers/STM32F2xx_HAL_Driver/Src/stm32f2xx_hal_dma.c **** /**
 503:Drivers/STM32F2xx_HAL_Driver/Src/stm32f2xx_hal_dma.c ****   * @brief  Aborts the DMA Transfer.
 504:Drivers/STM32F2xx_HAL_Driver/Src/stm32f2xx_hal_dma.c ****   * @param  hdma pointer to a DMA_HandleTypeDef structure that contains
 505:Drivers/STM32F2xx_HAL_Driver/Src/stm32f2xx_hal_dma.c ****   *                 the configuration information for the specified DMA Stream.
 506:Drivers/STM32F2xx_HAL_Driver/Src/stm32f2xx_hal_dma.c ****   *                   
 507:Drivers/STM32F2xx_HAL_Driver/Src/stm32f2xx_hal_dma.c ****   * @note  After disabling a DMA Stream, a check for wait until the DMA Stream is 
 508:Drivers/STM32F2xx_HAL_Driver/Src/stm32f2xx_hal_dma.c ****   *        effectively disabled is added. If a Stream is disabled 
 509:Drivers/STM32F2xx_HAL_Driver/Src/stm32f2xx_hal_dma.c ****   *        while a data transfer is ongoing, the current data will be transferred
 510:Drivers/STM32F2xx_HAL_Driver/Src/stm32f2xx_hal_dma.c ****   *        and the Stream will be effectively disabled only after the transfer of
 511:Drivers/STM32F2xx_HAL_Driver/Src/stm32f2xx_hal_dma.c ****   *        this single data is finished.  
 512:Drivers/STM32F2xx_HAL_Driver/Src/stm32f2xx_hal_dma.c ****   * @retval HAL status
 513:Drivers/STM32F2xx_HAL_Driver/Src/stm32f2xx_hal_dma.c ****   */
 514:Drivers/STM32F2xx_HAL_Driver/Src/stm32f2xx_hal_dma.c **** HAL_StatusTypeDef HAL_DMA_Abort(DMA_HandleTypeDef *hdma)
 515:Drivers/STM32F2xx_HAL_Driver/Src/stm32f2xx_hal_dma.c **** {
 516:Drivers/STM32F2xx_HAL_Driver/Src/stm32f2xx_hal_dma.c ****   /* calculate DMA base and stream number */
 517:Drivers/STM32F2xx_HAL_Driver/Src/stm32f2xx_hal_dma.c ****   DMA_Base_Registers *regs = (DMA_Base_Registers *)hdma->StreamBaseAddress;
 518:Drivers/STM32F2xx_HAL_Driver/Src/stm32f2xx_hal_dma.c ****   
 519:Drivers/STM32F2xx_HAL_Driver/Src/stm32f2xx_hal_dma.c ****   uint32_t tickstart = HAL_GetTick();
 520:Drivers/STM32F2xx_HAL_Driver/Src/stm32f2xx_hal_dma.c ****   
 521:Drivers/STM32F2xx_HAL_Driver/Src/stm32f2xx_hal_dma.c ****   if(hdma->State != HAL_DMA_STATE_BUSY)
 522:Drivers/STM32F2xx_HAL_Driver/Src/stm32f2xx_hal_dma.c ****   {
 523:Drivers/STM32F2xx_HAL_Driver/Src/stm32f2xx_hal_dma.c ****     hdma->ErrorCode = HAL_DMA_ERROR_NO_XFER;
 524:Drivers/STM32F2xx_HAL_Driver/Src/stm32f2xx_hal_dma.c ****     
 525:Drivers/STM32F2xx_HAL_Driver/Src/stm32f2xx_hal_dma.c ****     /* Process Unlocked */
 526:Drivers/STM32F2xx_HAL_Driver/Src/stm32f2xx_hal_dma.c ****     __HAL_UNLOCK(hdma);
 527:Drivers/STM32F2xx_HAL_Driver/Src/stm32f2xx_hal_dma.c ****     
 528:Drivers/STM32F2xx_HAL_Driver/Src/stm32f2xx_hal_dma.c ****     return HAL_ERROR;
 529:Drivers/STM32F2xx_HAL_Driver/Src/stm32f2xx_hal_dma.c ****   }
 530:Drivers/STM32F2xx_HAL_Driver/Src/stm32f2xx_hal_dma.c ****   else
 531:Drivers/STM32F2xx_HAL_Driver/Src/stm32f2xx_hal_dma.c ****   {
 532:Drivers/STM32F2xx_HAL_Driver/Src/stm32f2xx_hal_dma.c ****     /* Disable all the transfer interrupts */
 533:Drivers/STM32F2xx_HAL_Driver/Src/stm32f2xx_hal_dma.c ****     hdma->Instance->CR  &= ~(DMA_IT_TC | DMA_IT_TE | DMA_IT_DME);
 534:Drivers/STM32F2xx_HAL_Driver/Src/stm32f2xx_hal_dma.c ****     hdma->Instance->FCR &= ~(DMA_IT_FE);
 535:Drivers/STM32F2xx_HAL_Driver/Src/stm32f2xx_hal_dma.c ****     
 536:Drivers/STM32F2xx_HAL_Driver/Src/stm32f2xx_hal_dma.c ****     if((hdma->XferHalfCpltCallback != NULL) || (hdma->XferM1HalfCpltCallback != NULL))
 537:Drivers/STM32F2xx_HAL_Driver/Src/stm32f2xx_hal_dma.c ****     {
 538:Drivers/STM32F2xx_HAL_Driver/Src/stm32f2xx_hal_dma.c ****       hdma->Instance->CR  &= ~(DMA_IT_HT);
 539:Drivers/STM32F2xx_HAL_Driver/Src/stm32f2xx_hal_dma.c ****     }
 540:Drivers/STM32F2xx_HAL_Driver/Src/stm32f2xx_hal_dma.c ****     
 541:Drivers/STM32F2xx_HAL_Driver/Src/stm32f2xx_hal_dma.c ****     /* Disable the stream */
 542:Drivers/STM32F2xx_HAL_Driver/Src/stm32f2xx_hal_dma.c ****     __HAL_DMA_DISABLE(hdma);
 543:Drivers/STM32F2xx_HAL_Driver/Src/stm32f2xx_hal_dma.c ****     
 544:Drivers/STM32F2xx_HAL_Driver/Src/stm32f2xx_hal_dma.c ****     /* Check if the DMA Stream is effectively disabled */
 545:Drivers/STM32F2xx_HAL_Driver/Src/stm32f2xx_hal_dma.c ****     while((hdma->Instance->CR & DMA_SxCR_EN) != RESET)
ARM GAS  C:\Users\User\AppData\Local\Temp\cc2bsKoj.s 			page 11


 546:Drivers/STM32F2xx_HAL_Driver/Src/stm32f2xx_hal_dma.c ****     {
 547:Drivers/STM32F2xx_HAL_Driver/Src/stm32f2xx_hal_dma.c ****       /* Check for the Timeout */
 548:Drivers/STM32F2xx_HAL_Driver/Src/stm32f2xx_hal_dma.c ****       if((HAL_GetTick() - tickstart ) > HAL_TIMEOUT_DMA_ABORT)
 549:Drivers/STM32F2xx_HAL_Driver/Src/stm32f2xx_hal_dma.c ****       {
 550:Drivers/STM32F2xx_HAL_Driver/Src/stm32f2xx_hal_dma.c ****         /* Update error code */
 551:Drivers/STM32F2xx_HAL_Driver/Src/stm32f2xx_hal_dma.c ****         hdma->ErrorCode = HAL_DMA_ERROR_TIMEOUT;
 552:Drivers/STM32F2xx_HAL_Driver/Src/stm32f2xx_hal_dma.c ****         
 553:Drivers/STM32F2xx_HAL_Driver/Src/stm32f2xx_hal_dma.c ****         /* Process Unlocked */
 554:Drivers/STM32F2xx_HAL_Driver/Src/stm32f2xx_hal_dma.c ****         __HAL_UNLOCK(hdma);
 555:Drivers/STM32F2xx_HAL_Driver/Src/stm32f2xx_hal_dma.c ****         
 556:Drivers/STM32F2xx_HAL_Driver/Src/stm32f2xx_hal_dma.c ****         /* Change the DMA state */
 557:Drivers/STM32F2xx_HAL_Driver/Src/stm32f2xx_hal_dma.c ****         hdma->State = HAL_DMA_STATE_TIMEOUT;
 558:Drivers/STM32F2xx_HAL_Driver/Src/stm32f2xx_hal_dma.c ****         
 559:Drivers/STM32F2xx_HAL_Driver/Src/stm32f2xx_hal_dma.c ****         return HAL_TIMEOUT;
 560:Drivers/STM32F2xx_HAL_Driver/Src/stm32f2xx_hal_dma.c ****       }
 561:Drivers/STM32F2xx_HAL_Driver/Src/stm32f2xx_hal_dma.c ****     }
 562:Drivers/STM32F2xx_HAL_Driver/Src/stm32f2xx_hal_dma.c ****     
 563:Drivers/STM32F2xx_HAL_Driver/Src/stm32f2xx_hal_dma.c ****     /* Clear all interrupt flags at correct offset within the register */
 564:Drivers/STM32F2xx_HAL_Driver/Src/stm32f2xx_hal_dma.c ****     regs->IFCR = 0x3FU << hdma->StreamIndex;
 565:Drivers/STM32F2xx_HAL_Driver/Src/stm32f2xx_hal_dma.c ****     
 566:Drivers/STM32F2xx_HAL_Driver/Src/stm32f2xx_hal_dma.c ****     /* Process Unlocked */
 567:Drivers/STM32F2xx_HAL_Driver/Src/stm32f2xx_hal_dma.c ****     __HAL_UNLOCK(hdma);
 568:Drivers/STM32F2xx_HAL_Driver/Src/stm32f2xx_hal_dma.c ****     
 569:Drivers/STM32F2xx_HAL_Driver/Src/stm32f2xx_hal_dma.c ****     /* Change the DMA state*/
 570:Drivers/STM32F2xx_HAL_Driver/Src/stm32f2xx_hal_dma.c ****     hdma->State = HAL_DMA_STATE_READY;
 571:Drivers/STM32F2xx_HAL_Driver/Src/stm32f2xx_hal_dma.c ****   }
 572:Drivers/STM32F2xx_HAL_Driver/Src/stm32f2xx_hal_dma.c ****   return HAL_OK;
 573:Drivers/STM32F2xx_HAL_Driver/Src/stm32f2xx_hal_dma.c **** }
 574:Drivers/STM32F2xx_HAL_Driver/Src/stm32f2xx_hal_dma.c **** 
 575:Drivers/STM32F2xx_HAL_Driver/Src/stm32f2xx_hal_dma.c **** /**
 576:Drivers/STM32F2xx_HAL_Driver/Src/stm32f2xx_hal_dma.c ****   * @brief  Aborts the DMA Transfer in Interrupt mode.
 577:Drivers/STM32F2xx_HAL_Driver/Src/stm32f2xx_hal_dma.c ****   * @param  hdma pointer to a DMA_HandleTypeDef structure that contains
 578:Drivers/STM32F2xx_HAL_Driver/Src/stm32f2xx_hal_dma.c ****   *                 the configuration information for the specified DMA Stream.
 579:Drivers/STM32F2xx_HAL_Driver/Src/stm32f2xx_hal_dma.c ****   * @retval HAL status
 580:Drivers/STM32F2xx_HAL_Driver/Src/stm32f2xx_hal_dma.c ****   */
 581:Drivers/STM32F2xx_HAL_Driver/Src/stm32f2xx_hal_dma.c **** HAL_StatusTypeDef HAL_DMA_Abort_IT(DMA_HandleTypeDef *hdma)
 582:Drivers/STM32F2xx_HAL_Driver/Src/stm32f2xx_hal_dma.c **** {
 583:Drivers/STM32F2xx_HAL_Driver/Src/stm32f2xx_hal_dma.c ****   if(hdma->State != HAL_DMA_STATE_BUSY)
 584:Drivers/STM32F2xx_HAL_Driver/Src/stm32f2xx_hal_dma.c ****   {
 585:Drivers/STM32F2xx_HAL_Driver/Src/stm32f2xx_hal_dma.c ****     hdma->ErrorCode = HAL_DMA_ERROR_NO_XFER;
 586:Drivers/STM32F2xx_HAL_Driver/Src/stm32f2xx_hal_dma.c ****     return HAL_ERROR;
 587:Drivers/STM32F2xx_HAL_Driver/Src/stm32f2xx_hal_dma.c ****   }
 588:Drivers/STM32F2xx_HAL_Driver/Src/stm32f2xx_hal_dma.c ****   else
 589:Drivers/STM32F2xx_HAL_Driver/Src/stm32f2xx_hal_dma.c ****   {
 590:Drivers/STM32F2xx_HAL_Driver/Src/stm32f2xx_hal_dma.c ****     /* Set Abort State  */
 591:Drivers/STM32F2xx_HAL_Driver/Src/stm32f2xx_hal_dma.c ****     hdma->State = HAL_DMA_STATE_ABORT;
 592:Drivers/STM32F2xx_HAL_Driver/Src/stm32f2xx_hal_dma.c ****     
 593:Drivers/STM32F2xx_HAL_Driver/Src/stm32f2xx_hal_dma.c ****     /* Disable the stream */
 594:Drivers/STM32F2xx_HAL_Driver/Src/stm32f2xx_hal_dma.c ****     __HAL_DMA_DISABLE(hdma);
 595:Drivers/STM32F2xx_HAL_Driver/Src/stm32f2xx_hal_dma.c ****   }
 596:Drivers/STM32F2xx_HAL_Driver/Src/stm32f2xx_hal_dma.c **** 
 597:Drivers/STM32F2xx_HAL_Driver/Src/stm32f2xx_hal_dma.c ****   return HAL_OK;
 598:Drivers/STM32F2xx_HAL_Driver/Src/stm32f2xx_hal_dma.c **** }
 599:Drivers/STM32F2xx_HAL_Driver/Src/stm32f2xx_hal_dma.c **** 
 600:Drivers/STM32F2xx_HAL_Driver/Src/stm32f2xx_hal_dma.c **** /**
 601:Drivers/STM32F2xx_HAL_Driver/Src/stm32f2xx_hal_dma.c ****   * @brief  Polling for transfer complete.
 602:Drivers/STM32F2xx_HAL_Driver/Src/stm32f2xx_hal_dma.c ****   * @param  hdma          pointer to a DMA_HandleTypeDef structure that contains
ARM GAS  C:\Users\User\AppData\Local\Temp\cc2bsKoj.s 			page 12


 603:Drivers/STM32F2xx_HAL_Driver/Src/stm32f2xx_hal_dma.c ****   *                        the configuration information for the specified DMA Stream.
 604:Drivers/STM32F2xx_HAL_Driver/Src/stm32f2xx_hal_dma.c ****   * @param  CompleteLevel Specifies the DMA level complete.
 605:Drivers/STM32F2xx_HAL_Driver/Src/stm32f2xx_hal_dma.c ****   * @note   The polling mode is kept in this version for legacy. it is recommanded to use the IT mo
 606:Drivers/STM32F2xx_HAL_Driver/Src/stm32f2xx_hal_dma.c ****   *         This model could be used for debug purpose.
 607:Drivers/STM32F2xx_HAL_Driver/Src/stm32f2xx_hal_dma.c ****   * @note   The HAL_DMA_PollForTransfer API cannot be used in circular and double buffering mode (a
 608:Drivers/STM32F2xx_HAL_Driver/Src/stm32f2xx_hal_dma.c ****   * @param  Timeout       Timeout duration.
 609:Drivers/STM32F2xx_HAL_Driver/Src/stm32f2xx_hal_dma.c ****   * @retval HAL status
 610:Drivers/STM32F2xx_HAL_Driver/Src/stm32f2xx_hal_dma.c ****   */
 611:Drivers/STM32F2xx_HAL_Driver/Src/stm32f2xx_hal_dma.c **** HAL_StatusTypeDef HAL_DMA_PollForTransfer(DMA_HandleTypeDef *hdma, HAL_DMA_LevelCompleteTypeDef Com
 612:Drivers/STM32F2xx_HAL_Driver/Src/stm32f2xx_hal_dma.c **** {
 613:Drivers/STM32F2xx_HAL_Driver/Src/stm32f2xx_hal_dma.c ****   HAL_StatusTypeDef status = HAL_OK; 
 614:Drivers/STM32F2xx_HAL_Driver/Src/stm32f2xx_hal_dma.c ****   uint32_t mask_cpltlevel;
 615:Drivers/STM32F2xx_HAL_Driver/Src/stm32f2xx_hal_dma.c ****   uint32_t tickstart = HAL_GetTick(); 
 616:Drivers/STM32F2xx_HAL_Driver/Src/stm32f2xx_hal_dma.c ****   uint32_t tmpisr;
 617:Drivers/STM32F2xx_HAL_Driver/Src/stm32f2xx_hal_dma.c ****   
 618:Drivers/STM32F2xx_HAL_Driver/Src/stm32f2xx_hal_dma.c ****   /* calculate DMA base and stream number */
 619:Drivers/STM32F2xx_HAL_Driver/Src/stm32f2xx_hal_dma.c ****   DMA_Base_Registers *regs;
 620:Drivers/STM32F2xx_HAL_Driver/Src/stm32f2xx_hal_dma.c **** 
 621:Drivers/STM32F2xx_HAL_Driver/Src/stm32f2xx_hal_dma.c ****   if(HAL_DMA_STATE_BUSY != hdma->State)
 622:Drivers/STM32F2xx_HAL_Driver/Src/stm32f2xx_hal_dma.c ****   {
 623:Drivers/STM32F2xx_HAL_Driver/Src/stm32f2xx_hal_dma.c ****     /* No transfer ongoing */
 624:Drivers/STM32F2xx_HAL_Driver/Src/stm32f2xx_hal_dma.c ****     hdma->ErrorCode = HAL_DMA_ERROR_NO_XFER;
 625:Drivers/STM32F2xx_HAL_Driver/Src/stm32f2xx_hal_dma.c ****     __HAL_UNLOCK(hdma);
 626:Drivers/STM32F2xx_HAL_Driver/Src/stm32f2xx_hal_dma.c ****     return HAL_ERROR;
 627:Drivers/STM32F2xx_HAL_Driver/Src/stm32f2xx_hal_dma.c ****   }
 628:Drivers/STM32F2xx_HAL_Driver/Src/stm32f2xx_hal_dma.c **** 
 629:Drivers/STM32F2xx_HAL_Driver/Src/stm32f2xx_hal_dma.c ****   /* Polling mode not supported in circular mode and double buffering mode */
 630:Drivers/STM32F2xx_HAL_Driver/Src/stm32f2xx_hal_dma.c ****   if ((hdma->Instance->CR & DMA_SxCR_CIRC) != RESET)
 631:Drivers/STM32F2xx_HAL_Driver/Src/stm32f2xx_hal_dma.c ****   {
 632:Drivers/STM32F2xx_HAL_Driver/Src/stm32f2xx_hal_dma.c ****     hdma->ErrorCode = HAL_DMA_ERROR_NOT_SUPPORTED;
 633:Drivers/STM32F2xx_HAL_Driver/Src/stm32f2xx_hal_dma.c ****     return HAL_ERROR;
 634:Drivers/STM32F2xx_HAL_Driver/Src/stm32f2xx_hal_dma.c ****   }
 635:Drivers/STM32F2xx_HAL_Driver/Src/stm32f2xx_hal_dma.c ****   
 636:Drivers/STM32F2xx_HAL_Driver/Src/stm32f2xx_hal_dma.c ****   /* Get the level transfer complete flag */
 637:Drivers/STM32F2xx_HAL_Driver/Src/stm32f2xx_hal_dma.c ****   if(CompleteLevel == HAL_DMA_FULL_TRANSFER)
 638:Drivers/STM32F2xx_HAL_Driver/Src/stm32f2xx_hal_dma.c ****   {
 639:Drivers/STM32F2xx_HAL_Driver/Src/stm32f2xx_hal_dma.c ****     /* Transfer Complete flag */
 640:Drivers/STM32F2xx_HAL_Driver/Src/stm32f2xx_hal_dma.c ****     mask_cpltlevel = DMA_FLAG_TCIF0_4 << hdma->StreamIndex;
 641:Drivers/STM32F2xx_HAL_Driver/Src/stm32f2xx_hal_dma.c ****   }
 642:Drivers/STM32F2xx_HAL_Driver/Src/stm32f2xx_hal_dma.c ****   else
 643:Drivers/STM32F2xx_HAL_Driver/Src/stm32f2xx_hal_dma.c ****   {
 644:Drivers/STM32F2xx_HAL_Driver/Src/stm32f2xx_hal_dma.c ****     /* Half Transfer Complete flag */
 645:Drivers/STM32F2xx_HAL_Driver/Src/stm32f2xx_hal_dma.c ****     mask_cpltlevel = DMA_FLAG_HTIF0_4 << hdma->StreamIndex;
 646:Drivers/STM32F2xx_HAL_Driver/Src/stm32f2xx_hal_dma.c ****   }
 647:Drivers/STM32F2xx_HAL_Driver/Src/stm32f2xx_hal_dma.c ****   
 648:Drivers/STM32F2xx_HAL_Driver/Src/stm32f2xx_hal_dma.c ****   regs = (DMA_Base_Registers *)hdma->StreamBaseAddress;
 649:Drivers/STM32F2xx_HAL_Driver/Src/stm32f2xx_hal_dma.c ****   tmpisr = regs->ISR;
 650:Drivers/STM32F2xx_HAL_Driver/Src/stm32f2xx_hal_dma.c ****   
 651:Drivers/STM32F2xx_HAL_Driver/Src/stm32f2xx_hal_dma.c ****   while(((tmpisr & mask_cpltlevel) == RESET) && ((hdma->ErrorCode & HAL_DMA_ERROR_TE) == RESET))
 652:Drivers/STM32F2xx_HAL_Driver/Src/stm32f2xx_hal_dma.c ****   {
 653:Drivers/STM32F2xx_HAL_Driver/Src/stm32f2xx_hal_dma.c ****     /* Check for the Timeout (Not applicable in circular mode)*/
 654:Drivers/STM32F2xx_HAL_Driver/Src/stm32f2xx_hal_dma.c ****     if(Timeout != HAL_MAX_DELAY)
 655:Drivers/STM32F2xx_HAL_Driver/Src/stm32f2xx_hal_dma.c ****     {
 656:Drivers/STM32F2xx_HAL_Driver/Src/stm32f2xx_hal_dma.c ****       if((Timeout == 0U)||((HAL_GetTick() - tickstart ) > Timeout))
 657:Drivers/STM32F2xx_HAL_Driver/Src/stm32f2xx_hal_dma.c ****       {
 658:Drivers/STM32F2xx_HAL_Driver/Src/stm32f2xx_hal_dma.c ****         /* Update error code */
 659:Drivers/STM32F2xx_HAL_Driver/Src/stm32f2xx_hal_dma.c ****         hdma->ErrorCode = HAL_DMA_ERROR_TIMEOUT;
ARM GAS  C:\Users\User\AppData\Local\Temp\cc2bsKoj.s 			page 13


 660:Drivers/STM32F2xx_HAL_Driver/Src/stm32f2xx_hal_dma.c **** 
 661:Drivers/STM32F2xx_HAL_Driver/Src/stm32f2xx_hal_dma.c ****         /* Process Unlocked */
 662:Drivers/STM32F2xx_HAL_Driver/Src/stm32f2xx_hal_dma.c ****         __HAL_UNLOCK(hdma);
 663:Drivers/STM32F2xx_HAL_Driver/Src/stm32f2xx_hal_dma.c ****         
 664:Drivers/STM32F2xx_HAL_Driver/Src/stm32f2xx_hal_dma.c ****         /* Change the DMA state */
 665:Drivers/STM32F2xx_HAL_Driver/Src/stm32f2xx_hal_dma.c ****         hdma->State = HAL_DMA_STATE_READY;
 666:Drivers/STM32F2xx_HAL_Driver/Src/stm32f2xx_hal_dma.c ****         
 667:Drivers/STM32F2xx_HAL_Driver/Src/stm32f2xx_hal_dma.c ****         return HAL_TIMEOUT;
 668:Drivers/STM32F2xx_HAL_Driver/Src/stm32f2xx_hal_dma.c ****       }
 669:Drivers/STM32F2xx_HAL_Driver/Src/stm32f2xx_hal_dma.c ****     }
 670:Drivers/STM32F2xx_HAL_Driver/Src/stm32f2xx_hal_dma.c **** 
 671:Drivers/STM32F2xx_HAL_Driver/Src/stm32f2xx_hal_dma.c ****     /* Get the ISR register value */
 672:Drivers/STM32F2xx_HAL_Driver/Src/stm32f2xx_hal_dma.c ****     tmpisr = regs->ISR;
 673:Drivers/STM32F2xx_HAL_Driver/Src/stm32f2xx_hal_dma.c **** 
 674:Drivers/STM32F2xx_HAL_Driver/Src/stm32f2xx_hal_dma.c ****     if((tmpisr & (DMA_FLAG_TEIF0_4 << hdma->StreamIndex)) != RESET)
 675:Drivers/STM32F2xx_HAL_Driver/Src/stm32f2xx_hal_dma.c ****     {
 676:Drivers/STM32F2xx_HAL_Driver/Src/stm32f2xx_hal_dma.c ****       /* Update error code */
 677:Drivers/STM32F2xx_HAL_Driver/Src/stm32f2xx_hal_dma.c ****       hdma->ErrorCode |= HAL_DMA_ERROR_TE;
 678:Drivers/STM32F2xx_HAL_Driver/Src/stm32f2xx_hal_dma.c ****       
 679:Drivers/STM32F2xx_HAL_Driver/Src/stm32f2xx_hal_dma.c ****       /* Clear the transfer error flag */
 680:Drivers/STM32F2xx_HAL_Driver/Src/stm32f2xx_hal_dma.c ****       regs->IFCR = DMA_FLAG_TEIF0_4 << hdma->StreamIndex;
 681:Drivers/STM32F2xx_HAL_Driver/Src/stm32f2xx_hal_dma.c ****     }
 682:Drivers/STM32F2xx_HAL_Driver/Src/stm32f2xx_hal_dma.c ****     
 683:Drivers/STM32F2xx_HAL_Driver/Src/stm32f2xx_hal_dma.c ****     if((tmpisr & (DMA_FLAG_FEIF0_4 << hdma->StreamIndex)) != RESET)
 684:Drivers/STM32F2xx_HAL_Driver/Src/stm32f2xx_hal_dma.c ****     {
 685:Drivers/STM32F2xx_HAL_Driver/Src/stm32f2xx_hal_dma.c ****       /* Update error code */
 686:Drivers/STM32F2xx_HAL_Driver/Src/stm32f2xx_hal_dma.c ****       hdma->ErrorCode |= HAL_DMA_ERROR_FE;
 687:Drivers/STM32F2xx_HAL_Driver/Src/stm32f2xx_hal_dma.c ****       
 688:Drivers/STM32F2xx_HAL_Driver/Src/stm32f2xx_hal_dma.c ****       /* Clear the FIFO error flag */
 689:Drivers/STM32F2xx_HAL_Driver/Src/stm32f2xx_hal_dma.c ****       regs->IFCR = DMA_FLAG_FEIF0_4 << hdma->StreamIndex;
 690:Drivers/STM32F2xx_HAL_Driver/Src/stm32f2xx_hal_dma.c ****     }
 691:Drivers/STM32F2xx_HAL_Driver/Src/stm32f2xx_hal_dma.c ****     
 692:Drivers/STM32F2xx_HAL_Driver/Src/stm32f2xx_hal_dma.c ****     if((tmpisr & (DMA_FLAG_DMEIF0_4 << hdma->StreamIndex)) != RESET)
 693:Drivers/STM32F2xx_HAL_Driver/Src/stm32f2xx_hal_dma.c ****     {
 694:Drivers/STM32F2xx_HAL_Driver/Src/stm32f2xx_hal_dma.c ****       /* Update error code */
 695:Drivers/STM32F2xx_HAL_Driver/Src/stm32f2xx_hal_dma.c ****       hdma->ErrorCode |= HAL_DMA_ERROR_DME;
 696:Drivers/STM32F2xx_HAL_Driver/Src/stm32f2xx_hal_dma.c ****       
 697:Drivers/STM32F2xx_HAL_Driver/Src/stm32f2xx_hal_dma.c ****       /* Clear the Direct Mode error flag */
 698:Drivers/STM32F2xx_HAL_Driver/Src/stm32f2xx_hal_dma.c ****       regs->IFCR = DMA_FLAG_DMEIF0_4 << hdma->StreamIndex;
 699:Drivers/STM32F2xx_HAL_Driver/Src/stm32f2xx_hal_dma.c ****     }
 700:Drivers/STM32F2xx_HAL_Driver/Src/stm32f2xx_hal_dma.c ****   }
 701:Drivers/STM32F2xx_HAL_Driver/Src/stm32f2xx_hal_dma.c ****   
 702:Drivers/STM32F2xx_HAL_Driver/Src/stm32f2xx_hal_dma.c ****   if(hdma->ErrorCode != HAL_DMA_ERROR_NONE)
 703:Drivers/STM32F2xx_HAL_Driver/Src/stm32f2xx_hal_dma.c ****   {
 704:Drivers/STM32F2xx_HAL_Driver/Src/stm32f2xx_hal_dma.c ****     if((hdma->ErrorCode & HAL_DMA_ERROR_TE) != RESET)
 705:Drivers/STM32F2xx_HAL_Driver/Src/stm32f2xx_hal_dma.c ****     {
 706:Drivers/STM32F2xx_HAL_Driver/Src/stm32f2xx_hal_dma.c ****       HAL_DMA_Abort(hdma);
 707:Drivers/STM32F2xx_HAL_Driver/Src/stm32f2xx_hal_dma.c ****     
 708:Drivers/STM32F2xx_HAL_Driver/Src/stm32f2xx_hal_dma.c ****       /* Clear the half transfer and transfer complete flags */
 709:Drivers/STM32F2xx_HAL_Driver/Src/stm32f2xx_hal_dma.c ****       regs->IFCR = (DMA_FLAG_HTIF0_4 | DMA_FLAG_TCIF0_4) << hdma->StreamIndex;
 710:Drivers/STM32F2xx_HAL_Driver/Src/stm32f2xx_hal_dma.c ****     
 711:Drivers/STM32F2xx_HAL_Driver/Src/stm32f2xx_hal_dma.c ****       /* Process Unlocked */
 712:Drivers/STM32F2xx_HAL_Driver/Src/stm32f2xx_hal_dma.c ****       __HAL_UNLOCK(hdma);
 713:Drivers/STM32F2xx_HAL_Driver/Src/stm32f2xx_hal_dma.c **** 
 714:Drivers/STM32F2xx_HAL_Driver/Src/stm32f2xx_hal_dma.c ****       /* Change the DMA state */
 715:Drivers/STM32F2xx_HAL_Driver/Src/stm32f2xx_hal_dma.c ****       hdma->State= HAL_DMA_STATE_READY;
 716:Drivers/STM32F2xx_HAL_Driver/Src/stm32f2xx_hal_dma.c **** 
ARM GAS  C:\Users\User\AppData\Local\Temp\cc2bsKoj.s 			page 14


 717:Drivers/STM32F2xx_HAL_Driver/Src/stm32f2xx_hal_dma.c ****       return HAL_ERROR;
 718:Drivers/STM32F2xx_HAL_Driver/Src/stm32f2xx_hal_dma.c ****    }
 719:Drivers/STM32F2xx_HAL_Driver/Src/stm32f2xx_hal_dma.c ****   }
 720:Drivers/STM32F2xx_HAL_Driver/Src/stm32f2xx_hal_dma.c ****   
 721:Drivers/STM32F2xx_HAL_Driver/Src/stm32f2xx_hal_dma.c ****   /* Get the level transfer complete flag */
 722:Drivers/STM32F2xx_HAL_Driver/Src/stm32f2xx_hal_dma.c ****   if(CompleteLevel == HAL_DMA_FULL_TRANSFER)
 723:Drivers/STM32F2xx_HAL_Driver/Src/stm32f2xx_hal_dma.c ****   {
 724:Drivers/STM32F2xx_HAL_Driver/Src/stm32f2xx_hal_dma.c ****     /* Clear the half transfer and transfer complete flags */
 725:Drivers/STM32F2xx_HAL_Driver/Src/stm32f2xx_hal_dma.c ****     regs->IFCR = (DMA_FLAG_HTIF0_4 | DMA_FLAG_TCIF0_4) << hdma->StreamIndex;
 726:Drivers/STM32F2xx_HAL_Driver/Src/stm32f2xx_hal_dma.c ****     
 727:Drivers/STM32F2xx_HAL_Driver/Src/stm32f2xx_hal_dma.c ****     /* Process Unlocked */
 728:Drivers/STM32F2xx_HAL_Driver/Src/stm32f2xx_hal_dma.c ****     __HAL_UNLOCK(hdma);
 729:Drivers/STM32F2xx_HAL_Driver/Src/stm32f2xx_hal_dma.c **** 
 730:Drivers/STM32F2xx_HAL_Driver/Src/stm32f2xx_hal_dma.c ****     hdma->State = HAL_DMA_STATE_READY;
 731:Drivers/STM32F2xx_HAL_Driver/Src/stm32f2xx_hal_dma.c ****   }
 732:Drivers/STM32F2xx_HAL_Driver/Src/stm32f2xx_hal_dma.c ****   else
 733:Drivers/STM32F2xx_HAL_Driver/Src/stm32f2xx_hal_dma.c ****   {
 734:Drivers/STM32F2xx_HAL_Driver/Src/stm32f2xx_hal_dma.c ****     /* Clear the half transfer and transfer complete flags */
 735:Drivers/STM32F2xx_HAL_Driver/Src/stm32f2xx_hal_dma.c ****     regs->IFCR = (DMA_FLAG_HTIF0_4) << hdma->StreamIndex;
 736:Drivers/STM32F2xx_HAL_Driver/Src/stm32f2xx_hal_dma.c ****   }
 737:Drivers/STM32F2xx_HAL_Driver/Src/stm32f2xx_hal_dma.c ****   
 738:Drivers/STM32F2xx_HAL_Driver/Src/stm32f2xx_hal_dma.c ****   return status;
 739:Drivers/STM32F2xx_HAL_Driver/Src/stm32f2xx_hal_dma.c **** }
 740:Drivers/STM32F2xx_HAL_Driver/Src/stm32f2xx_hal_dma.c **** 
 741:Drivers/STM32F2xx_HAL_Driver/Src/stm32f2xx_hal_dma.c **** /**
 742:Drivers/STM32F2xx_HAL_Driver/Src/stm32f2xx_hal_dma.c ****   * @brief  Handles DMA interrupt request.
 743:Drivers/STM32F2xx_HAL_Driver/Src/stm32f2xx_hal_dma.c ****   * @param  hdma pointer to a DMA_HandleTypeDef structure that contains
 744:Drivers/STM32F2xx_HAL_Driver/Src/stm32f2xx_hal_dma.c ****   *               the configuration information for the specified DMA Stream.  
 745:Drivers/STM32F2xx_HAL_Driver/Src/stm32f2xx_hal_dma.c ****   * @retval None
 746:Drivers/STM32F2xx_HAL_Driver/Src/stm32f2xx_hal_dma.c ****   */
 747:Drivers/STM32F2xx_HAL_Driver/Src/stm32f2xx_hal_dma.c **** void HAL_DMA_IRQHandler(DMA_HandleTypeDef *hdma)
 748:Drivers/STM32F2xx_HAL_Driver/Src/stm32f2xx_hal_dma.c **** {
 749:Drivers/STM32F2xx_HAL_Driver/Src/stm32f2xx_hal_dma.c ****   uint32_t tmpisr;
 750:Drivers/STM32F2xx_HAL_Driver/Src/stm32f2xx_hal_dma.c ****   __IO uint32_t count = 0U;
 751:Drivers/STM32F2xx_HAL_Driver/Src/stm32f2xx_hal_dma.c ****   uint32_t timeout = SystemCoreClock / 9600U;
 752:Drivers/STM32F2xx_HAL_Driver/Src/stm32f2xx_hal_dma.c **** 
 753:Drivers/STM32F2xx_HAL_Driver/Src/stm32f2xx_hal_dma.c ****   /* calculate DMA base and stream number */
 754:Drivers/STM32F2xx_HAL_Driver/Src/stm32f2xx_hal_dma.c ****   DMA_Base_Registers *regs = (DMA_Base_Registers *)hdma->StreamBaseAddress;
 755:Drivers/STM32F2xx_HAL_Driver/Src/stm32f2xx_hal_dma.c **** 
 756:Drivers/STM32F2xx_HAL_Driver/Src/stm32f2xx_hal_dma.c ****   tmpisr = regs->ISR;
 757:Drivers/STM32F2xx_HAL_Driver/Src/stm32f2xx_hal_dma.c **** 
 758:Drivers/STM32F2xx_HAL_Driver/Src/stm32f2xx_hal_dma.c ****   /* Transfer Error Interrupt management ***************************************/
 759:Drivers/STM32F2xx_HAL_Driver/Src/stm32f2xx_hal_dma.c ****   if ((tmpisr & (DMA_FLAG_TEIF0_4 << hdma->StreamIndex)) != RESET)
 760:Drivers/STM32F2xx_HAL_Driver/Src/stm32f2xx_hal_dma.c ****   {
 761:Drivers/STM32F2xx_HAL_Driver/Src/stm32f2xx_hal_dma.c ****     if(__HAL_DMA_GET_IT_SOURCE(hdma, DMA_IT_TE) != RESET)
 762:Drivers/STM32F2xx_HAL_Driver/Src/stm32f2xx_hal_dma.c ****     {
 763:Drivers/STM32F2xx_HAL_Driver/Src/stm32f2xx_hal_dma.c ****       /* Disable the transfer error interrupt */
 764:Drivers/STM32F2xx_HAL_Driver/Src/stm32f2xx_hal_dma.c ****       hdma->Instance->CR  &= ~(DMA_IT_TE);
 765:Drivers/STM32F2xx_HAL_Driver/Src/stm32f2xx_hal_dma.c ****       
 766:Drivers/STM32F2xx_HAL_Driver/Src/stm32f2xx_hal_dma.c ****       /* Clear the transfer error flag */
 767:Drivers/STM32F2xx_HAL_Driver/Src/stm32f2xx_hal_dma.c ****       regs->IFCR = DMA_FLAG_TEIF0_4 << hdma->StreamIndex;
 768:Drivers/STM32F2xx_HAL_Driver/Src/stm32f2xx_hal_dma.c ****       
 769:Drivers/STM32F2xx_HAL_Driver/Src/stm32f2xx_hal_dma.c ****       /* Update error code */
 770:Drivers/STM32F2xx_HAL_Driver/Src/stm32f2xx_hal_dma.c ****       hdma->ErrorCode |= HAL_DMA_ERROR_TE;
 771:Drivers/STM32F2xx_HAL_Driver/Src/stm32f2xx_hal_dma.c ****     }
 772:Drivers/STM32F2xx_HAL_Driver/Src/stm32f2xx_hal_dma.c ****   }
 773:Drivers/STM32F2xx_HAL_Driver/Src/stm32f2xx_hal_dma.c ****   /* FIFO Error Interrupt management ******************************************/
ARM GAS  C:\Users\User\AppData\Local\Temp\cc2bsKoj.s 			page 15


 774:Drivers/STM32F2xx_HAL_Driver/Src/stm32f2xx_hal_dma.c ****   if ((tmpisr & (DMA_FLAG_FEIF0_4 << hdma->StreamIndex)) != RESET)
 775:Drivers/STM32F2xx_HAL_Driver/Src/stm32f2xx_hal_dma.c ****   {
 776:Drivers/STM32F2xx_HAL_Driver/Src/stm32f2xx_hal_dma.c ****     if(__HAL_DMA_GET_IT_SOURCE(hdma, DMA_IT_FE) != RESET)
 777:Drivers/STM32F2xx_HAL_Driver/Src/stm32f2xx_hal_dma.c ****     {
 778:Drivers/STM32F2xx_HAL_Driver/Src/stm32f2xx_hal_dma.c ****       /* Clear the FIFO error flag */
 779:Drivers/STM32F2xx_HAL_Driver/Src/stm32f2xx_hal_dma.c ****       regs->IFCR = DMA_FLAG_FEIF0_4 << hdma->StreamIndex;
 780:Drivers/STM32F2xx_HAL_Driver/Src/stm32f2xx_hal_dma.c **** 
 781:Drivers/STM32F2xx_HAL_Driver/Src/stm32f2xx_hal_dma.c ****       /* Update error code */
 782:Drivers/STM32F2xx_HAL_Driver/Src/stm32f2xx_hal_dma.c ****       hdma->ErrorCode |= HAL_DMA_ERROR_FE;
 783:Drivers/STM32F2xx_HAL_Driver/Src/stm32f2xx_hal_dma.c ****     }
 784:Drivers/STM32F2xx_HAL_Driver/Src/stm32f2xx_hal_dma.c ****   }
 785:Drivers/STM32F2xx_HAL_Driver/Src/stm32f2xx_hal_dma.c ****   /* Direct Mode Error Interrupt management ***********************************/
 786:Drivers/STM32F2xx_HAL_Driver/Src/stm32f2xx_hal_dma.c ****   if ((tmpisr & (DMA_FLAG_DMEIF0_4 << hdma->StreamIndex)) != RESET)
 787:Drivers/STM32F2xx_HAL_Driver/Src/stm32f2xx_hal_dma.c ****   {
 788:Drivers/STM32F2xx_HAL_Driver/Src/stm32f2xx_hal_dma.c ****     if(__HAL_DMA_GET_IT_SOURCE(hdma, DMA_IT_DME) != RESET)
 789:Drivers/STM32F2xx_HAL_Driver/Src/stm32f2xx_hal_dma.c ****     {
 790:Drivers/STM32F2xx_HAL_Driver/Src/stm32f2xx_hal_dma.c ****       /* Clear the direct mode error flag */
 791:Drivers/STM32F2xx_HAL_Driver/Src/stm32f2xx_hal_dma.c ****       regs->IFCR = DMA_FLAG_DMEIF0_4 << hdma->StreamIndex;
 792:Drivers/STM32F2xx_HAL_Driver/Src/stm32f2xx_hal_dma.c **** 
 793:Drivers/STM32F2xx_HAL_Driver/Src/stm32f2xx_hal_dma.c ****       /* Update error code */
 794:Drivers/STM32F2xx_HAL_Driver/Src/stm32f2xx_hal_dma.c ****       hdma->ErrorCode |= HAL_DMA_ERROR_DME;
 795:Drivers/STM32F2xx_HAL_Driver/Src/stm32f2xx_hal_dma.c ****     }
 796:Drivers/STM32F2xx_HAL_Driver/Src/stm32f2xx_hal_dma.c ****   }
 797:Drivers/STM32F2xx_HAL_Driver/Src/stm32f2xx_hal_dma.c ****   /* Half Transfer Complete Interrupt management ******************************/
 798:Drivers/STM32F2xx_HAL_Driver/Src/stm32f2xx_hal_dma.c ****   if ((tmpisr & (DMA_FLAG_HTIF0_4 << hdma->StreamIndex)) != RESET)
 799:Drivers/STM32F2xx_HAL_Driver/Src/stm32f2xx_hal_dma.c ****   {
 800:Drivers/STM32F2xx_HAL_Driver/Src/stm32f2xx_hal_dma.c ****     if(__HAL_DMA_GET_IT_SOURCE(hdma, DMA_IT_HT) != RESET)
 801:Drivers/STM32F2xx_HAL_Driver/Src/stm32f2xx_hal_dma.c ****     {
 802:Drivers/STM32F2xx_HAL_Driver/Src/stm32f2xx_hal_dma.c ****       /* Clear the half transfer complete flag */
 803:Drivers/STM32F2xx_HAL_Driver/Src/stm32f2xx_hal_dma.c ****       regs->IFCR = DMA_FLAG_HTIF0_4 << hdma->StreamIndex;
 804:Drivers/STM32F2xx_HAL_Driver/Src/stm32f2xx_hal_dma.c ****       
 805:Drivers/STM32F2xx_HAL_Driver/Src/stm32f2xx_hal_dma.c ****       /* Multi_Buffering mode enabled */
 806:Drivers/STM32F2xx_HAL_Driver/Src/stm32f2xx_hal_dma.c ****       if(((hdma->Instance->CR) & (uint32_t)(DMA_SxCR_DBM)) != RESET)
 807:Drivers/STM32F2xx_HAL_Driver/Src/stm32f2xx_hal_dma.c ****       {
 808:Drivers/STM32F2xx_HAL_Driver/Src/stm32f2xx_hal_dma.c ****         /* Current memory buffer used is Memory 0 */
 809:Drivers/STM32F2xx_HAL_Driver/Src/stm32f2xx_hal_dma.c ****         if((hdma->Instance->CR & DMA_SxCR_CT) == RESET)
 810:Drivers/STM32F2xx_HAL_Driver/Src/stm32f2xx_hal_dma.c ****         {
 811:Drivers/STM32F2xx_HAL_Driver/Src/stm32f2xx_hal_dma.c ****           if(hdma->XferHalfCpltCallback != NULL)
 812:Drivers/STM32F2xx_HAL_Driver/Src/stm32f2xx_hal_dma.c ****           {
 813:Drivers/STM32F2xx_HAL_Driver/Src/stm32f2xx_hal_dma.c ****             /* Half transfer callback */
 814:Drivers/STM32F2xx_HAL_Driver/Src/stm32f2xx_hal_dma.c ****             hdma->XferHalfCpltCallback(hdma);
 815:Drivers/STM32F2xx_HAL_Driver/Src/stm32f2xx_hal_dma.c ****           }
 816:Drivers/STM32F2xx_HAL_Driver/Src/stm32f2xx_hal_dma.c ****         }
 817:Drivers/STM32F2xx_HAL_Driver/Src/stm32f2xx_hal_dma.c ****         /* Current memory buffer used is Memory 1 */
 818:Drivers/STM32F2xx_HAL_Driver/Src/stm32f2xx_hal_dma.c ****         else
 819:Drivers/STM32F2xx_HAL_Driver/Src/stm32f2xx_hal_dma.c ****         {
 820:Drivers/STM32F2xx_HAL_Driver/Src/stm32f2xx_hal_dma.c ****           if(hdma->XferM1HalfCpltCallback != NULL)
 821:Drivers/STM32F2xx_HAL_Driver/Src/stm32f2xx_hal_dma.c ****           {
 822:Drivers/STM32F2xx_HAL_Driver/Src/stm32f2xx_hal_dma.c ****             /* Half transfer callback */
 823:Drivers/STM32F2xx_HAL_Driver/Src/stm32f2xx_hal_dma.c ****             hdma->XferM1HalfCpltCallback(hdma);
 824:Drivers/STM32F2xx_HAL_Driver/Src/stm32f2xx_hal_dma.c ****           }
 825:Drivers/STM32F2xx_HAL_Driver/Src/stm32f2xx_hal_dma.c ****         }
 826:Drivers/STM32F2xx_HAL_Driver/Src/stm32f2xx_hal_dma.c ****       }
 827:Drivers/STM32F2xx_HAL_Driver/Src/stm32f2xx_hal_dma.c ****       else
 828:Drivers/STM32F2xx_HAL_Driver/Src/stm32f2xx_hal_dma.c ****       {
 829:Drivers/STM32F2xx_HAL_Driver/Src/stm32f2xx_hal_dma.c ****         /* Disable the half transfer interrupt if the DMA mode is not CIRCULAR */
 830:Drivers/STM32F2xx_HAL_Driver/Src/stm32f2xx_hal_dma.c ****         if((hdma->Instance->CR & DMA_SxCR_CIRC) == RESET)
ARM GAS  C:\Users\User\AppData\Local\Temp\cc2bsKoj.s 			page 16


 831:Drivers/STM32F2xx_HAL_Driver/Src/stm32f2xx_hal_dma.c ****         {
 832:Drivers/STM32F2xx_HAL_Driver/Src/stm32f2xx_hal_dma.c ****           /* Disable the half transfer interrupt */
 833:Drivers/STM32F2xx_HAL_Driver/Src/stm32f2xx_hal_dma.c ****           hdma->Instance->CR  &= ~(DMA_IT_HT);
 834:Drivers/STM32F2xx_HAL_Driver/Src/stm32f2xx_hal_dma.c ****         }
 835:Drivers/STM32F2xx_HAL_Driver/Src/stm32f2xx_hal_dma.c ****         
 836:Drivers/STM32F2xx_HAL_Driver/Src/stm32f2xx_hal_dma.c ****         if(hdma->XferHalfCpltCallback != NULL)
 837:Drivers/STM32F2xx_HAL_Driver/Src/stm32f2xx_hal_dma.c ****         {
 838:Drivers/STM32F2xx_HAL_Driver/Src/stm32f2xx_hal_dma.c ****           /* Half transfer callback */
 839:Drivers/STM32F2xx_HAL_Driver/Src/stm32f2xx_hal_dma.c ****           hdma->XferHalfCpltCallback(hdma);
 840:Drivers/STM32F2xx_HAL_Driver/Src/stm32f2xx_hal_dma.c ****         }
 841:Drivers/STM32F2xx_HAL_Driver/Src/stm32f2xx_hal_dma.c ****       }
 842:Drivers/STM32F2xx_HAL_Driver/Src/stm32f2xx_hal_dma.c ****     }
 843:Drivers/STM32F2xx_HAL_Driver/Src/stm32f2xx_hal_dma.c ****   }
 844:Drivers/STM32F2xx_HAL_Driver/Src/stm32f2xx_hal_dma.c ****   /* Transfer Complete Interrupt management ***********************************/
 845:Drivers/STM32F2xx_HAL_Driver/Src/stm32f2xx_hal_dma.c ****   if ((tmpisr & (DMA_FLAG_TCIF0_4 << hdma->StreamIndex)) != RESET)
 846:Drivers/STM32F2xx_HAL_Driver/Src/stm32f2xx_hal_dma.c ****   {
 847:Drivers/STM32F2xx_HAL_Driver/Src/stm32f2xx_hal_dma.c ****     if(__HAL_DMA_GET_IT_SOURCE(hdma, DMA_IT_TC) != RESET)
 848:Drivers/STM32F2xx_HAL_Driver/Src/stm32f2xx_hal_dma.c ****     {
 849:Drivers/STM32F2xx_HAL_Driver/Src/stm32f2xx_hal_dma.c ****       /* Clear the transfer complete flag */
 850:Drivers/STM32F2xx_HAL_Driver/Src/stm32f2xx_hal_dma.c ****       regs->IFCR = DMA_FLAG_TCIF0_4 << hdma->StreamIndex;
 851:Drivers/STM32F2xx_HAL_Driver/Src/stm32f2xx_hal_dma.c ****       
 852:Drivers/STM32F2xx_HAL_Driver/Src/stm32f2xx_hal_dma.c ****       if(HAL_DMA_STATE_ABORT == hdma->State)
 853:Drivers/STM32F2xx_HAL_Driver/Src/stm32f2xx_hal_dma.c ****       {
 854:Drivers/STM32F2xx_HAL_Driver/Src/stm32f2xx_hal_dma.c ****         /* Disable all the transfer interrupts */
 855:Drivers/STM32F2xx_HAL_Driver/Src/stm32f2xx_hal_dma.c ****         hdma->Instance->CR  &= ~(DMA_IT_TC | DMA_IT_TE | DMA_IT_DME);
 856:Drivers/STM32F2xx_HAL_Driver/Src/stm32f2xx_hal_dma.c ****         hdma->Instance->FCR &= ~(DMA_IT_FE);
 857:Drivers/STM32F2xx_HAL_Driver/Src/stm32f2xx_hal_dma.c ****         
 858:Drivers/STM32F2xx_HAL_Driver/Src/stm32f2xx_hal_dma.c ****         if((hdma->XferHalfCpltCallback != NULL) || (hdma->XferM1HalfCpltCallback != NULL))
 859:Drivers/STM32F2xx_HAL_Driver/Src/stm32f2xx_hal_dma.c ****         {
 860:Drivers/STM32F2xx_HAL_Driver/Src/stm32f2xx_hal_dma.c ****           hdma->Instance->CR  &= ~(DMA_IT_HT);
 861:Drivers/STM32F2xx_HAL_Driver/Src/stm32f2xx_hal_dma.c ****         }
 862:Drivers/STM32F2xx_HAL_Driver/Src/stm32f2xx_hal_dma.c **** 
 863:Drivers/STM32F2xx_HAL_Driver/Src/stm32f2xx_hal_dma.c ****         /* Clear all interrupt flags at correct offset within the register */
 864:Drivers/STM32F2xx_HAL_Driver/Src/stm32f2xx_hal_dma.c ****         regs->IFCR = 0x3FU << hdma->StreamIndex;
 865:Drivers/STM32F2xx_HAL_Driver/Src/stm32f2xx_hal_dma.c **** 
 866:Drivers/STM32F2xx_HAL_Driver/Src/stm32f2xx_hal_dma.c ****         /* Process Unlocked */
 867:Drivers/STM32F2xx_HAL_Driver/Src/stm32f2xx_hal_dma.c ****         __HAL_UNLOCK(hdma);
 868:Drivers/STM32F2xx_HAL_Driver/Src/stm32f2xx_hal_dma.c **** 
 869:Drivers/STM32F2xx_HAL_Driver/Src/stm32f2xx_hal_dma.c ****         /* Change the DMA state */
 870:Drivers/STM32F2xx_HAL_Driver/Src/stm32f2xx_hal_dma.c ****         hdma->State = HAL_DMA_STATE_READY;
 871:Drivers/STM32F2xx_HAL_Driver/Src/stm32f2xx_hal_dma.c **** 
 872:Drivers/STM32F2xx_HAL_Driver/Src/stm32f2xx_hal_dma.c ****         if(hdma->XferAbortCallback != NULL)
 873:Drivers/STM32F2xx_HAL_Driver/Src/stm32f2xx_hal_dma.c ****         {
 874:Drivers/STM32F2xx_HAL_Driver/Src/stm32f2xx_hal_dma.c ****           hdma->XferAbortCallback(hdma);
 875:Drivers/STM32F2xx_HAL_Driver/Src/stm32f2xx_hal_dma.c ****         }
 876:Drivers/STM32F2xx_HAL_Driver/Src/stm32f2xx_hal_dma.c ****         return;
 877:Drivers/STM32F2xx_HAL_Driver/Src/stm32f2xx_hal_dma.c ****       }
 878:Drivers/STM32F2xx_HAL_Driver/Src/stm32f2xx_hal_dma.c **** 
 879:Drivers/STM32F2xx_HAL_Driver/Src/stm32f2xx_hal_dma.c ****       if(((hdma->Instance->CR) & (uint32_t)(DMA_SxCR_DBM)) != RESET)
 880:Drivers/STM32F2xx_HAL_Driver/Src/stm32f2xx_hal_dma.c ****       {
 881:Drivers/STM32F2xx_HAL_Driver/Src/stm32f2xx_hal_dma.c ****         /* Current memory buffer used is Memory 0 */
 882:Drivers/STM32F2xx_HAL_Driver/Src/stm32f2xx_hal_dma.c ****         if((hdma->Instance->CR & DMA_SxCR_CT) == RESET)
 883:Drivers/STM32F2xx_HAL_Driver/Src/stm32f2xx_hal_dma.c ****         {
 884:Drivers/STM32F2xx_HAL_Driver/Src/stm32f2xx_hal_dma.c ****           if(hdma->XferM1CpltCallback != NULL)
 885:Drivers/STM32F2xx_HAL_Driver/Src/stm32f2xx_hal_dma.c ****           {
 886:Drivers/STM32F2xx_HAL_Driver/Src/stm32f2xx_hal_dma.c ****             /* Transfer complete Callback for memory1 */
 887:Drivers/STM32F2xx_HAL_Driver/Src/stm32f2xx_hal_dma.c ****             hdma->XferM1CpltCallback(hdma);
ARM GAS  C:\Users\User\AppData\Local\Temp\cc2bsKoj.s 			page 17


 888:Drivers/STM32F2xx_HAL_Driver/Src/stm32f2xx_hal_dma.c ****           }
 889:Drivers/STM32F2xx_HAL_Driver/Src/stm32f2xx_hal_dma.c ****         }
 890:Drivers/STM32F2xx_HAL_Driver/Src/stm32f2xx_hal_dma.c ****         /* Current memory buffer used is Memory 1 */
 891:Drivers/STM32F2xx_HAL_Driver/Src/stm32f2xx_hal_dma.c ****         else
 892:Drivers/STM32F2xx_HAL_Driver/Src/stm32f2xx_hal_dma.c ****         {
 893:Drivers/STM32F2xx_HAL_Driver/Src/stm32f2xx_hal_dma.c ****           if(hdma->XferCpltCallback != NULL)
 894:Drivers/STM32F2xx_HAL_Driver/Src/stm32f2xx_hal_dma.c ****           {
 895:Drivers/STM32F2xx_HAL_Driver/Src/stm32f2xx_hal_dma.c ****             /* Transfer complete Callback for memory0 */
 896:Drivers/STM32F2xx_HAL_Driver/Src/stm32f2xx_hal_dma.c ****             hdma->XferCpltCallback(hdma);
 897:Drivers/STM32F2xx_HAL_Driver/Src/stm32f2xx_hal_dma.c ****           }
 898:Drivers/STM32F2xx_HAL_Driver/Src/stm32f2xx_hal_dma.c ****         }
 899:Drivers/STM32F2xx_HAL_Driver/Src/stm32f2xx_hal_dma.c ****       }
 900:Drivers/STM32F2xx_HAL_Driver/Src/stm32f2xx_hal_dma.c ****       /* Disable the transfer complete interrupt if the DMA mode is not CIRCULAR */
 901:Drivers/STM32F2xx_HAL_Driver/Src/stm32f2xx_hal_dma.c ****       else
 902:Drivers/STM32F2xx_HAL_Driver/Src/stm32f2xx_hal_dma.c ****       {
 903:Drivers/STM32F2xx_HAL_Driver/Src/stm32f2xx_hal_dma.c ****         if((hdma->Instance->CR & DMA_SxCR_CIRC) == RESET)
 904:Drivers/STM32F2xx_HAL_Driver/Src/stm32f2xx_hal_dma.c ****         {
 905:Drivers/STM32F2xx_HAL_Driver/Src/stm32f2xx_hal_dma.c ****           /* Disable the transfer complete interrupt */
 906:Drivers/STM32F2xx_HAL_Driver/Src/stm32f2xx_hal_dma.c ****           hdma->Instance->CR  &= ~(DMA_IT_TC);
 907:Drivers/STM32F2xx_HAL_Driver/Src/stm32f2xx_hal_dma.c **** 
 908:Drivers/STM32F2xx_HAL_Driver/Src/stm32f2xx_hal_dma.c ****           /* Process Unlocked */
 909:Drivers/STM32F2xx_HAL_Driver/Src/stm32f2xx_hal_dma.c ****           __HAL_UNLOCK(hdma);
 910:Drivers/STM32F2xx_HAL_Driver/Src/stm32f2xx_hal_dma.c **** 
 911:Drivers/STM32F2xx_HAL_Driver/Src/stm32f2xx_hal_dma.c ****           /* Change the DMA state */
 912:Drivers/STM32F2xx_HAL_Driver/Src/stm32f2xx_hal_dma.c ****           hdma->State = HAL_DMA_STATE_READY;
 913:Drivers/STM32F2xx_HAL_Driver/Src/stm32f2xx_hal_dma.c ****         }
 914:Drivers/STM32F2xx_HAL_Driver/Src/stm32f2xx_hal_dma.c **** 
 915:Drivers/STM32F2xx_HAL_Driver/Src/stm32f2xx_hal_dma.c ****         if(hdma->XferCpltCallback != NULL)
 916:Drivers/STM32F2xx_HAL_Driver/Src/stm32f2xx_hal_dma.c ****         {
 917:Drivers/STM32F2xx_HAL_Driver/Src/stm32f2xx_hal_dma.c ****           /* Transfer complete callback */
 918:Drivers/STM32F2xx_HAL_Driver/Src/stm32f2xx_hal_dma.c ****           hdma->XferCpltCallback(hdma);
 919:Drivers/STM32F2xx_HAL_Driver/Src/stm32f2xx_hal_dma.c ****         }
 920:Drivers/STM32F2xx_HAL_Driver/Src/stm32f2xx_hal_dma.c ****       }
 921:Drivers/STM32F2xx_HAL_Driver/Src/stm32f2xx_hal_dma.c ****     }
 922:Drivers/STM32F2xx_HAL_Driver/Src/stm32f2xx_hal_dma.c ****   }
 923:Drivers/STM32F2xx_HAL_Driver/Src/stm32f2xx_hal_dma.c ****   
 924:Drivers/STM32F2xx_HAL_Driver/Src/stm32f2xx_hal_dma.c ****   /* manage error case */
 925:Drivers/STM32F2xx_HAL_Driver/Src/stm32f2xx_hal_dma.c ****   if(hdma->ErrorCode != HAL_DMA_ERROR_NONE)
 926:Drivers/STM32F2xx_HAL_Driver/Src/stm32f2xx_hal_dma.c ****   {
 927:Drivers/STM32F2xx_HAL_Driver/Src/stm32f2xx_hal_dma.c ****     if((hdma->ErrorCode & HAL_DMA_ERROR_TE) != RESET)
 928:Drivers/STM32F2xx_HAL_Driver/Src/stm32f2xx_hal_dma.c ****     {
 929:Drivers/STM32F2xx_HAL_Driver/Src/stm32f2xx_hal_dma.c ****       hdma->State = HAL_DMA_STATE_ABORT;
 930:Drivers/STM32F2xx_HAL_Driver/Src/stm32f2xx_hal_dma.c **** 
 931:Drivers/STM32F2xx_HAL_Driver/Src/stm32f2xx_hal_dma.c ****       /* Disable the stream */
 932:Drivers/STM32F2xx_HAL_Driver/Src/stm32f2xx_hal_dma.c ****       __HAL_DMA_DISABLE(hdma);
 933:Drivers/STM32F2xx_HAL_Driver/Src/stm32f2xx_hal_dma.c **** 
 934:Drivers/STM32F2xx_HAL_Driver/Src/stm32f2xx_hal_dma.c ****       do
 935:Drivers/STM32F2xx_HAL_Driver/Src/stm32f2xx_hal_dma.c ****       {
 936:Drivers/STM32F2xx_HAL_Driver/Src/stm32f2xx_hal_dma.c ****         if (++count > timeout)
 937:Drivers/STM32F2xx_HAL_Driver/Src/stm32f2xx_hal_dma.c ****         {
 938:Drivers/STM32F2xx_HAL_Driver/Src/stm32f2xx_hal_dma.c ****           break;
 939:Drivers/STM32F2xx_HAL_Driver/Src/stm32f2xx_hal_dma.c ****         }
 940:Drivers/STM32F2xx_HAL_Driver/Src/stm32f2xx_hal_dma.c ****       }
 941:Drivers/STM32F2xx_HAL_Driver/Src/stm32f2xx_hal_dma.c ****       while((hdma->Instance->CR & DMA_SxCR_EN) != RESET);
 942:Drivers/STM32F2xx_HAL_Driver/Src/stm32f2xx_hal_dma.c **** 
 943:Drivers/STM32F2xx_HAL_Driver/Src/stm32f2xx_hal_dma.c ****       /* Process Unlocked */
 944:Drivers/STM32F2xx_HAL_Driver/Src/stm32f2xx_hal_dma.c ****       __HAL_UNLOCK(hdma);
ARM GAS  C:\Users\User\AppData\Local\Temp\cc2bsKoj.s 			page 18


 945:Drivers/STM32F2xx_HAL_Driver/Src/stm32f2xx_hal_dma.c **** 
 946:Drivers/STM32F2xx_HAL_Driver/Src/stm32f2xx_hal_dma.c ****       /* Change the DMA state */
 947:Drivers/STM32F2xx_HAL_Driver/Src/stm32f2xx_hal_dma.c ****       hdma->State = HAL_DMA_STATE_READY;
 948:Drivers/STM32F2xx_HAL_Driver/Src/stm32f2xx_hal_dma.c ****     }
 949:Drivers/STM32F2xx_HAL_Driver/Src/stm32f2xx_hal_dma.c **** 
 950:Drivers/STM32F2xx_HAL_Driver/Src/stm32f2xx_hal_dma.c ****     if(hdma->XferErrorCallback != NULL)
 951:Drivers/STM32F2xx_HAL_Driver/Src/stm32f2xx_hal_dma.c ****     {
 952:Drivers/STM32F2xx_HAL_Driver/Src/stm32f2xx_hal_dma.c ****       /* Transfer error callback */
 953:Drivers/STM32F2xx_HAL_Driver/Src/stm32f2xx_hal_dma.c ****       hdma->XferErrorCallback(hdma);
 954:Drivers/STM32F2xx_HAL_Driver/Src/stm32f2xx_hal_dma.c ****     }
 955:Drivers/STM32F2xx_HAL_Driver/Src/stm32f2xx_hal_dma.c ****   }
 956:Drivers/STM32F2xx_HAL_Driver/Src/stm32f2xx_hal_dma.c **** }
 957:Drivers/STM32F2xx_HAL_Driver/Src/stm32f2xx_hal_dma.c **** 
 958:Drivers/STM32F2xx_HAL_Driver/Src/stm32f2xx_hal_dma.c **** /**
 959:Drivers/STM32F2xx_HAL_Driver/Src/stm32f2xx_hal_dma.c ****   * @brief  Register callbacks
 960:Drivers/STM32F2xx_HAL_Driver/Src/stm32f2xx_hal_dma.c ****   * @param  hdma                 pointer to a DMA_HandleTypeDef structure that contains
 961:Drivers/STM32F2xx_HAL_Driver/Src/stm32f2xx_hal_dma.c ****   *                               the configuration information for the specified DMA Stream.
 962:Drivers/STM32F2xx_HAL_Driver/Src/stm32f2xx_hal_dma.c ****   * @param  CallbackID           User Callback identifer
 963:Drivers/STM32F2xx_HAL_Driver/Src/stm32f2xx_hal_dma.c ****   *                               a DMA_HandleTypeDef structure as parameter.
 964:Drivers/STM32F2xx_HAL_Driver/Src/stm32f2xx_hal_dma.c ****   * @param  pCallback            pointer to private callbacsk function which has pointer to 
 965:Drivers/STM32F2xx_HAL_Driver/Src/stm32f2xx_hal_dma.c ****   *                               a DMA_HandleTypeDef structure as parameter.
 966:Drivers/STM32F2xx_HAL_Driver/Src/stm32f2xx_hal_dma.c ****   * @retval HAL status
 967:Drivers/STM32F2xx_HAL_Driver/Src/stm32f2xx_hal_dma.c ****   */                      
 968:Drivers/STM32F2xx_HAL_Driver/Src/stm32f2xx_hal_dma.c **** HAL_StatusTypeDef HAL_DMA_RegisterCallback(DMA_HandleTypeDef *hdma, HAL_DMA_CallbackIDTypeDef Callb
 969:Drivers/STM32F2xx_HAL_Driver/Src/stm32f2xx_hal_dma.c **** {
 970:Drivers/STM32F2xx_HAL_Driver/Src/stm32f2xx_hal_dma.c **** 
 971:Drivers/STM32F2xx_HAL_Driver/Src/stm32f2xx_hal_dma.c ****   HAL_StatusTypeDef status = HAL_OK;
 972:Drivers/STM32F2xx_HAL_Driver/Src/stm32f2xx_hal_dma.c **** 
 973:Drivers/STM32F2xx_HAL_Driver/Src/stm32f2xx_hal_dma.c ****   /* Process locked */
 974:Drivers/STM32F2xx_HAL_Driver/Src/stm32f2xx_hal_dma.c ****   __HAL_LOCK(hdma);
 975:Drivers/STM32F2xx_HAL_Driver/Src/stm32f2xx_hal_dma.c **** 
 976:Drivers/STM32F2xx_HAL_Driver/Src/stm32f2xx_hal_dma.c ****   if(HAL_DMA_STATE_READY == hdma->State)
 977:Drivers/STM32F2xx_HAL_Driver/Src/stm32f2xx_hal_dma.c ****   {
 978:Drivers/STM32F2xx_HAL_Driver/Src/stm32f2xx_hal_dma.c ****     switch (CallbackID)
 979:Drivers/STM32F2xx_HAL_Driver/Src/stm32f2xx_hal_dma.c ****     {
 980:Drivers/STM32F2xx_HAL_Driver/Src/stm32f2xx_hal_dma.c ****     case  HAL_DMA_XFER_CPLT_CB_ID:
 981:Drivers/STM32F2xx_HAL_Driver/Src/stm32f2xx_hal_dma.c ****       hdma->XferCpltCallback = pCallback;
 982:Drivers/STM32F2xx_HAL_Driver/Src/stm32f2xx_hal_dma.c ****       break;
 983:Drivers/STM32F2xx_HAL_Driver/Src/stm32f2xx_hal_dma.c **** 
 984:Drivers/STM32F2xx_HAL_Driver/Src/stm32f2xx_hal_dma.c ****     case  HAL_DMA_XFER_HALFCPLT_CB_ID:
 985:Drivers/STM32F2xx_HAL_Driver/Src/stm32f2xx_hal_dma.c ****       hdma->XferHalfCpltCallback = pCallback;
 986:Drivers/STM32F2xx_HAL_Driver/Src/stm32f2xx_hal_dma.c ****       break;
 987:Drivers/STM32F2xx_HAL_Driver/Src/stm32f2xx_hal_dma.c **** 
 988:Drivers/STM32F2xx_HAL_Driver/Src/stm32f2xx_hal_dma.c ****     case  HAL_DMA_XFER_M1CPLT_CB_ID:
 989:Drivers/STM32F2xx_HAL_Driver/Src/stm32f2xx_hal_dma.c ****       hdma->XferM1CpltCallback = pCallback;
 990:Drivers/STM32F2xx_HAL_Driver/Src/stm32f2xx_hal_dma.c ****       break;
 991:Drivers/STM32F2xx_HAL_Driver/Src/stm32f2xx_hal_dma.c **** 
 992:Drivers/STM32F2xx_HAL_Driver/Src/stm32f2xx_hal_dma.c ****     case  HAL_DMA_XFER_M1HALFCPLT_CB_ID:
 993:Drivers/STM32F2xx_HAL_Driver/Src/stm32f2xx_hal_dma.c ****       hdma->XferM1HalfCpltCallback = pCallback;
 994:Drivers/STM32F2xx_HAL_Driver/Src/stm32f2xx_hal_dma.c ****       break;
 995:Drivers/STM32F2xx_HAL_Driver/Src/stm32f2xx_hal_dma.c **** 
 996:Drivers/STM32F2xx_HAL_Driver/Src/stm32f2xx_hal_dma.c ****     case  HAL_DMA_XFER_ERROR_CB_ID:
 997:Drivers/STM32F2xx_HAL_Driver/Src/stm32f2xx_hal_dma.c ****       hdma->XferErrorCallback = pCallback;
 998:Drivers/STM32F2xx_HAL_Driver/Src/stm32f2xx_hal_dma.c ****       break;
 999:Drivers/STM32F2xx_HAL_Driver/Src/stm32f2xx_hal_dma.c **** 
1000:Drivers/STM32F2xx_HAL_Driver/Src/stm32f2xx_hal_dma.c ****     case  HAL_DMA_XFER_ABORT_CB_ID:
1001:Drivers/STM32F2xx_HAL_Driver/Src/stm32f2xx_hal_dma.c ****       hdma->XferAbortCallback = pCallback;
ARM GAS  C:\Users\User\AppData\Local\Temp\cc2bsKoj.s 			page 19


1002:Drivers/STM32F2xx_HAL_Driver/Src/stm32f2xx_hal_dma.c ****       break;
1003:Drivers/STM32F2xx_HAL_Driver/Src/stm32f2xx_hal_dma.c **** 
1004:Drivers/STM32F2xx_HAL_Driver/Src/stm32f2xx_hal_dma.c ****     default:
1005:Drivers/STM32F2xx_HAL_Driver/Src/stm32f2xx_hal_dma.c ****       break;
1006:Drivers/STM32F2xx_HAL_Driver/Src/stm32f2xx_hal_dma.c ****     }
1007:Drivers/STM32F2xx_HAL_Driver/Src/stm32f2xx_hal_dma.c ****   }
1008:Drivers/STM32F2xx_HAL_Driver/Src/stm32f2xx_hal_dma.c ****   else
1009:Drivers/STM32F2xx_HAL_Driver/Src/stm32f2xx_hal_dma.c ****   {
1010:Drivers/STM32F2xx_HAL_Driver/Src/stm32f2xx_hal_dma.c ****     /* Return error status */
1011:Drivers/STM32F2xx_HAL_Driver/Src/stm32f2xx_hal_dma.c ****     status =  HAL_ERROR;
1012:Drivers/STM32F2xx_HAL_Driver/Src/stm32f2xx_hal_dma.c ****   }
1013:Drivers/STM32F2xx_HAL_Driver/Src/stm32f2xx_hal_dma.c **** 
1014:Drivers/STM32F2xx_HAL_Driver/Src/stm32f2xx_hal_dma.c ****   /* Release Lock */
1015:Drivers/STM32F2xx_HAL_Driver/Src/stm32f2xx_hal_dma.c ****   __HAL_UNLOCK(hdma);
1016:Drivers/STM32F2xx_HAL_Driver/Src/stm32f2xx_hal_dma.c ****   
1017:Drivers/STM32F2xx_HAL_Driver/Src/stm32f2xx_hal_dma.c ****   return status;
1018:Drivers/STM32F2xx_HAL_Driver/Src/stm32f2xx_hal_dma.c **** }
1019:Drivers/STM32F2xx_HAL_Driver/Src/stm32f2xx_hal_dma.c **** 
1020:Drivers/STM32F2xx_HAL_Driver/Src/stm32f2xx_hal_dma.c **** /**
1021:Drivers/STM32F2xx_HAL_Driver/Src/stm32f2xx_hal_dma.c ****   * @brief  UnRegister callbacks
1022:Drivers/STM32F2xx_HAL_Driver/Src/stm32f2xx_hal_dma.c ****   * @param  hdma                 pointer to a DMA_HandleTypeDef structure that contains
1023:Drivers/STM32F2xx_HAL_Driver/Src/stm32f2xx_hal_dma.c ****   *                               the configuration information for the specified DMA Stream.
1024:Drivers/STM32F2xx_HAL_Driver/Src/stm32f2xx_hal_dma.c ****   * @param  CallbackID           User Callback identifer
1025:Drivers/STM32F2xx_HAL_Driver/Src/stm32f2xx_hal_dma.c ****   *                               a HAL_DMA_CallbackIDTypeDef ENUM as parameter.
1026:Drivers/STM32F2xx_HAL_Driver/Src/stm32f2xx_hal_dma.c ****   * @retval HAL status
1027:Drivers/STM32F2xx_HAL_Driver/Src/stm32f2xx_hal_dma.c ****   */              
1028:Drivers/STM32F2xx_HAL_Driver/Src/stm32f2xx_hal_dma.c **** HAL_StatusTypeDef HAL_DMA_UnRegisterCallback(DMA_HandleTypeDef *hdma, HAL_DMA_CallbackIDTypeDef Cal
1029:Drivers/STM32F2xx_HAL_Driver/Src/stm32f2xx_hal_dma.c **** {
1030:Drivers/STM32F2xx_HAL_Driver/Src/stm32f2xx_hal_dma.c ****   HAL_StatusTypeDef status = HAL_OK;
1031:Drivers/STM32F2xx_HAL_Driver/Src/stm32f2xx_hal_dma.c ****   
1032:Drivers/STM32F2xx_HAL_Driver/Src/stm32f2xx_hal_dma.c ****   /* Process locked */
1033:Drivers/STM32F2xx_HAL_Driver/Src/stm32f2xx_hal_dma.c ****   __HAL_LOCK(hdma);
1034:Drivers/STM32F2xx_HAL_Driver/Src/stm32f2xx_hal_dma.c ****   
1035:Drivers/STM32F2xx_HAL_Driver/Src/stm32f2xx_hal_dma.c ****   if(HAL_DMA_STATE_READY == hdma->State)
1036:Drivers/STM32F2xx_HAL_Driver/Src/stm32f2xx_hal_dma.c ****   {
1037:Drivers/STM32F2xx_HAL_Driver/Src/stm32f2xx_hal_dma.c ****     switch (CallbackID)
1038:Drivers/STM32F2xx_HAL_Driver/Src/stm32f2xx_hal_dma.c ****     {
1039:Drivers/STM32F2xx_HAL_Driver/Src/stm32f2xx_hal_dma.c ****     case  HAL_DMA_XFER_CPLT_CB_ID:
1040:Drivers/STM32F2xx_HAL_Driver/Src/stm32f2xx_hal_dma.c ****       hdma->XferCpltCallback = NULL;
1041:Drivers/STM32F2xx_HAL_Driver/Src/stm32f2xx_hal_dma.c ****       break;
1042:Drivers/STM32F2xx_HAL_Driver/Src/stm32f2xx_hal_dma.c ****       
1043:Drivers/STM32F2xx_HAL_Driver/Src/stm32f2xx_hal_dma.c ****     case  HAL_DMA_XFER_HALFCPLT_CB_ID:
1044:Drivers/STM32F2xx_HAL_Driver/Src/stm32f2xx_hal_dma.c ****       hdma->XferHalfCpltCallback = NULL;
1045:Drivers/STM32F2xx_HAL_Driver/Src/stm32f2xx_hal_dma.c ****       break;
1046:Drivers/STM32F2xx_HAL_Driver/Src/stm32f2xx_hal_dma.c ****       
1047:Drivers/STM32F2xx_HAL_Driver/Src/stm32f2xx_hal_dma.c ****     case  HAL_DMA_XFER_M1CPLT_CB_ID:
1048:Drivers/STM32F2xx_HAL_Driver/Src/stm32f2xx_hal_dma.c ****       hdma->XferM1CpltCallback = NULL;
1049:Drivers/STM32F2xx_HAL_Driver/Src/stm32f2xx_hal_dma.c ****       break;
1050:Drivers/STM32F2xx_HAL_Driver/Src/stm32f2xx_hal_dma.c ****       
1051:Drivers/STM32F2xx_HAL_Driver/Src/stm32f2xx_hal_dma.c ****     case  HAL_DMA_XFER_M1HALFCPLT_CB_ID:
1052:Drivers/STM32F2xx_HAL_Driver/Src/stm32f2xx_hal_dma.c ****       hdma->XferM1HalfCpltCallback = NULL;
1053:Drivers/STM32F2xx_HAL_Driver/Src/stm32f2xx_hal_dma.c ****       break;
1054:Drivers/STM32F2xx_HAL_Driver/Src/stm32f2xx_hal_dma.c ****       
1055:Drivers/STM32F2xx_HAL_Driver/Src/stm32f2xx_hal_dma.c ****     case  HAL_DMA_XFER_ERROR_CB_ID:
1056:Drivers/STM32F2xx_HAL_Driver/Src/stm32f2xx_hal_dma.c ****       hdma->XferErrorCallback = NULL;
1057:Drivers/STM32F2xx_HAL_Driver/Src/stm32f2xx_hal_dma.c ****       break;
1058:Drivers/STM32F2xx_HAL_Driver/Src/stm32f2xx_hal_dma.c ****       
ARM GAS  C:\Users\User\AppData\Local\Temp\cc2bsKoj.s 			page 20


1059:Drivers/STM32F2xx_HAL_Driver/Src/stm32f2xx_hal_dma.c ****     case  HAL_DMA_XFER_ABORT_CB_ID:
1060:Drivers/STM32F2xx_HAL_Driver/Src/stm32f2xx_hal_dma.c ****       hdma->XferAbortCallback = NULL;
1061:Drivers/STM32F2xx_HAL_Driver/Src/stm32f2xx_hal_dma.c ****       break; 
1062:Drivers/STM32F2xx_HAL_Driver/Src/stm32f2xx_hal_dma.c ****       
1063:Drivers/STM32F2xx_HAL_Driver/Src/stm32f2xx_hal_dma.c ****     case   HAL_DMA_XFER_ALL_CB_ID:
1064:Drivers/STM32F2xx_HAL_Driver/Src/stm32f2xx_hal_dma.c ****       hdma->XferCpltCallback = NULL;
1065:Drivers/STM32F2xx_HAL_Driver/Src/stm32f2xx_hal_dma.c ****       hdma->XferHalfCpltCallback = NULL;
1066:Drivers/STM32F2xx_HAL_Driver/Src/stm32f2xx_hal_dma.c ****       hdma->XferM1CpltCallback = NULL;
1067:Drivers/STM32F2xx_HAL_Driver/Src/stm32f2xx_hal_dma.c ****       hdma->XferM1HalfCpltCallback = NULL;
1068:Drivers/STM32F2xx_HAL_Driver/Src/stm32f2xx_hal_dma.c ****       hdma->XferErrorCallback = NULL;
1069:Drivers/STM32F2xx_HAL_Driver/Src/stm32f2xx_hal_dma.c ****       hdma->XferAbortCallback = NULL;
1070:Drivers/STM32F2xx_HAL_Driver/Src/stm32f2xx_hal_dma.c ****       break; 
1071:Drivers/STM32F2xx_HAL_Driver/Src/stm32f2xx_hal_dma.c ****       
1072:Drivers/STM32F2xx_HAL_Driver/Src/stm32f2xx_hal_dma.c ****     default:
1073:Drivers/STM32F2xx_HAL_Driver/Src/stm32f2xx_hal_dma.c ****       status = HAL_ERROR;
1074:Drivers/STM32F2xx_HAL_Driver/Src/stm32f2xx_hal_dma.c ****       break;
1075:Drivers/STM32F2xx_HAL_Driver/Src/stm32f2xx_hal_dma.c ****     }
1076:Drivers/STM32F2xx_HAL_Driver/Src/stm32f2xx_hal_dma.c ****   }
1077:Drivers/STM32F2xx_HAL_Driver/Src/stm32f2xx_hal_dma.c ****   else
1078:Drivers/STM32F2xx_HAL_Driver/Src/stm32f2xx_hal_dma.c ****   {
1079:Drivers/STM32F2xx_HAL_Driver/Src/stm32f2xx_hal_dma.c ****     status = HAL_ERROR;
1080:Drivers/STM32F2xx_HAL_Driver/Src/stm32f2xx_hal_dma.c ****   }
1081:Drivers/STM32F2xx_HAL_Driver/Src/stm32f2xx_hal_dma.c ****   
1082:Drivers/STM32F2xx_HAL_Driver/Src/stm32f2xx_hal_dma.c ****   /* Release Lock */
1083:Drivers/STM32F2xx_HAL_Driver/Src/stm32f2xx_hal_dma.c ****   __HAL_UNLOCK(hdma);
1084:Drivers/STM32F2xx_HAL_Driver/Src/stm32f2xx_hal_dma.c ****   
1085:Drivers/STM32F2xx_HAL_Driver/Src/stm32f2xx_hal_dma.c ****   return status;
1086:Drivers/STM32F2xx_HAL_Driver/Src/stm32f2xx_hal_dma.c **** }
1087:Drivers/STM32F2xx_HAL_Driver/Src/stm32f2xx_hal_dma.c **** 
1088:Drivers/STM32F2xx_HAL_Driver/Src/stm32f2xx_hal_dma.c **** /**
1089:Drivers/STM32F2xx_HAL_Driver/Src/stm32f2xx_hal_dma.c ****   * @}
1090:Drivers/STM32F2xx_HAL_Driver/Src/stm32f2xx_hal_dma.c ****   */
1091:Drivers/STM32F2xx_HAL_Driver/Src/stm32f2xx_hal_dma.c **** 
1092:Drivers/STM32F2xx_HAL_Driver/Src/stm32f2xx_hal_dma.c **** /** @addtogroup DMA_Exported_Functions_Group3
1093:Drivers/STM32F2xx_HAL_Driver/Src/stm32f2xx_hal_dma.c ****   *
1094:Drivers/STM32F2xx_HAL_Driver/Src/stm32f2xx_hal_dma.c **** @verbatim
1095:Drivers/STM32F2xx_HAL_Driver/Src/stm32f2xx_hal_dma.c ****  ===============================================================================
1096:Drivers/STM32F2xx_HAL_Driver/Src/stm32f2xx_hal_dma.c ****                     ##### State and Errors functions #####
1097:Drivers/STM32F2xx_HAL_Driver/Src/stm32f2xx_hal_dma.c ****  ===============================================================================
1098:Drivers/STM32F2xx_HAL_Driver/Src/stm32f2xx_hal_dma.c ****     [..]
1099:Drivers/STM32F2xx_HAL_Driver/Src/stm32f2xx_hal_dma.c ****     This subsection provides functions allowing to
1100:Drivers/STM32F2xx_HAL_Driver/Src/stm32f2xx_hal_dma.c ****       (+) Check the DMA state
1101:Drivers/STM32F2xx_HAL_Driver/Src/stm32f2xx_hal_dma.c ****       (+) Get error code
1102:Drivers/STM32F2xx_HAL_Driver/Src/stm32f2xx_hal_dma.c **** 
1103:Drivers/STM32F2xx_HAL_Driver/Src/stm32f2xx_hal_dma.c **** @endverbatim
1104:Drivers/STM32F2xx_HAL_Driver/Src/stm32f2xx_hal_dma.c ****   * @{
1105:Drivers/STM32F2xx_HAL_Driver/Src/stm32f2xx_hal_dma.c ****   */
1106:Drivers/STM32F2xx_HAL_Driver/Src/stm32f2xx_hal_dma.c **** 
1107:Drivers/STM32F2xx_HAL_Driver/Src/stm32f2xx_hal_dma.c **** /**
1108:Drivers/STM32F2xx_HAL_Driver/Src/stm32f2xx_hal_dma.c ****   * @brief  Returns the DMA state.
1109:Drivers/STM32F2xx_HAL_Driver/Src/stm32f2xx_hal_dma.c ****   * @param  hdma pointer to a DMA_HandleTypeDef structure that contains
1110:Drivers/STM32F2xx_HAL_Driver/Src/stm32f2xx_hal_dma.c ****   *               the configuration information for the specified DMA Stream.
1111:Drivers/STM32F2xx_HAL_Driver/Src/stm32f2xx_hal_dma.c ****   * @retval HAL state
1112:Drivers/STM32F2xx_HAL_Driver/Src/stm32f2xx_hal_dma.c ****   */
1113:Drivers/STM32F2xx_HAL_Driver/Src/stm32f2xx_hal_dma.c **** HAL_DMA_StateTypeDef HAL_DMA_GetState(DMA_HandleTypeDef *hdma)
1114:Drivers/STM32F2xx_HAL_Driver/Src/stm32f2xx_hal_dma.c **** {
1115:Drivers/STM32F2xx_HAL_Driver/Src/stm32f2xx_hal_dma.c ****   return hdma->State;
ARM GAS  C:\Users\User\AppData\Local\Temp\cc2bsKoj.s 			page 21


1116:Drivers/STM32F2xx_HAL_Driver/Src/stm32f2xx_hal_dma.c **** }
1117:Drivers/STM32F2xx_HAL_Driver/Src/stm32f2xx_hal_dma.c **** 
1118:Drivers/STM32F2xx_HAL_Driver/Src/stm32f2xx_hal_dma.c **** /**
1119:Drivers/STM32F2xx_HAL_Driver/Src/stm32f2xx_hal_dma.c ****   * @brief  Return the DMA error code
1120:Drivers/STM32F2xx_HAL_Driver/Src/stm32f2xx_hal_dma.c ****   * @param  hdma pointer to a DMA_HandleTypeDef structure that contains
1121:Drivers/STM32F2xx_HAL_Driver/Src/stm32f2xx_hal_dma.c ****   *              the configuration information for the specified DMA Stream.
1122:Drivers/STM32F2xx_HAL_Driver/Src/stm32f2xx_hal_dma.c ****   * @retval DMA Error Code
1123:Drivers/STM32F2xx_HAL_Driver/Src/stm32f2xx_hal_dma.c ****   */
1124:Drivers/STM32F2xx_HAL_Driver/Src/stm32f2xx_hal_dma.c **** uint32_t HAL_DMA_GetError(DMA_HandleTypeDef *hdma)
1125:Drivers/STM32F2xx_HAL_Driver/Src/stm32f2xx_hal_dma.c **** {
1126:Drivers/STM32F2xx_HAL_Driver/Src/stm32f2xx_hal_dma.c ****   return hdma->ErrorCode;
1127:Drivers/STM32F2xx_HAL_Driver/Src/stm32f2xx_hal_dma.c **** }
1128:Drivers/STM32F2xx_HAL_Driver/Src/stm32f2xx_hal_dma.c **** 
1129:Drivers/STM32F2xx_HAL_Driver/Src/stm32f2xx_hal_dma.c **** /**
1130:Drivers/STM32F2xx_HAL_Driver/Src/stm32f2xx_hal_dma.c ****   * @}
1131:Drivers/STM32F2xx_HAL_Driver/Src/stm32f2xx_hal_dma.c ****   */
1132:Drivers/STM32F2xx_HAL_Driver/Src/stm32f2xx_hal_dma.c **** 
1133:Drivers/STM32F2xx_HAL_Driver/Src/stm32f2xx_hal_dma.c **** /**
1134:Drivers/STM32F2xx_HAL_Driver/Src/stm32f2xx_hal_dma.c ****   * @}
1135:Drivers/STM32F2xx_HAL_Driver/Src/stm32f2xx_hal_dma.c ****   */
1136:Drivers/STM32F2xx_HAL_Driver/Src/stm32f2xx_hal_dma.c **** 
1137:Drivers/STM32F2xx_HAL_Driver/Src/stm32f2xx_hal_dma.c **** /** @addtogroup DMA_Private_Functions
1138:Drivers/STM32F2xx_HAL_Driver/Src/stm32f2xx_hal_dma.c ****   * @{
1139:Drivers/STM32F2xx_HAL_Driver/Src/stm32f2xx_hal_dma.c ****   */
1140:Drivers/STM32F2xx_HAL_Driver/Src/stm32f2xx_hal_dma.c **** 
1141:Drivers/STM32F2xx_HAL_Driver/Src/stm32f2xx_hal_dma.c **** /**
1142:Drivers/STM32F2xx_HAL_Driver/Src/stm32f2xx_hal_dma.c ****   * @brief  Sets the DMA Transfer parameter.
1143:Drivers/STM32F2xx_HAL_Driver/Src/stm32f2xx_hal_dma.c ****   * @param  hdma       pointer to a DMA_HandleTypeDef structure that contains
1144:Drivers/STM32F2xx_HAL_Driver/Src/stm32f2xx_hal_dma.c ****   *                     the configuration information for the specified DMA Stream.
1145:Drivers/STM32F2xx_HAL_Driver/Src/stm32f2xx_hal_dma.c ****   * @param  SrcAddress The source memory Buffer address
1146:Drivers/STM32F2xx_HAL_Driver/Src/stm32f2xx_hal_dma.c ****   * @param  DstAddress The destination memory Buffer address
1147:Drivers/STM32F2xx_HAL_Driver/Src/stm32f2xx_hal_dma.c ****   * @param  DataLength The length of data to be transferred from source to destination
1148:Drivers/STM32F2xx_HAL_Driver/Src/stm32f2xx_hal_dma.c ****   * @retval HAL status
1149:Drivers/STM32F2xx_HAL_Driver/Src/stm32f2xx_hal_dma.c ****   */
1150:Drivers/STM32F2xx_HAL_Driver/Src/stm32f2xx_hal_dma.c **** static void DMA_SetConfig(DMA_HandleTypeDef *hdma, uint32_t SrcAddress, uint32_t DstAddress, uint32
1151:Drivers/STM32F2xx_HAL_Driver/Src/stm32f2xx_hal_dma.c **** {
  27              		.loc 1 1151 1 view -0
  28              		.cfi_startproc
  29              		@ args = 0, pretend = 0, frame = 0
  30              		@ frame_needed = 0, uses_anonymous_args = 0
  31              		@ link register save eliminated.
  32              		.loc 1 1151 1 is_stmt 0 view .LVU1
  33 0000 30B4     		push	{r4, r5}
  34              	.LCFI0:
  35              		.cfi_def_cfa_offset 8
  36              		.cfi_offset 4, -8
  37              		.cfi_offset 5, -4
1152:Drivers/STM32F2xx_HAL_Driver/Src/stm32f2xx_hal_dma.c ****   /* Clear DBM bit */
1153:Drivers/STM32F2xx_HAL_Driver/Src/stm32f2xx_hal_dma.c ****   hdma->Instance->CR &= (uint32_t)(~DMA_SxCR_DBM);
  38              		.loc 1 1153 3 is_stmt 1 view .LVU2
  39              		.loc 1 1153 7 is_stmt 0 view .LVU3
  40 0002 0568     		ldr	r5, [r0]
  41              		.loc 1 1153 22 view .LVU4
  42 0004 2C68     		ldr	r4, [r5]
  43 0006 24F48024 		bic	r4, r4, #262144
  44 000a 2C60     		str	r4, [r5]
1154:Drivers/STM32F2xx_HAL_Driver/Src/stm32f2xx_hal_dma.c **** 
ARM GAS  C:\Users\User\AppData\Local\Temp\cc2bsKoj.s 			page 22


1155:Drivers/STM32F2xx_HAL_Driver/Src/stm32f2xx_hal_dma.c ****   /* Configure DMA Stream data length */
1156:Drivers/STM32F2xx_HAL_Driver/Src/stm32f2xx_hal_dma.c ****   hdma->Instance->NDTR = DataLength;
  45              		.loc 1 1156 3 is_stmt 1 view .LVU5
  46              		.loc 1 1156 7 is_stmt 0 view .LVU6
  47 000c 0468     		ldr	r4, [r0]
  48              		.loc 1 1156 24 view .LVU7
  49 000e 6360     		str	r3, [r4, #4]
1157:Drivers/STM32F2xx_HAL_Driver/Src/stm32f2xx_hal_dma.c **** 
1158:Drivers/STM32F2xx_HAL_Driver/Src/stm32f2xx_hal_dma.c ****   /* Memory to Peripheral */
1159:Drivers/STM32F2xx_HAL_Driver/Src/stm32f2xx_hal_dma.c ****   if((hdma->Init.Direction) == DMA_MEMORY_TO_PERIPH)
  50              		.loc 1 1159 3 is_stmt 1 view .LVU8
  51              		.loc 1 1159 17 is_stmt 0 view .LVU9
  52 0010 8368     		ldr	r3, [r0, #8]
  53              	.LVL1:
  54              		.loc 1 1159 5 view .LVU10
  55 0012 402B     		cmp	r3, #64
  56 0014 05D0     		beq	.L5
1160:Drivers/STM32F2xx_HAL_Driver/Src/stm32f2xx_hal_dma.c ****   {
1161:Drivers/STM32F2xx_HAL_Driver/Src/stm32f2xx_hal_dma.c ****     /* Configure DMA Stream destination address */
1162:Drivers/STM32F2xx_HAL_Driver/Src/stm32f2xx_hal_dma.c ****     hdma->Instance->PAR = DstAddress;
1163:Drivers/STM32F2xx_HAL_Driver/Src/stm32f2xx_hal_dma.c **** 
1164:Drivers/STM32F2xx_HAL_Driver/Src/stm32f2xx_hal_dma.c ****     /* Configure DMA Stream source address */
1165:Drivers/STM32F2xx_HAL_Driver/Src/stm32f2xx_hal_dma.c ****     hdma->Instance->M0AR = SrcAddress;
1166:Drivers/STM32F2xx_HAL_Driver/Src/stm32f2xx_hal_dma.c ****   }
1167:Drivers/STM32F2xx_HAL_Driver/Src/stm32f2xx_hal_dma.c ****   /* Peripheral to Memory */
1168:Drivers/STM32F2xx_HAL_Driver/Src/stm32f2xx_hal_dma.c ****   else
1169:Drivers/STM32F2xx_HAL_Driver/Src/stm32f2xx_hal_dma.c ****   {
1170:Drivers/STM32F2xx_HAL_Driver/Src/stm32f2xx_hal_dma.c ****     /* Configure DMA Stream source address */
1171:Drivers/STM32F2xx_HAL_Driver/Src/stm32f2xx_hal_dma.c ****     hdma->Instance->PAR = SrcAddress;
  57              		.loc 1 1171 5 is_stmt 1 view .LVU11
  58              		.loc 1 1171 9 is_stmt 0 view .LVU12
  59 0016 0368     		ldr	r3, [r0]
  60              		.loc 1 1171 25 view .LVU13
  61 0018 9960     		str	r1, [r3, #8]
  62              	.LVL2:
1172:Drivers/STM32F2xx_HAL_Driver/Src/stm32f2xx_hal_dma.c **** 
1173:Drivers/STM32F2xx_HAL_Driver/Src/stm32f2xx_hal_dma.c ****     /* Configure DMA Stream destination address */
1174:Drivers/STM32F2xx_HAL_Driver/Src/stm32f2xx_hal_dma.c ****     hdma->Instance->M0AR = DstAddress;
  63              		.loc 1 1174 5 is_stmt 1 view .LVU14
  64              		.loc 1 1174 9 is_stmt 0 view .LVU15
  65 001a 0368     		ldr	r3, [r0]
  66              		.loc 1 1174 26 view .LVU16
  67 001c DA60     		str	r2, [r3, #12]
  68              	.L1:
1175:Drivers/STM32F2xx_HAL_Driver/Src/stm32f2xx_hal_dma.c ****   }
1176:Drivers/STM32F2xx_HAL_Driver/Src/stm32f2xx_hal_dma.c **** }
  69              		.loc 1 1176 1 view .LVU17
  70 001e 30BC     		pop	{r4, r5}
  71              	.LCFI1:
  72              		.cfi_remember_state
  73              		.cfi_restore 5
  74              		.cfi_restore 4
  75              		.cfi_def_cfa_offset 0
  76 0020 7047     		bx	lr
  77              	.LVL3:
  78              	.L5:
  79              	.LCFI2:
ARM GAS  C:\Users\User\AppData\Local\Temp\cc2bsKoj.s 			page 23


  80              		.cfi_restore_state
1162:Drivers/STM32F2xx_HAL_Driver/Src/stm32f2xx_hal_dma.c **** 
  81              		.loc 1 1162 5 is_stmt 1 view .LVU18
1162:Drivers/STM32F2xx_HAL_Driver/Src/stm32f2xx_hal_dma.c **** 
  82              		.loc 1 1162 9 is_stmt 0 view .LVU19
  83 0022 0368     		ldr	r3, [r0]
1162:Drivers/STM32F2xx_HAL_Driver/Src/stm32f2xx_hal_dma.c **** 
  84              		.loc 1 1162 25 view .LVU20
  85 0024 9A60     		str	r2, [r3, #8]
  86              	.LVL4:
1165:Drivers/STM32F2xx_HAL_Driver/Src/stm32f2xx_hal_dma.c ****   }
  87              		.loc 1 1165 5 is_stmt 1 view .LVU21
1165:Drivers/STM32F2xx_HAL_Driver/Src/stm32f2xx_hal_dma.c ****   }
  88              		.loc 1 1165 9 is_stmt 0 view .LVU22
  89 0026 0368     		ldr	r3, [r0]
1165:Drivers/STM32F2xx_HAL_Driver/Src/stm32f2xx_hal_dma.c ****   }
  90              		.loc 1 1165 26 view .LVU23
  91 0028 D960     		str	r1, [r3, #12]
  92 002a F8E7     		b	.L1
  93              		.cfi_endproc
  94              	.LFE84:
  96              		.section	.text.DMA_CalcBaseAndBitshift,"ax",%progbits
  97              		.align	1
  98              		.syntax unified
  99              		.thumb
 100              		.thumb_func
 101              		.fpu softvfp
 103              	DMA_CalcBaseAndBitshift:
 104              	.LVL5:
 105              	.LFB85:
1177:Drivers/STM32F2xx_HAL_Driver/Src/stm32f2xx_hal_dma.c **** 
1178:Drivers/STM32F2xx_HAL_Driver/Src/stm32f2xx_hal_dma.c **** /**
1179:Drivers/STM32F2xx_HAL_Driver/Src/stm32f2xx_hal_dma.c ****   * @brief  Returns the DMA Stream base address depending on stream number
1180:Drivers/STM32F2xx_HAL_Driver/Src/stm32f2xx_hal_dma.c ****   * @param  hdma       pointer to a DMA_HandleTypeDef structure that contains
1181:Drivers/STM32F2xx_HAL_Driver/Src/stm32f2xx_hal_dma.c ****   *                     the configuration information for the specified DMA Stream. 
1182:Drivers/STM32F2xx_HAL_Driver/Src/stm32f2xx_hal_dma.c ****   * @retval Stream base address
1183:Drivers/STM32F2xx_HAL_Driver/Src/stm32f2xx_hal_dma.c ****   */
1184:Drivers/STM32F2xx_HAL_Driver/Src/stm32f2xx_hal_dma.c **** static uint32_t DMA_CalcBaseAndBitshift(DMA_HandleTypeDef *hdma)
1185:Drivers/STM32F2xx_HAL_Driver/Src/stm32f2xx_hal_dma.c **** {
 106              		.loc 1 1185 1 is_stmt 1 view -0
 107              		.cfi_startproc
 108              		@ args = 0, pretend = 0, frame = 0
 109              		@ frame_needed = 0, uses_anonymous_args = 0
 110              		@ link register save eliminated.
 111              		.loc 1 1185 1 is_stmt 0 view .LVU25
 112 0000 10B4     		push	{r4}
 113              	.LCFI3:
 114              		.cfi_def_cfa_offset 4
 115              		.cfi_offset 4, -4
1186:Drivers/STM32F2xx_HAL_Driver/Src/stm32f2xx_hal_dma.c ****   uint32_t stream_number = (((uint32_t)hdma->Instance & 0xFFU) - 16U) / 24U;
 116              		.loc 1 1186 3 is_stmt 1 view .LVU26
 117              		.loc 1 1186 44 is_stmt 0 view .LVU27
 118 0002 0368     		ldr	r3, [r0]
 119              		.loc 1 1186 55 view .LVU28
 120 0004 D9B2     		uxtb	r1, r3
 121              		.loc 1 1186 64 view .LVU29
 122 0006 1039     		subs	r1, r1, #16
ARM GAS  C:\Users\User\AppData\Local\Temp\cc2bsKoj.s 			page 24


 123              		.loc 1 1186 12 view .LVU30
 124 0008 0B4A     		ldr	r2, .L10
 125 000a A2FB0142 		umull	r4, r2, r2, r1
 126 000e 1209     		lsrs	r2, r2, #4
 127              	.LVL6:
1187:Drivers/STM32F2xx_HAL_Driver/Src/stm32f2xx_hal_dma.c ****   
1188:Drivers/STM32F2xx_HAL_Driver/Src/stm32f2xx_hal_dma.c ****   /* lookup table for necessary bitshift of flags within status registers */
1189:Drivers/STM32F2xx_HAL_Driver/Src/stm32f2xx_hal_dma.c ****   static const uint8_t flagBitshiftOffset[8U] = {0U, 6U, 16U, 22U, 0U, 6U, 16U, 22U};
 128              		.loc 1 1189 3 is_stmt 1 view .LVU31
1190:Drivers/STM32F2xx_HAL_Driver/Src/stm32f2xx_hal_dma.c ****   hdma->StreamIndex = flagBitshiftOffset[stream_number];
 129              		.loc 1 1190 3 view .LVU32
 130              		.loc 1 1190 41 is_stmt 0 view .LVU33
 131 0010 0A4C     		ldr	r4, .L10+4
 132 0012 A25C     		ldrb	r2, [r4, r2]	@ zero_extendqisi2
 133              	.LVL7:
 134              		.loc 1 1190 21 view .LVU34
 135 0014 C265     		str	r2, [r0, #92]
1191:Drivers/STM32F2xx_HAL_Driver/Src/stm32f2xx_hal_dma.c ****   
1192:Drivers/STM32F2xx_HAL_Driver/Src/stm32f2xx_hal_dma.c ****   if (stream_number > 3U)
 136              		.loc 1 1192 3 is_stmt 1 view .LVU35
 137              		.loc 1 1192 6 is_stmt 0 view .LVU36
 138 0016 5F29     		cmp	r1, #95
 139 0018 08D9     		bls	.L7
1193:Drivers/STM32F2xx_HAL_Driver/Src/stm32f2xx_hal_dma.c ****   {
1194:Drivers/STM32F2xx_HAL_Driver/Src/stm32f2xx_hal_dma.c ****     /* return pointer to HISR and HIFCR */
1195:Drivers/STM32F2xx_HAL_Driver/Src/stm32f2xx_hal_dma.c ****     hdma->StreamBaseAddress = (((uint32_t)hdma->Instance & (uint32_t)(~0x3FFU)) + 4U);
 140              		.loc 1 1195 5 is_stmt 1 view .LVU37
 141              		.loc 1 1195 58 is_stmt 0 view .LVU38
 142 001a 23F47F73 		bic	r3, r3, #1020
 143 001e 23F00303 		bic	r3, r3, #3
 144              		.loc 1 1195 81 view .LVU39
 145 0022 0433     		adds	r3, r3, #4
 146              		.loc 1 1195 29 view .LVU40
 147 0024 8365     		str	r3, [r0, #88]
 148              	.L8:
1196:Drivers/STM32F2xx_HAL_Driver/Src/stm32f2xx_hal_dma.c ****   }
1197:Drivers/STM32F2xx_HAL_Driver/Src/stm32f2xx_hal_dma.c ****   else
1198:Drivers/STM32F2xx_HAL_Driver/Src/stm32f2xx_hal_dma.c ****   {
1199:Drivers/STM32F2xx_HAL_Driver/Src/stm32f2xx_hal_dma.c ****     /* return pointer to LISR and LIFCR */
1200:Drivers/STM32F2xx_HAL_Driver/Src/stm32f2xx_hal_dma.c ****     hdma->StreamBaseAddress = ((uint32_t)hdma->Instance & (uint32_t)(~0x3FFU));
1201:Drivers/STM32F2xx_HAL_Driver/Src/stm32f2xx_hal_dma.c ****   }
1202:Drivers/STM32F2xx_HAL_Driver/Src/stm32f2xx_hal_dma.c ****   
1203:Drivers/STM32F2xx_HAL_Driver/Src/stm32f2xx_hal_dma.c ****   return hdma->StreamBaseAddress;
 149              		.loc 1 1203 3 is_stmt 1 view .LVU41
1204:Drivers/STM32F2xx_HAL_Driver/Src/stm32f2xx_hal_dma.c **** }
 150              		.loc 1 1204 1 is_stmt 0 view .LVU42
 151 0026 806D     		ldr	r0, [r0, #88]
 152              	.LVL8:
 153              		.loc 1 1204 1 view .LVU43
 154 0028 10BC     		pop	{r4}
 155              	.LCFI4:
 156              		.cfi_remember_state
 157              		.cfi_restore 4
 158              		.cfi_def_cfa_offset 0
 159 002a 7047     		bx	lr
 160              	.LVL9:
 161              	.L7:
ARM GAS  C:\Users\User\AppData\Local\Temp\cc2bsKoj.s 			page 25


 162              	.LCFI5:
 163              		.cfi_restore_state
1200:Drivers/STM32F2xx_HAL_Driver/Src/stm32f2xx_hal_dma.c ****   }
 164              		.loc 1 1200 5 is_stmt 1 view .LVU44
1200:Drivers/STM32F2xx_HAL_Driver/Src/stm32f2xx_hal_dma.c ****   }
 165              		.loc 1 1200 57 is_stmt 0 view .LVU45
 166 002c 23F47F73 		bic	r3, r3, #1020
 167 0030 23F00303 		bic	r3, r3, #3
1200:Drivers/STM32F2xx_HAL_Driver/Src/stm32f2xx_hal_dma.c ****   }
 168              		.loc 1 1200 29 view .LVU46
 169 0034 8365     		str	r3, [r0, #88]
 170 0036 F6E7     		b	.L8
 171              	.L11:
 172              		.align	2
 173              	.L10:
 174 0038 ABAAAAAA 		.word	-1431655765
 175 003c 00000000 		.word	.LANCHOR0
 176              		.cfi_endproc
 177              	.LFE85:
 179              		.section	.text.DMA_CheckFifoParam,"ax",%progbits
 180              		.align	1
 181              		.syntax unified
 182              		.thumb
 183              		.thumb_func
 184              		.fpu softvfp
 186              	DMA_CheckFifoParam:
 187              	.LVL10:
 188              	.LFB86:
1205:Drivers/STM32F2xx_HAL_Driver/Src/stm32f2xx_hal_dma.c **** 
1206:Drivers/STM32F2xx_HAL_Driver/Src/stm32f2xx_hal_dma.c **** /**
1207:Drivers/STM32F2xx_HAL_Driver/Src/stm32f2xx_hal_dma.c ****   * @brief  Check compatibility between FIFO threshold level and size of the memory burst
1208:Drivers/STM32F2xx_HAL_Driver/Src/stm32f2xx_hal_dma.c ****   * @param  hdma       pointer to a DMA_HandleTypeDef structure that contains
1209:Drivers/STM32F2xx_HAL_Driver/Src/stm32f2xx_hal_dma.c ****   *                     the configuration information for the specified DMA Stream. 
1210:Drivers/STM32F2xx_HAL_Driver/Src/stm32f2xx_hal_dma.c ****   * @retval HAL status
1211:Drivers/STM32F2xx_HAL_Driver/Src/stm32f2xx_hal_dma.c ****   */
1212:Drivers/STM32F2xx_HAL_Driver/Src/stm32f2xx_hal_dma.c **** static HAL_StatusTypeDef DMA_CheckFifoParam(DMA_HandleTypeDef *hdma)
1213:Drivers/STM32F2xx_HAL_Driver/Src/stm32f2xx_hal_dma.c **** {
 189              		.loc 1 1213 1 is_stmt 1 view -0
 190              		.cfi_startproc
 191              		@ args = 0, pretend = 0, frame = 0
 192              		@ frame_needed = 0, uses_anonymous_args = 0
 193              		@ link register save eliminated.
1214:Drivers/STM32F2xx_HAL_Driver/Src/stm32f2xx_hal_dma.c ****   HAL_StatusTypeDef status = HAL_OK;
 194              		.loc 1 1214 3 view .LVU48
1215:Drivers/STM32F2xx_HAL_Driver/Src/stm32f2xx_hal_dma.c ****   uint32_t tmp = hdma->Init.FIFOThreshold;
 195              		.loc 1 1215 3 view .LVU49
 196              		.loc 1 1215 12 is_stmt 0 view .LVU50
 197 0000 836A     		ldr	r3, [r0, #40]
 198              	.LVL11:
1216:Drivers/STM32F2xx_HAL_Driver/Src/stm32f2xx_hal_dma.c ****   
1217:Drivers/STM32F2xx_HAL_Driver/Src/stm32f2xx_hal_dma.c ****   /* Memory Data size equal to Byte */
1218:Drivers/STM32F2xx_HAL_Driver/Src/stm32f2xx_hal_dma.c ****   if(hdma->Init.MemDataAlignment == DMA_MDATAALIGN_BYTE)
 199              		.loc 1 1218 3 is_stmt 1 view .LVU51
 200              		.loc 1 1218 16 is_stmt 0 view .LVU52
 201 0002 8269     		ldr	r2, [r0, #24]
 202              		.loc 1 1218 5 view .LVU53
 203 0004 92B9     		cbnz	r2, .L13
ARM GAS  C:\Users\User\AppData\Local\Temp\cc2bsKoj.s 			page 26


1219:Drivers/STM32F2xx_HAL_Driver/Src/stm32f2xx_hal_dma.c ****   {
1220:Drivers/STM32F2xx_HAL_Driver/Src/stm32f2xx_hal_dma.c ****     switch (tmp)
 204              		.loc 1 1220 5 is_stmt 1 view .LVU54
 205 0006 012B     		cmp	r3, #1
 206 0008 0AD0     		beq	.L14
 207 000a 1BB1     		cbz	r3, .L15
 208 000c 022B     		cmp	r3, #2
 209 000e 01D0     		beq	.L15
1214:Drivers/STM32F2xx_HAL_Driver/Src/stm32f2xx_hal_dma.c ****   uint32_t tmp = hdma->Init.FIFOThreshold;
 210              		.loc 1 1214 21 is_stmt 0 view .LVU55
 211 0010 0020     		movs	r0, #0
 212              	.LVL12:
1214:Drivers/STM32F2xx_HAL_Driver/Src/stm32f2xx_hal_dma.c ****   uint32_t tmp = hdma->Init.FIFOThreshold;
 213              		.loc 1 1214 21 view .LVU56
 214 0012 7047     		bx	lr
 215              	.LVL13:
 216              	.L15:
1221:Drivers/STM32F2xx_HAL_Driver/Src/stm32f2xx_hal_dma.c ****     {
1222:Drivers/STM32F2xx_HAL_Driver/Src/stm32f2xx_hal_dma.c ****     case DMA_FIFO_THRESHOLD_1QUARTERFULL:
1223:Drivers/STM32F2xx_HAL_Driver/Src/stm32f2xx_hal_dma.c ****     case DMA_FIFO_THRESHOLD_3QUARTERSFULL:
1224:Drivers/STM32F2xx_HAL_Driver/Src/stm32f2xx_hal_dma.c ****       if ((hdma->Init.MemBurst & DMA_SxCR_MBURST_1) == DMA_SxCR_MBURST_1)
 217              		.loc 1 1224 7 is_stmt 1 view .LVU57
 218              		.loc 1 1224 22 is_stmt 0 view .LVU58
 219 0014 C36A     		ldr	r3, [r0, #44]
 220              	.LVL14:
 221              		.loc 1 1224 10 view .LVU59
 222 0016 13F0807F 		tst	r3, #16777216
 223 001a 28D1     		bne	.L23
1214:Drivers/STM32F2xx_HAL_Driver/Src/stm32f2xx_hal_dma.c ****   uint32_t tmp = hdma->Init.FIFOThreshold;
 224              		.loc 1 1214 21 view .LVU60
 225 001c 0020     		movs	r0, #0
 226              	.LVL15:
1214:Drivers/STM32F2xx_HAL_Driver/Src/stm32f2xx_hal_dma.c ****   uint32_t tmp = hdma->Init.FIFOThreshold;
 227              		.loc 1 1214 21 view .LVU61
 228 001e 7047     		bx	lr
 229              	.LVL16:
 230              	.L14:
1225:Drivers/STM32F2xx_HAL_Driver/Src/stm32f2xx_hal_dma.c ****       {
1226:Drivers/STM32F2xx_HAL_Driver/Src/stm32f2xx_hal_dma.c ****         status = HAL_ERROR;
1227:Drivers/STM32F2xx_HAL_Driver/Src/stm32f2xx_hal_dma.c ****       }
1228:Drivers/STM32F2xx_HAL_Driver/Src/stm32f2xx_hal_dma.c ****       break;
1229:Drivers/STM32F2xx_HAL_Driver/Src/stm32f2xx_hal_dma.c ****     case DMA_FIFO_THRESHOLD_HALFFULL:
1230:Drivers/STM32F2xx_HAL_Driver/Src/stm32f2xx_hal_dma.c ****       if (hdma->Init.MemBurst == DMA_MBURST_INC16)
 231              		.loc 1 1230 7 is_stmt 1 view .LVU62
 232              		.loc 1 1230 21 is_stmt 0 view .LVU63
 233 0020 C36A     		ldr	r3, [r0, #44]
 234              	.LVL17:
 235              		.loc 1 1230 10 view .LVU64
 236 0022 B3F1C07F 		cmp	r3, #25165824
 237 0026 24D0     		beq	.L24
1214:Drivers/STM32F2xx_HAL_Driver/Src/stm32f2xx_hal_dma.c ****   uint32_t tmp = hdma->Init.FIFOThreshold;
 238              		.loc 1 1214 21 view .LVU65
 239 0028 0020     		movs	r0, #0
 240              	.LVL18:
1214:Drivers/STM32F2xx_HAL_Driver/Src/stm32f2xx_hal_dma.c ****   uint32_t tmp = hdma->Init.FIFOThreshold;
 241              		.loc 1 1214 21 view .LVU66
 242 002a 7047     		bx	lr
ARM GAS  C:\Users\User\AppData\Local\Temp\cc2bsKoj.s 			page 27


 243              	.LVL19:
 244              	.L13:
1231:Drivers/STM32F2xx_HAL_Driver/Src/stm32f2xx_hal_dma.c ****       {
1232:Drivers/STM32F2xx_HAL_Driver/Src/stm32f2xx_hal_dma.c ****         status = HAL_ERROR;
1233:Drivers/STM32F2xx_HAL_Driver/Src/stm32f2xx_hal_dma.c ****       }
1234:Drivers/STM32F2xx_HAL_Driver/Src/stm32f2xx_hal_dma.c ****       break;
1235:Drivers/STM32F2xx_HAL_Driver/Src/stm32f2xx_hal_dma.c ****     case DMA_FIFO_THRESHOLD_FULL:
1236:Drivers/STM32F2xx_HAL_Driver/Src/stm32f2xx_hal_dma.c ****       break;
1237:Drivers/STM32F2xx_HAL_Driver/Src/stm32f2xx_hal_dma.c ****     default:
1238:Drivers/STM32F2xx_HAL_Driver/Src/stm32f2xx_hal_dma.c ****       break;
1239:Drivers/STM32F2xx_HAL_Driver/Src/stm32f2xx_hal_dma.c ****     }
1240:Drivers/STM32F2xx_HAL_Driver/Src/stm32f2xx_hal_dma.c ****   }
1241:Drivers/STM32F2xx_HAL_Driver/Src/stm32f2xx_hal_dma.c ****   
1242:Drivers/STM32F2xx_HAL_Driver/Src/stm32f2xx_hal_dma.c ****   /* Memory Data size equal to Half-Word */
1243:Drivers/STM32F2xx_HAL_Driver/Src/stm32f2xx_hal_dma.c ****   else if (hdma->Init.MemDataAlignment == DMA_MDATAALIGN_HALFWORD)
 245              		.loc 1 1243 8 is_stmt 1 view .LVU67
 246              		.loc 1 1243 11 is_stmt 0 view .LVU68
 247 002c B2F5005F 		cmp	r2, #8192
 248 0030 09D0     		beq	.L31
1244:Drivers/STM32F2xx_HAL_Driver/Src/stm32f2xx_hal_dma.c ****   {
1245:Drivers/STM32F2xx_HAL_Driver/Src/stm32f2xx_hal_dma.c ****     switch (tmp)
1246:Drivers/STM32F2xx_HAL_Driver/Src/stm32f2xx_hal_dma.c ****     {
1247:Drivers/STM32F2xx_HAL_Driver/Src/stm32f2xx_hal_dma.c ****     case DMA_FIFO_THRESHOLD_1QUARTERFULL:
1248:Drivers/STM32F2xx_HAL_Driver/Src/stm32f2xx_hal_dma.c ****     case DMA_FIFO_THRESHOLD_3QUARTERSFULL:
1249:Drivers/STM32F2xx_HAL_Driver/Src/stm32f2xx_hal_dma.c ****       status = HAL_ERROR;
1250:Drivers/STM32F2xx_HAL_Driver/Src/stm32f2xx_hal_dma.c ****       break;
1251:Drivers/STM32F2xx_HAL_Driver/Src/stm32f2xx_hal_dma.c ****     case DMA_FIFO_THRESHOLD_HALFFULL:
1252:Drivers/STM32F2xx_HAL_Driver/Src/stm32f2xx_hal_dma.c ****       if ((hdma->Init.MemBurst & DMA_SxCR_MBURST_1) == DMA_SxCR_MBURST_1)
1253:Drivers/STM32F2xx_HAL_Driver/Src/stm32f2xx_hal_dma.c ****       {
1254:Drivers/STM32F2xx_HAL_Driver/Src/stm32f2xx_hal_dma.c ****         status = HAL_ERROR;
1255:Drivers/STM32F2xx_HAL_Driver/Src/stm32f2xx_hal_dma.c ****       }
1256:Drivers/STM32F2xx_HAL_Driver/Src/stm32f2xx_hal_dma.c ****       break;
1257:Drivers/STM32F2xx_HAL_Driver/Src/stm32f2xx_hal_dma.c ****     case DMA_FIFO_THRESHOLD_FULL:
1258:Drivers/STM32F2xx_HAL_Driver/Src/stm32f2xx_hal_dma.c ****       if (hdma->Init.MemBurst == DMA_MBURST_INC16)
1259:Drivers/STM32F2xx_HAL_Driver/Src/stm32f2xx_hal_dma.c ****       {
1260:Drivers/STM32F2xx_HAL_Driver/Src/stm32f2xx_hal_dma.c ****         status = HAL_ERROR;
1261:Drivers/STM32F2xx_HAL_Driver/Src/stm32f2xx_hal_dma.c ****       }
1262:Drivers/STM32F2xx_HAL_Driver/Src/stm32f2xx_hal_dma.c ****       break;   
1263:Drivers/STM32F2xx_HAL_Driver/Src/stm32f2xx_hal_dma.c ****     default:
1264:Drivers/STM32F2xx_HAL_Driver/Src/stm32f2xx_hal_dma.c ****       break;
1265:Drivers/STM32F2xx_HAL_Driver/Src/stm32f2xx_hal_dma.c ****     }
1266:Drivers/STM32F2xx_HAL_Driver/Src/stm32f2xx_hal_dma.c ****   }
1267:Drivers/STM32F2xx_HAL_Driver/Src/stm32f2xx_hal_dma.c ****   
1268:Drivers/STM32F2xx_HAL_Driver/Src/stm32f2xx_hal_dma.c ****   /* Memory Data size equal to Word */
1269:Drivers/STM32F2xx_HAL_Driver/Src/stm32f2xx_hal_dma.c ****   else
1270:Drivers/STM32F2xx_HAL_Driver/Src/stm32f2xx_hal_dma.c ****   {
1271:Drivers/STM32F2xx_HAL_Driver/Src/stm32f2xx_hal_dma.c ****     switch (tmp)
 249              		.loc 1 1271 5 is_stmt 1 view .LVU69
 250 0032 022B     		cmp	r3, #2
 251 0034 25D9     		bls	.L28
 252 0036 032B     		cmp	r3, #3
 253 0038 25D1     		bne	.L29
1272:Drivers/STM32F2xx_HAL_Driver/Src/stm32f2xx_hal_dma.c ****     {
1273:Drivers/STM32F2xx_HAL_Driver/Src/stm32f2xx_hal_dma.c ****     case DMA_FIFO_THRESHOLD_1QUARTERFULL:
1274:Drivers/STM32F2xx_HAL_Driver/Src/stm32f2xx_hal_dma.c ****     case DMA_FIFO_THRESHOLD_HALFFULL:
1275:Drivers/STM32F2xx_HAL_Driver/Src/stm32f2xx_hal_dma.c ****     case DMA_FIFO_THRESHOLD_3QUARTERSFULL:
1276:Drivers/STM32F2xx_HAL_Driver/Src/stm32f2xx_hal_dma.c ****       status = HAL_ERROR;
ARM GAS  C:\Users\User\AppData\Local\Temp\cc2bsKoj.s 			page 28


1277:Drivers/STM32F2xx_HAL_Driver/Src/stm32f2xx_hal_dma.c ****       break;
1278:Drivers/STM32F2xx_HAL_Driver/Src/stm32f2xx_hal_dma.c ****     case DMA_FIFO_THRESHOLD_FULL:
1279:Drivers/STM32F2xx_HAL_Driver/Src/stm32f2xx_hal_dma.c ****       if ((hdma->Init.MemBurst & DMA_SxCR_MBURST_1) == DMA_SxCR_MBURST_1)
 254              		.loc 1 1279 7 view .LVU70
 255              		.loc 1 1279 22 is_stmt 0 view .LVU71
 256 003a C36A     		ldr	r3, [r0, #44]
 257              	.LVL20:
 258              		.loc 1 1279 10 view .LVU72
 259 003c 13F0807F 		tst	r3, #16777216
 260 0040 23D1     		bne	.L30
1214:Drivers/STM32F2xx_HAL_Driver/Src/stm32f2xx_hal_dma.c ****   uint32_t tmp = hdma->Init.FIFOThreshold;
 261              		.loc 1 1214 21 view .LVU73
 262 0042 0020     		movs	r0, #0
 263              	.LVL21:
1214:Drivers/STM32F2xx_HAL_Driver/Src/stm32f2xx_hal_dma.c ****   uint32_t tmp = hdma->Init.FIFOThreshold;
 264              		.loc 1 1214 21 view .LVU74
 265 0044 7047     		bx	lr
 266              	.LVL22:
 267              	.L31:
1245:Drivers/STM32F2xx_HAL_Driver/Src/stm32f2xx_hal_dma.c ****     {
 268              		.loc 1 1245 5 is_stmt 1 view .LVU75
 269 0046 032B     		cmp	r3, #3
 270 0048 03D8     		bhi	.L18
 271 004a DFE803F0 		tbb	[pc, r3]
 272              	.L20:
 273 004e 14       		.byte	(.L25-.L20)/2
 274 004f 04       		.byte	(.L21-.L20)/2
 275 0050 14       		.byte	(.L25-.L20)/2
 276 0051 0A       		.byte	(.L19-.L20)/2
 277              		.p2align 1
 278              	.L18:
1214:Drivers/STM32F2xx_HAL_Driver/Src/stm32f2xx_hal_dma.c ****   uint32_t tmp = hdma->Init.FIFOThreshold;
 279              		.loc 1 1214 21 is_stmt 0 view .LVU76
 280 0052 0020     		movs	r0, #0
 281              	.LVL23:
1214:Drivers/STM32F2xx_HAL_Driver/Src/stm32f2xx_hal_dma.c ****   uint32_t tmp = hdma->Init.FIFOThreshold;
 282              		.loc 1 1214 21 view .LVU77
 283 0054 7047     		bx	lr
 284              	.LVL24:
 285              	.L21:
1252:Drivers/STM32F2xx_HAL_Driver/Src/stm32f2xx_hal_dma.c ****       {
 286              		.loc 1 1252 7 is_stmt 1 view .LVU78
1252:Drivers/STM32F2xx_HAL_Driver/Src/stm32f2xx_hal_dma.c ****       {
 287              		.loc 1 1252 22 is_stmt 0 view .LVU79
 288 0056 C36A     		ldr	r3, [r0, #44]
 289              	.LVL25:
1252:Drivers/STM32F2xx_HAL_Driver/Src/stm32f2xx_hal_dma.c ****       {
 290              		.loc 1 1252 10 view .LVU80
 291 0058 13F0807F 		tst	r3, #16777216
 292 005c 0DD1     		bne	.L26
1214:Drivers/STM32F2xx_HAL_Driver/Src/stm32f2xx_hal_dma.c ****   uint32_t tmp = hdma->Init.FIFOThreshold;
 293              		.loc 1 1214 21 view .LVU81
 294 005e 0020     		movs	r0, #0
 295              	.LVL26:
1214:Drivers/STM32F2xx_HAL_Driver/Src/stm32f2xx_hal_dma.c ****   uint32_t tmp = hdma->Init.FIFOThreshold;
 296              		.loc 1 1214 21 view .LVU82
 297 0060 7047     		bx	lr
ARM GAS  C:\Users\User\AppData\Local\Temp\cc2bsKoj.s 			page 29


 298              	.LVL27:
 299              	.L19:
1258:Drivers/STM32F2xx_HAL_Driver/Src/stm32f2xx_hal_dma.c ****       {
 300              		.loc 1 1258 7 is_stmt 1 view .LVU83
1258:Drivers/STM32F2xx_HAL_Driver/Src/stm32f2xx_hal_dma.c ****       {
 301              		.loc 1 1258 21 is_stmt 0 view .LVU84
 302 0062 C36A     		ldr	r3, [r0, #44]
 303              	.LVL28:
1258:Drivers/STM32F2xx_HAL_Driver/Src/stm32f2xx_hal_dma.c ****       {
 304              		.loc 1 1258 10 view .LVU85
 305 0064 B3F1C07F 		cmp	r3, #25165824
 306 0068 09D0     		beq	.L27
1214:Drivers/STM32F2xx_HAL_Driver/Src/stm32f2xx_hal_dma.c ****   uint32_t tmp = hdma->Init.FIFOThreshold;
 307              		.loc 1 1214 21 view .LVU86
 308 006a 0020     		movs	r0, #0
 309              	.LVL29:
1214:Drivers/STM32F2xx_HAL_Driver/Src/stm32f2xx_hal_dma.c ****   uint32_t tmp = hdma->Init.FIFOThreshold;
 310              		.loc 1 1214 21 view .LVU87
 311 006c 7047     		bx	lr
 312              	.LVL30:
 313              	.L23:
1226:Drivers/STM32F2xx_HAL_Driver/Src/stm32f2xx_hal_dma.c ****       }
 314              		.loc 1 1226 16 view .LVU88
 315 006e 0120     		movs	r0, #1
 316              	.LVL31:
1226:Drivers/STM32F2xx_HAL_Driver/Src/stm32f2xx_hal_dma.c ****       }
 317              		.loc 1 1226 16 view .LVU89
 318 0070 7047     		bx	lr
 319              	.LVL32:
 320              	.L24:
1232:Drivers/STM32F2xx_HAL_Driver/Src/stm32f2xx_hal_dma.c ****       }
 321              		.loc 1 1232 16 view .LVU90
 322 0072 0120     		movs	r0, #1
 323              	.LVL33:
1232:Drivers/STM32F2xx_HAL_Driver/Src/stm32f2xx_hal_dma.c ****       }
 324              		.loc 1 1232 16 view .LVU91
 325 0074 7047     		bx	lr
 326              	.LVL34:
 327              	.L25:
1249:Drivers/STM32F2xx_HAL_Driver/Src/stm32f2xx_hal_dma.c ****       break;
 328              		.loc 1 1249 14 view .LVU92
 329 0076 0120     		movs	r0, #1
 330              	.LVL35:
1249:Drivers/STM32F2xx_HAL_Driver/Src/stm32f2xx_hal_dma.c ****       break;
 331              		.loc 1 1249 14 view .LVU93
 332 0078 7047     		bx	lr
 333              	.LVL36:
 334              	.L26:
1254:Drivers/STM32F2xx_HAL_Driver/Src/stm32f2xx_hal_dma.c ****       }
 335              		.loc 1 1254 16 view .LVU94
 336 007a 0120     		movs	r0, #1
 337              	.LVL37:
1254:Drivers/STM32F2xx_HAL_Driver/Src/stm32f2xx_hal_dma.c ****       }
 338              		.loc 1 1254 16 view .LVU95
 339 007c 7047     		bx	lr
 340              	.LVL38:
 341              	.L27:
ARM GAS  C:\Users\User\AppData\Local\Temp\cc2bsKoj.s 			page 30


1260:Drivers/STM32F2xx_HAL_Driver/Src/stm32f2xx_hal_dma.c ****       }
 342              		.loc 1 1260 16 view .LVU96
 343 007e 0120     		movs	r0, #1
 344              	.LVL39:
1260:Drivers/STM32F2xx_HAL_Driver/Src/stm32f2xx_hal_dma.c ****       }
 345              		.loc 1 1260 16 view .LVU97
 346 0080 7047     		bx	lr
 347              	.LVL40:
 348              	.L28:
1276:Drivers/STM32F2xx_HAL_Driver/Src/stm32f2xx_hal_dma.c ****       break;
 349              		.loc 1 1276 14 view .LVU98
 350 0082 0120     		movs	r0, #1
 351              	.LVL41:
1276:Drivers/STM32F2xx_HAL_Driver/Src/stm32f2xx_hal_dma.c ****       break;
 352              		.loc 1 1276 14 view .LVU99
 353 0084 7047     		bx	lr
 354              	.LVL42:
 355              	.L29:
1214:Drivers/STM32F2xx_HAL_Driver/Src/stm32f2xx_hal_dma.c ****   uint32_t tmp = hdma->Init.FIFOThreshold;
 356              		.loc 1 1214 21 view .LVU100
 357 0086 0020     		movs	r0, #0
 358              	.LVL43:
1214:Drivers/STM32F2xx_HAL_Driver/Src/stm32f2xx_hal_dma.c ****   uint32_t tmp = hdma->Init.FIFOThreshold;
 359              		.loc 1 1214 21 view .LVU101
 360 0088 7047     		bx	lr
 361              	.LVL44:
 362              	.L30:
1280:Drivers/STM32F2xx_HAL_Driver/Src/stm32f2xx_hal_dma.c ****       {
1281:Drivers/STM32F2xx_HAL_Driver/Src/stm32f2xx_hal_dma.c ****         status = HAL_ERROR;
 363              		.loc 1 1281 16 view .LVU102
 364 008a 0120     		movs	r0, #1
 365              	.LVL45:
1282:Drivers/STM32F2xx_HAL_Driver/Src/stm32f2xx_hal_dma.c ****       }
1283:Drivers/STM32F2xx_HAL_Driver/Src/stm32f2xx_hal_dma.c ****       break;
1284:Drivers/STM32F2xx_HAL_Driver/Src/stm32f2xx_hal_dma.c ****     default:
1285:Drivers/STM32F2xx_HAL_Driver/Src/stm32f2xx_hal_dma.c ****       break;
1286:Drivers/STM32F2xx_HAL_Driver/Src/stm32f2xx_hal_dma.c ****     }
1287:Drivers/STM32F2xx_HAL_Driver/Src/stm32f2xx_hal_dma.c ****   } 
1288:Drivers/STM32F2xx_HAL_Driver/Src/stm32f2xx_hal_dma.c ****   
1289:Drivers/STM32F2xx_HAL_Driver/Src/stm32f2xx_hal_dma.c ****   return status; 
 366              		.loc 1 1289 3 is_stmt 1 view .LVU103
1290:Drivers/STM32F2xx_HAL_Driver/Src/stm32f2xx_hal_dma.c **** }
 367              		.loc 1 1290 1 is_stmt 0 view .LVU104
 368 008c 7047     		bx	lr
 369              		.cfi_endproc
 370              	.LFE86:
 372              		.section	.text.HAL_DMA_Init,"ax",%progbits
 373              		.align	1
 374              		.global	HAL_DMA_Init
 375              		.syntax unified
 376              		.thumb
 377              		.thumb_func
 378              		.fpu softvfp
 380              	HAL_DMA_Init:
 381              	.LVL46:
 382              	.LFB72:
 172:Drivers/STM32F2xx_HAL_Driver/Src/stm32f2xx_hal_dma.c ****   uint32_t tmp = 0U;
ARM GAS  C:\Users\User\AppData\Local\Temp\cc2bsKoj.s 			page 31


 383              		.loc 1 172 1 is_stmt 1 view -0
 384              		.cfi_startproc
 385              		@ args = 0, pretend = 0, frame = 0
 386              		@ frame_needed = 0, uses_anonymous_args = 0
 172:Drivers/STM32F2xx_HAL_Driver/Src/stm32f2xx_hal_dma.c ****   uint32_t tmp = 0U;
 387              		.loc 1 172 1 is_stmt 0 view .LVU106
 388 0000 70B5     		push	{r4, r5, r6, lr}
 389              	.LCFI6:
 390              		.cfi_def_cfa_offset 16
 391              		.cfi_offset 4, -16
 392              		.cfi_offset 5, -12
 393              		.cfi_offset 6, -8
 394              		.cfi_offset 14, -4
 395 0002 0446     		mov	r4, r0
 173:Drivers/STM32F2xx_HAL_Driver/Src/stm32f2xx_hal_dma.c ****   uint32_t tickstart = HAL_GetTick();
 396              		.loc 1 173 3 is_stmt 1 view .LVU107
 397              	.LVL47:
 174:Drivers/STM32F2xx_HAL_Driver/Src/stm32f2xx_hal_dma.c ****   DMA_Base_Registers *regs;
 398              		.loc 1 174 3 view .LVU108
 174:Drivers/STM32F2xx_HAL_Driver/Src/stm32f2xx_hal_dma.c ****   DMA_Base_Registers *regs;
 399              		.loc 1 174 24 is_stmt 0 view .LVU109
 400 0004 FFF7FEFF 		bl	HAL_GetTick
 401              	.LVL48:
 175:Drivers/STM32F2xx_HAL_Driver/Src/stm32f2xx_hal_dma.c **** 
 402              		.loc 1 175 3 is_stmt 1 view .LVU110
 178:Drivers/STM32F2xx_HAL_Driver/Src/stm32f2xx_hal_dma.c ****   {
 403              		.loc 1 178 3 view .LVU111
 178:Drivers/STM32F2xx_HAL_Driver/Src/stm32f2xx_hal_dma.c ****   {
 404              		.loc 1 178 5 is_stmt 0 view .LVU112
 405 0008 002C     		cmp	r4, #0
 406 000a 5BD0     		beq	.L38
 407 000c 0546     		mov	r5, r0
 184:Drivers/STM32F2xx_HAL_Driver/Src/stm32f2xx_hal_dma.c ****   assert_param(IS_DMA_CHANNEL(hdma->Init.Channel));
 408              		.loc 1 184 3 is_stmt 1 view .LVU113
 185:Drivers/STM32F2xx_HAL_Driver/Src/stm32f2xx_hal_dma.c ****   assert_param(IS_DMA_DIRECTION(hdma->Init.Direction));
 409              		.loc 1 185 3 view .LVU114
 186:Drivers/STM32F2xx_HAL_Driver/Src/stm32f2xx_hal_dma.c ****   assert_param(IS_DMA_PERIPHERAL_INC_STATE(hdma->Init.PeriphInc));
 410              		.loc 1 186 3 view .LVU115
 187:Drivers/STM32F2xx_HAL_Driver/Src/stm32f2xx_hal_dma.c ****   assert_param(IS_DMA_MEMORY_INC_STATE(hdma->Init.MemInc));
 411              		.loc 1 187 3 view .LVU116
 188:Drivers/STM32F2xx_HAL_Driver/Src/stm32f2xx_hal_dma.c ****   assert_param(IS_DMA_PERIPHERAL_DATA_SIZE(hdma->Init.PeriphDataAlignment));
 412              		.loc 1 188 3 view .LVU117
 189:Drivers/STM32F2xx_HAL_Driver/Src/stm32f2xx_hal_dma.c ****   assert_param(IS_DMA_MEMORY_DATA_SIZE(hdma->Init.MemDataAlignment));
 413              		.loc 1 189 3 view .LVU118
 190:Drivers/STM32F2xx_HAL_Driver/Src/stm32f2xx_hal_dma.c ****   assert_param(IS_DMA_MODE(hdma->Init.Mode));
 414              		.loc 1 190 3 view .LVU119
 191:Drivers/STM32F2xx_HAL_Driver/Src/stm32f2xx_hal_dma.c ****   assert_param(IS_DMA_PRIORITY(hdma->Init.Priority));
 415              		.loc 1 191 3 view .LVU120
 192:Drivers/STM32F2xx_HAL_Driver/Src/stm32f2xx_hal_dma.c ****   assert_param(IS_DMA_FIFO_MODE_STATE(hdma->Init.FIFOMode));
 416              		.loc 1 192 3 view .LVU121
 193:Drivers/STM32F2xx_HAL_Driver/Src/stm32f2xx_hal_dma.c ****   /* Check the memory burst, peripheral burst and FIFO threshold parameters only
 417              		.loc 1 193 3 view .LVU122
 196:Drivers/STM32F2xx_HAL_Driver/Src/stm32f2xx_hal_dma.c ****   {
 418              		.loc 1 196 3 view .LVU123
 198:Drivers/STM32F2xx_HAL_Driver/Src/stm32f2xx_hal_dma.c ****     assert_param(IS_DMA_MEMORY_BURST(hdma->Init.MemBurst));
 419              		.loc 1 198 5 view .LVU124
 199:Drivers/STM32F2xx_HAL_Driver/Src/stm32f2xx_hal_dma.c ****     assert_param(IS_DMA_PERIPHERAL_BURST(hdma->Init.PeriphBurst));
ARM GAS  C:\Users\User\AppData\Local\Temp\cc2bsKoj.s 			page 32


 420              		.loc 1 199 5 view .LVU125
 200:Drivers/STM32F2xx_HAL_Driver/Src/stm32f2xx_hal_dma.c ****   }
 421              		.loc 1 200 5 view .LVU126
 204:Drivers/STM32F2xx_HAL_Driver/Src/stm32f2xx_hal_dma.c **** 
 422              		.loc 1 204 3 view .LVU127
 204:Drivers/STM32F2xx_HAL_Driver/Src/stm32f2xx_hal_dma.c **** 
 423              		.loc 1 204 3 view .LVU128
 424 000e 0023     		movs	r3, #0
 425 0010 84F83430 		strb	r3, [r4, #52]
 207:Drivers/STM32F2xx_HAL_Driver/Src/stm32f2xx_hal_dma.c ****   
 426              		.loc 1 207 3 view .LVU129
 207:Drivers/STM32F2xx_HAL_Driver/Src/stm32f2xx_hal_dma.c ****   
 427              		.loc 1 207 15 is_stmt 0 view .LVU130
 428 0014 0223     		movs	r3, #2
 429 0016 84F83530 		strb	r3, [r4, #53]
 210:Drivers/STM32F2xx_HAL_Driver/Src/stm32f2xx_hal_dma.c ****   
 430              		.loc 1 210 3 is_stmt 1 view .LVU131
 431 001a 2268     		ldr	r2, [r4]
 432 001c 1368     		ldr	r3, [r2]
 433 001e 23F00103 		bic	r3, r3, #1
 434 0022 1360     		str	r3, [r2]
 213:Drivers/STM32F2xx_HAL_Driver/Src/stm32f2xx_hal_dma.c ****   {
 435              		.loc 1 213 3 view .LVU132
 436              	.LVL49:
 437              	.L34:
 213:Drivers/STM32F2xx_HAL_Driver/Src/stm32f2xx_hal_dma.c ****   {
 438              		.loc 1 213 14 is_stmt 0 view .LVU133
 439 0024 2368     		ldr	r3, [r4]
 213:Drivers/STM32F2xx_HAL_Driver/Src/stm32f2xx_hal_dma.c ****   {
 440              		.loc 1 213 24 view .LVU134
 441 0026 1A68     		ldr	r2, [r3]
 213:Drivers/STM32F2xx_HAL_Driver/Src/stm32f2xx_hal_dma.c ****   {
 442              		.loc 1 213 8 view .LVU135
 443 0028 12F0010F 		tst	r2, #1
 444 002c 0AD0     		beq	.L40
 216:Drivers/STM32F2xx_HAL_Driver/Src/stm32f2xx_hal_dma.c ****     {
 445              		.loc 1 216 5 is_stmt 1 view .LVU136
 216:Drivers/STM32F2xx_HAL_Driver/Src/stm32f2xx_hal_dma.c ****     {
 446              		.loc 1 216 9 is_stmt 0 view .LVU137
 447 002e FFF7FEFF 		bl	HAL_GetTick
 448              	.LVL50:
 216:Drivers/STM32F2xx_HAL_Driver/Src/stm32f2xx_hal_dma.c ****     {
 449              		.loc 1 216 23 view .LVU138
 450 0032 401B     		subs	r0, r0, r5
 216:Drivers/STM32F2xx_HAL_Driver/Src/stm32f2xx_hal_dma.c ****     {
 451              		.loc 1 216 7 view .LVU139
 452 0034 0528     		cmp	r0, #5
 453 0036 F5D9     		bls	.L34
 219:Drivers/STM32F2xx_HAL_Driver/Src/stm32f2xx_hal_dma.c ****       
 454              		.loc 1 219 7 is_stmt 1 view .LVU140
 219:Drivers/STM32F2xx_HAL_Driver/Src/stm32f2xx_hal_dma.c ****       
 455              		.loc 1 219 23 is_stmt 0 view .LVU141
 456 0038 2023     		movs	r3, #32
 457 003a 6365     		str	r3, [r4, #84]
 222:Drivers/STM32F2xx_HAL_Driver/Src/stm32f2xx_hal_dma.c ****       
 458              		.loc 1 222 7 is_stmt 1 view .LVU142
 222:Drivers/STM32F2xx_HAL_Driver/Src/stm32f2xx_hal_dma.c ****       
ARM GAS  C:\Users\User\AppData\Local\Temp\cc2bsKoj.s 			page 33


 459              		.loc 1 222 19 is_stmt 0 view .LVU143
 460 003c 0320     		movs	r0, #3
 461 003e 84F83500 		strb	r0, [r4, #53]
 224:Drivers/STM32F2xx_HAL_Driver/Src/stm32f2xx_hal_dma.c ****     }
 462              		.loc 1 224 7 is_stmt 1 view .LVU144
 463              	.LVL51:
 464              	.L33:
 302:Drivers/STM32F2xx_HAL_Driver/Src/stm32f2xx_hal_dma.c **** 
 465              		.loc 1 302 1 is_stmt 0 view .LVU145
 466 0042 70BD     		pop	{r4, r5, r6, pc}
 467              	.LVL52:
 468              	.L40:
 229:Drivers/STM32F2xx_HAL_Driver/Src/stm32f2xx_hal_dma.c **** 
 469              		.loc 1 229 3 is_stmt 1 view .LVU146
 229:Drivers/STM32F2xx_HAL_Driver/Src/stm32f2xx_hal_dma.c **** 
 470              		.loc 1 229 7 is_stmt 0 view .LVU147
 471 0044 1A68     		ldr	r2, [r3]
 472              	.LVL53:
 232:Drivers/STM32F2xx_HAL_Driver/Src/stm32f2xx_hal_dma.c ****                       DMA_SxCR_PL    | DMA_SxCR_MSIZE  | DMA_SxCR_PSIZE  | \
 473              		.loc 1 232 3 is_stmt 1 view .LVU148
 232:Drivers/STM32F2xx_HAL_Driver/Src/stm32f2xx_hal_dma.c ****                       DMA_SxCR_PL    | DMA_SxCR_MSIZE  | DMA_SxCR_PSIZE  | \
 474              		.loc 1 232 7 is_stmt 0 view .LVU149
 475 0046 2048     		ldr	r0, .L43
 476 0048 1040     		ands	r0, r0, r2
 477              	.LVL54:
 238:Drivers/STM32F2xx_HAL_Driver/Src/stm32f2xx_hal_dma.c ****           hdma->Init.PeriphInc           | hdma->Init.MemInc           |
 478              		.loc 1 238 3 is_stmt 1 view .LVU150
 238:Drivers/STM32F2xx_HAL_Driver/Src/stm32f2xx_hal_dma.c ****           hdma->Init.PeriphInc           | hdma->Init.MemInc           |
 479              		.loc 1 238 21 is_stmt 0 view .LVU151
 480 004a 6168     		ldr	r1, [r4, #4]
 238:Drivers/STM32F2xx_HAL_Driver/Src/stm32f2xx_hal_dma.c ****           hdma->Init.PeriphInc           | hdma->Init.MemInc           |
 481              		.loc 1 238 54 view .LVU152
 482 004c A268     		ldr	r2, [r4, #8]
 238:Drivers/STM32F2xx_HAL_Driver/Src/stm32f2xx_hal_dma.c ****           hdma->Init.PeriphInc           | hdma->Init.MemInc           |
 483              		.loc 1 238 42 view .LVU153
 484 004e 0A43     		orrs	r2, r2, r1
 239:Drivers/STM32F2xx_HAL_Driver/Src/stm32f2xx_hal_dma.c ****           hdma->Init.PeriphDataAlignment | hdma->Init.MemDataAlignment |
 485              		.loc 1 239 21 view .LVU154
 486 0050 E168     		ldr	r1, [r4, #12]
 238:Drivers/STM32F2xx_HAL_Driver/Src/stm32f2xx_hal_dma.c ****           hdma->Init.PeriphInc           | hdma->Init.MemInc           |
 487              		.loc 1 238 72 view .LVU155
 488 0052 0A43     		orrs	r2, r2, r1
 239:Drivers/STM32F2xx_HAL_Driver/Src/stm32f2xx_hal_dma.c ****           hdma->Init.PeriphDataAlignment | hdma->Init.MemDataAlignment |
 489              		.loc 1 239 54 view .LVU156
 490 0054 2169     		ldr	r1, [r4, #16]
 239:Drivers/STM32F2xx_HAL_Driver/Src/stm32f2xx_hal_dma.c ****           hdma->Init.PeriphDataAlignment | hdma->Init.MemDataAlignment |
 491              		.loc 1 239 42 view .LVU157
 492 0056 0A43     		orrs	r2, r2, r1
 240:Drivers/STM32F2xx_HAL_Driver/Src/stm32f2xx_hal_dma.c ****           hdma->Init.Mode                | hdma->Init.Priority;
 493              		.loc 1 240 21 view .LVU158
 494 0058 6169     		ldr	r1, [r4, #20]
 239:Drivers/STM32F2xx_HAL_Driver/Src/stm32f2xx_hal_dma.c ****           hdma->Init.PeriphDataAlignment | hdma->Init.MemDataAlignment |
 495              		.loc 1 239 72 view .LVU159
 496 005a 0A43     		orrs	r2, r2, r1
 240:Drivers/STM32F2xx_HAL_Driver/Src/stm32f2xx_hal_dma.c ****           hdma->Init.Mode                | hdma->Init.Priority;
 497              		.loc 1 240 54 view .LVU160
 498 005c A169     		ldr	r1, [r4, #24]
ARM GAS  C:\Users\User\AppData\Local\Temp\cc2bsKoj.s 			page 34


 240:Drivers/STM32F2xx_HAL_Driver/Src/stm32f2xx_hal_dma.c ****           hdma->Init.Mode                | hdma->Init.Priority;
 499              		.loc 1 240 42 view .LVU161
 500 005e 0A43     		orrs	r2, r2, r1
 241:Drivers/STM32F2xx_HAL_Driver/Src/stm32f2xx_hal_dma.c **** 
 501              		.loc 1 241 21 view .LVU162
 502 0060 E169     		ldr	r1, [r4, #28]
 240:Drivers/STM32F2xx_HAL_Driver/Src/stm32f2xx_hal_dma.c ****           hdma->Init.Mode                | hdma->Init.Priority;
 503              		.loc 1 240 72 view .LVU163
 504 0062 0A43     		orrs	r2, r2, r1
 241:Drivers/STM32F2xx_HAL_Driver/Src/stm32f2xx_hal_dma.c **** 
 505              		.loc 1 241 54 view .LVU164
 506 0064 216A     		ldr	r1, [r4, #32]
 241:Drivers/STM32F2xx_HAL_Driver/Src/stm32f2xx_hal_dma.c **** 
 507              		.loc 1 241 42 view .LVU165
 508 0066 0A43     		orrs	r2, r2, r1
 238:Drivers/STM32F2xx_HAL_Driver/Src/stm32f2xx_hal_dma.c ****           hdma->Init.PeriphInc           | hdma->Init.MemInc           |
 509              		.loc 1 238 7 view .LVU166
 510 0068 0243     		orrs	r2, r2, r0
 511              	.LVL55:
 244:Drivers/STM32F2xx_HAL_Driver/Src/stm32f2xx_hal_dma.c ****   {
 512              		.loc 1 244 3 is_stmt 1 view .LVU167
 244:Drivers/STM32F2xx_HAL_Driver/Src/stm32f2xx_hal_dma.c ****   {
 513              		.loc 1 244 16 is_stmt 0 view .LVU168
 514 006a 616A     		ldr	r1, [r4, #36]
 244:Drivers/STM32F2xx_HAL_Driver/Src/stm32f2xx_hal_dma.c ****   {
 515              		.loc 1 244 5 view .LVU169
 516 006c 0429     		cmp	r1, #4
 517 006e 1ED0     		beq	.L41
 518              	.L36:
 251:Drivers/STM32F2xx_HAL_Driver/Src/stm32f2xx_hal_dma.c **** 
 519              		.loc 1 251 3 is_stmt 1 view .LVU170
 251:Drivers/STM32F2xx_HAL_Driver/Src/stm32f2xx_hal_dma.c **** 
 520              		.loc 1 251 22 is_stmt 0 view .LVU171
 521 0070 1A60     		str	r2, [r3]
 254:Drivers/STM32F2xx_HAL_Driver/Src/stm32f2xx_hal_dma.c **** 
 522              		.loc 1 254 3 is_stmt 1 view .LVU172
 254:Drivers/STM32F2xx_HAL_Driver/Src/stm32f2xx_hal_dma.c **** 
 523              		.loc 1 254 13 is_stmt 0 view .LVU173
 524 0072 2668     		ldr	r6, [r4]
 254:Drivers/STM32F2xx_HAL_Driver/Src/stm32f2xx_hal_dma.c **** 
 525              		.loc 1 254 7 view .LVU174
 526 0074 7569     		ldr	r5, [r6, #20]
 527              	.LVL56:
 257:Drivers/STM32F2xx_HAL_Driver/Src/stm32f2xx_hal_dma.c **** 
 528              		.loc 1 257 3 is_stmt 1 view .LVU175
 257:Drivers/STM32F2xx_HAL_Driver/Src/stm32f2xx_hal_dma.c **** 
 529              		.loc 1 257 7 is_stmt 0 view .LVU176
 530 0076 25F00705 		bic	r5, r5, #7
 531              	.LVL57:
 260:Drivers/STM32F2xx_HAL_Driver/Src/stm32f2xx_hal_dma.c **** 
 532              		.loc 1 260 3 is_stmt 1 view .LVU177
 260:Drivers/STM32F2xx_HAL_Driver/Src/stm32f2xx_hal_dma.c **** 
 533              		.loc 1 260 20 is_stmt 0 view .LVU178
 534 007a 636A     		ldr	r3, [r4, #36]
 260:Drivers/STM32F2xx_HAL_Driver/Src/stm32f2xx_hal_dma.c **** 
 535              		.loc 1 260 7 view .LVU179
 536 007c 1D43     		orrs	r5, r5, r3
ARM GAS  C:\Users\User\AppData\Local\Temp\cc2bsKoj.s 			page 35


 537              	.LVL58:
 263:Drivers/STM32F2xx_HAL_Driver/Src/stm32f2xx_hal_dma.c ****   {
 538              		.loc 1 263 3 is_stmt 1 view .LVU180
 263:Drivers/STM32F2xx_HAL_Driver/Src/stm32f2xx_hal_dma.c ****   {
 539              		.loc 1 263 5 is_stmt 0 view .LVU181
 540 007e 042B     		cmp	r3, #4
 541 0080 07D1     		bne	.L37
 266:Drivers/STM32F2xx_HAL_Driver/Src/stm32f2xx_hal_dma.c ****     
 542              		.loc 1 266 5 is_stmt 1 view .LVU182
 266:Drivers/STM32F2xx_HAL_Driver/Src/stm32f2xx_hal_dma.c ****     
 543              		.loc 1 266 22 is_stmt 0 view .LVU183
 544 0082 A36A     		ldr	r3, [r4, #40]
 266:Drivers/STM32F2xx_HAL_Driver/Src/stm32f2xx_hal_dma.c ****     
 545              		.loc 1 266 9 view .LVU184
 546 0084 1D43     		orrs	r5, r5, r3
 547              	.LVL59:
 270:Drivers/STM32F2xx_HAL_Driver/Src/stm32f2xx_hal_dma.c ****     {
 548              		.loc 1 270 5 is_stmt 1 view .LVU185
 270:Drivers/STM32F2xx_HAL_Driver/Src/stm32f2xx_hal_dma.c ****     {
 549              		.loc 1 270 19 is_stmt 0 view .LVU186
 550 0086 E36A     		ldr	r3, [r4, #44]
 270:Drivers/STM32F2xx_HAL_Driver/Src/stm32f2xx_hal_dma.c ****     {
 551              		.loc 1 270 8 view .LVU187
 552 0088 1BB1     		cbz	r3, .L37
 272:Drivers/STM32F2xx_HAL_Driver/Src/stm32f2xx_hal_dma.c ****       {
 553              		.loc 1 272 7 is_stmt 1 view .LVU188
 272:Drivers/STM32F2xx_HAL_Driver/Src/stm32f2xx_hal_dma.c ****       {
 554              		.loc 1 272 11 is_stmt 0 view .LVU189
 555 008a 2046     		mov	r0, r4
 556 008c FFF7FEFF 		bl	DMA_CheckFifoParam
 557              	.LVL60:
 272:Drivers/STM32F2xx_HAL_Driver/Src/stm32f2xx_hal_dma.c ****       {
 558              		.loc 1 272 10 view .LVU190
 559 0090 90B9     		cbnz	r0, .L42
 560              	.L37:
 286:Drivers/STM32F2xx_HAL_Driver/Src/stm32f2xx_hal_dma.c **** 
 561              		.loc 1 286 3 is_stmt 1 view .LVU191
 286:Drivers/STM32F2xx_HAL_Driver/Src/stm32f2xx_hal_dma.c **** 
 562              		.loc 1 286 23 is_stmt 0 view .LVU192
 563 0092 7561     		str	r5, [r6, #20]
 290:Drivers/STM32F2xx_HAL_Driver/Src/stm32f2xx_hal_dma.c ****   
 564              		.loc 1 290 3 is_stmt 1 view .LVU193
 290:Drivers/STM32F2xx_HAL_Driver/Src/stm32f2xx_hal_dma.c ****   
 565              		.loc 1 290 32 is_stmt 0 view .LVU194
 566 0094 2046     		mov	r0, r4
 567 0096 FFF7FEFF 		bl	DMA_CalcBaseAndBitshift
 568              	.LVL61:
 293:Drivers/STM32F2xx_HAL_Driver/Src/stm32f2xx_hal_dma.c **** 
 569              		.loc 1 293 3 is_stmt 1 view .LVU195
 293:Drivers/STM32F2xx_HAL_Driver/Src/stm32f2xx_hal_dma.c **** 
 570              		.loc 1 293 29 is_stmt 0 view .LVU196
 571 009a E26D     		ldr	r2, [r4, #92]
 293:Drivers/STM32F2xx_HAL_Driver/Src/stm32f2xx_hal_dma.c **** 
 572              		.loc 1 293 22 view .LVU197
 573 009c 3F23     		movs	r3, #63
 574 009e 9340     		lsls	r3, r3, r2
 293:Drivers/STM32F2xx_HAL_Driver/Src/stm32f2xx_hal_dma.c **** 
ARM GAS  C:\Users\User\AppData\Local\Temp\cc2bsKoj.s 			page 36


 575              		.loc 1 293 14 view .LVU198
 576 00a0 8360     		str	r3, [r0, #8]
 296:Drivers/STM32F2xx_HAL_Driver/Src/stm32f2xx_hal_dma.c ****                                                                                      
 577              		.loc 1 296 3 is_stmt 1 view .LVU199
 296:Drivers/STM32F2xx_HAL_Driver/Src/stm32f2xx_hal_dma.c ****                                                                                      
 578              		.loc 1 296 19 is_stmt 0 view .LVU200
 579 00a2 0020     		movs	r0, #0
 580              	.LVL62:
 296:Drivers/STM32F2xx_HAL_Driver/Src/stm32f2xx_hal_dma.c ****                                                                                      
 581              		.loc 1 296 19 view .LVU201
 582 00a4 6065     		str	r0, [r4, #84]
 299:Drivers/STM32F2xx_HAL_Driver/Src/stm32f2xx_hal_dma.c **** 
 583              		.loc 1 299 3 is_stmt 1 view .LVU202
 299:Drivers/STM32F2xx_HAL_Driver/Src/stm32f2xx_hal_dma.c **** 
 584              		.loc 1 299 15 is_stmt 0 view .LVU203
 585 00a6 0123     		movs	r3, #1
 586 00a8 84F83530 		strb	r3, [r4, #53]
 301:Drivers/STM32F2xx_HAL_Driver/Src/stm32f2xx_hal_dma.c **** }
 587              		.loc 1 301 3 is_stmt 1 view .LVU204
 301:Drivers/STM32F2xx_HAL_Driver/Src/stm32f2xx_hal_dma.c **** }
 588              		.loc 1 301 10 is_stmt 0 view .LVU205
 589 00ac C9E7     		b	.L33
 590              	.LVL63:
 591              	.L41:
 247:Drivers/STM32F2xx_HAL_Driver/Src/stm32f2xx_hal_dma.c ****   }
 592              		.loc 1 247 5 is_stmt 1 view .LVU206
 247:Drivers/STM32F2xx_HAL_Driver/Src/stm32f2xx_hal_dma.c ****   }
 593              		.loc 1 247 23 is_stmt 0 view .LVU207
 594 00ae E16A     		ldr	r1, [r4, #44]
 247:Drivers/STM32F2xx_HAL_Driver/Src/stm32f2xx_hal_dma.c ****   }
 595              		.loc 1 247 45 view .LVU208
 596 00b0 206B     		ldr	r0, [r4, #48]
 247:Drivers/STM32F2xx_HAL_Driver/Src/stm32f2xx_hal_dma.c ****   }
 597              		.loc 1 247 33 view .LVU209
 598 00b2 0143     		orrs	r1, r1, r0
 247:Drivers/STM32F2xx_HAL_Driver/Src/stm32f2xx_hal_dma.c ****   }
 599              		.loc 1 247 9 view .LVU210
 600 00b4 0A43     		orrs	r2, r2, r1
 601              	.LVL64:
 247:Drivers/STM32F2xx_HAL_Driver/Src/stm32f2xx_hal_dma.c ****   }
 602              		.loc 1 247 9 view .LVU211
 603 00b6 DBE7     		b	.L36
 604              	.LVL65:
 605              	.L42:
 275:Drivers/STM32F2xx_HAL_Driver/Src/stm32f2xx_hal_dma.c ****         
 606              		.loc 1 275 9 is_stmt 1 view .LVU212
 275:Drivers/STM32F2xx_HAL_Driver/Src/stm32f2xx_hal_dma.c ****         
 607              		.loc 1 275 25 is_stmt 0 view .LVU213
 608 00b8 4023     		movs	r3, #64
 609 00ba 6365     		str	r3, [r4, #84]
 278:Drivers/STM32F2xx_HAL_Driver/Src/stm32f2xx_hal_dma.c ****         
 610              		.loc 1 278 9 is_stmt 1 view .LVU214
 278:Drivers/STM32F2xx_HAL_Driver/Src/stm32f2xx_hal_dma.c ****         
 611              		.loc 1 278 21 is_stmt 0 view .LVU215
 612 00bc 0120     		movs	r0, #1
 613 00be 84F83500 		strb	r0, [r4, #53]
 280:Drivers/STM32F2xx_HAL_Driver/Src/stm32f2xx_hal_dma.c ****       }
ARM GAS  C:\Users\User\AppData\Local\Temp\cc2bsKoj.s 			page 37


 614              		.loc 1 280 9 is_stmt 1 view .LVU216
 280:Drivers/STM32F2xx_HAL_Driver/Src/stm32f2xx_hal_dma.c ****       }
 615              		.loc 1 280 16 is_stmt 0 view .LVU217
 616 00c2 BEE7     		b	.L33
 617              	.LVL66:
 618              	.L38:
 180:Drivers/STM32F2xx_HAL_Driver/Src/stm32f2xx_hal_dma.c ****   }
 619              		.loc 1 180 12 view .LVU218
 620 00c4 0120     		movs	r0, #1
 621              	.LVL67:
 180:Drivers/STM32F2xx_HAL_Driver/Src/stm32f2xx_hal_dma.c ****   }
 622              		.loc 1 180 12 view .LVU219
 623 00c6 BCE7     		b	.L33
 624              	.L44:
 625              		.align	2
 626              	.L43:
 627 00c8 3F8010F0 		.word	-267354049
 628              		.cfi_endproc
 629              	.LFE72:
 631              		.section	.text.HAL_DMA_DeInit,"ax",%progbits
 632              		.align	1
 633              		.global	HAL_DMA_DeInit
 634              		.syntax unified
 635              		.thumb
 636              		.thumb_func
 637              		.fpu softvfp
 639              	HAL_DMA_DeInit:
 640              	.LVL68:
 641              	.LFB73:
 311:Drivers/STM32F2xx_HAL_Driver/Src/stm32f2xx_hal_dma.c ****   DMA_Base_Registers *regs;
 642              		.loc 1 311 1 is_stmt 1 view -0
 643              		.cfi_startproc
 644              		@ args = 0, pretend = 0, frame = 0
 645              		@ frame_needed = 0, uses_anonymous_args = 0
 312:Drivers/STM32F2xx_HAL_Driver/Src/stm32f2xx_hal_dma.c **** 
 646              		.loc 1 312 3 view .LVU221
 315:Drivers/STM32F2xx_HAL_Driver/Src/stm32f2xx_hal_dma.c ****   {
 647              		.loc 1 315 3 view .LVU222
 315:Drivers/STM32F2xx_HAL_Driver/Src/stm32f2xx_hal_dma.c ****   {
 648              		.loc 1 315 5 is_stmt 0 view .LVU223
 649 0000 0028     		cmp	r0, #0
 650 0002 2CD0     		beq	.L47
 311:Drivers/STM32F2xx_HAL_Driver/Src/stm32f2xx_hal_dma.c ****   DMA_Base_Registers *regs;
 651              		.loc 1 311 1 view .LVU224
 652 0004 38B5     		push	{r3, r4, r5, lr}
 653              	.LCFI7:
 654              		.cfi_def_cfa_offset 16
 655              		.cfi_offset 3, -16
 656              		.cfi_offset 4, -12
 657              		.cfi_offset 5, -8
 658              		.cfi_offset 14, -4
 659 0006 0446     		mov	r4, r0
 321:Drivers/STM32F2xx_HAL_Driver/Src/stm32f2xx_hal_dma.c ****   {
 660              		.loc 1 321 3 is_stmt 1 view .LVU225
 321:Drivers/STM32F2xx_HAL_Driver/Src/stm32f2xx_hal_dma.c ****   {
 661              		.loc 1 321 10 is_stmt 0 view .LVU226
 662 0008 90F83530 		ldrb	r3, [r0, #53]	@ zero_extendqisi2
ARM GAS  C:\Users\User\AppData\Local\Temp\cc2bsKoj.s 			page 38


 663 000c DBB2     		uxtb	r3, r3
 321:Drivers/STM32F2xx_HAL_Driver/Src/stm32f2xx_hal_dma.c ****   {
 664              		.loc 1 321 5 view .LVU227
 665 000e 022B     		cmp	r3, #2
 666 0010 27D0     		beq	.L48
 328:Drivers/STM32F2xx_HAL_Driver/Src/stm32f2xx_hal_dma.c **** 
 667              		.loc 1 328 3 is_stmt 1 view .LVU228
 331:Drivers/STM32F2xx_HAL_Driver/Src/stm32f2xx_hal_dma.c **** 
 668              		.loc 1 331 3 view .LVU229
 669 0012 0268     		ldr	r2, [r0]
 670 0014 1368     		ldr	r3, [r2]
 671 0016 23F00103 		bic	r3, r3, #1
 672 001a 1360     		str	r3, [r2]
 334:Drivers/STM32F2xx_HAL_Driver/Src/stm32f2xx_hal_dma.c **** 
 673              		.loc 1 334 3 view .LVU230
 334:Drivers/STM32F2xx_HAL_Driver/Src/stm32f2xx_hal_dma.c **** 
 674              		.loc 1 334 7 is_stmt 0 view .LVU231
 675 001c 0368     		ldr	r3, [r0]
 334:Drivers/STM32F2xx_HAL_Driver/Src/stm32f2xx_hal_dma.c **** 
 676              		.loc 1 334 24 view .LVU232
 677 001e 0025     		movs	r5, #0
 678 0020 1D60     		str	r5, [r3]
 337:Drivers/STM32F2xx_HAL_Driver/Src/stm32f2xx_hal_dma.c **** 
 679              		.loc 1 337 3 is_stmt 1 view .LVU233
 337:Drivers/STM32F2xx_HAL_Driver/Src/stm32f2xx_hal_dma.c **** 
 680              		.loc 1 337 7 is_stmt 0 view .LVU234
 681 0022 0368     		ldr	r3, [r0]
 337:Drivers/STM32F2xx_HAL_Driver/Src/stm32f2xx_hal_dma.c **** 
 682              		.loc 1 337 24 view .LVU235
 683 0024 5D60     		str	r5, [r3, #4]
 340:Drivers/STM32F2xx_HAL_Driver/Src/stm32f2xx_hal_dma.c **** 
 684              		.loc 1 340 3 is_stmt 1 view .LVU236
 340:Drivers/STM32F2xx_HAL_Driver/Src/stm32f2xx_hal_dma.c **** 
 685              		.loc 1 340 7 is_stmt 0 view .LVU237
 686 0026 0368     		ldr	r3, [r0]
 340:Drivers/STM32F2xx_HAL_Driver/Src/stm32f2xx_hal_dma.c **** 
 687              		.loc 1 340 24 view .LVU238
 688 0028 9D60     		str	r5, [r3, #8]
 343:Drivers/STM32F2xx_HAL_Driver/Src/stm32f2xx_hal_dma.c ****   
 689              		.loc 1 343 3 is_stmt 1 view .LVU239
 343:Drivers/STM32F2xx_HAL_Driver/Src/stm32f2xx_hal_dma.c ****   
 690              		.loc 1 343 7 is_stmt 0 view .LVU240
 691 002a 0368     		ldr	r3, [r0]
 343:Drivers/STM32F2xx_HAL_Driver/Src/stm32f2xx_hal_dma.c ****   
 692              		.loc 1 343 24 view .LVU241
 693 002c DD60     		str	r5, [r3, #12]
 346:Drivers/STM32F2xx_HAL_Driver/Src/stm32f2xx_hal_dma.c ****   
 694              		.loc 1 346 3 is_stmt 1 view .LVU242
 346:Drivers/STM32F2xx_HAL_Driver/Src/stm32f2xx_hal_dma.c ****   
 695              		.loc 1 346 7 is_stmt 0 view .LVU243
 696 002e 0368     		ldr	r3, [r0]
 346:Drivers/STM32F2xx_HAL_Driver/Src/stm32f2xx_hal_dma.c ****   
 697              		.loc 1 346 24 view .LVU244
 698 0030 1D61     		str	r5, [r3, #16]
 349:Drivers/STM32F2xx_HAL_Driver/Src/stm32f2xx_hal_dma.c ****   
 699              		.loc 1 349 3 is_stmt 1 view .LVU245
 349:Drivers/STM32F2xx_HAL_Driver/Src/stm32f2xx_hal_dma.c ****   
ARM GAS  C:\Users\User\AppData\Local\Temp\cc2bsKoj.s 			page 39


 700              		.loc 1 349 7 is_stmt 0 view .LVU246
 701 0032 0368     		ldr	r3, [r0]
 349:Drivers/STM32F2xx_HAL_Driver/Src/stm32f2xx_hal_dma.c ****   
 702              		.loc 1 349 24 view .LVU247
 703 0034 2122     		movs	r2, #33
 704 0036 5A61     		str	r2, [r3, #20]
 352:Drivers/STM32F2xx_HAL_Driver/Src/stm32f2xx_hal_dma.c ****   
 705              		.loc 1 352 3 is_stmt 1 view .LVU248
 352:Drivers/STM32F2xx_HAL_Driver/Src/stm32f2xx_hal_dma.c ****   
 706              		.loc 1 352 32 is_stmt 0 view .LVU249
 707 0038 FFF7FEFF 		bl	DMA_CalcBaseAndBitshift
 708              	.LVL69:
 355:Drivers/STM32F2xx_HAL_Driver/Src/stm32f2xx_hal_dma.c ****   hdma->XferHalfCpltCallback = NULL;
 709              		.loc 1 355 3 is_stmt 1 view .LVU250
 355:Drivers/STM32F2xx_HAL_Driver/Src/stm32f2xx_hal_dma.c ****   hdma->XferHalfCpltCallback = NULL;
 710              		.loc 1 355 26 is_stmt 0 view .LVU251
 711 003c E563     		str	r5, [r4, #60]
 356:Drivers/STM32F2xx_HAL_Driver/Src/stm32f2xx_hal_dma.c ****   hdma->XferM1CpltCallback = NULL;
 712              		.loc 1 356 3 is_stmt 1 view .LVU252
 356:Drivers/STM32F2xx_HAL_Driver/Src/stm32f2xx_hal_dma.c ****   hdma->XferM1CpltCallback = NULL;
 713              		.loc 1 356 30 is_stmt 0 view .LVU253
 714 003e 2564     		str	r5, [r4, #64]
 357:Drivers/STM32F2xx_HAL_Driver/Src/stm32f2xx_hal_dma.c ****   hdma->XferM1HalfCpltCallback = NULL;
 715              		.loc 1 357 3 is_stmt 1 view .LVU254
 357:Drivers/STM32F2xx_HAL_Driver/Src/stm32f2xx_hal_dma.c ****   hdma->XferM1HalfCpltCallback = NULL;
 716              		.loc 1 357 28 is_stmt 0 view .LVU255
 717 0040 6564     		str	r5, [r4, #68]
 358:Drivers/STM32F2xx_HAL_Driver/Src/stm32f2xx_hal_dma.c ****   hdma->XferErrorCallback = NULL;
 718              		.loc 1 358 3 is_stmt 1 view .LVU256
 358:Drivers/STM32F2xx_HAL_Driver/Src/stm32f2xx_hal_dma.c ****   hdma->XferErrorCallback = NULL;
 719              		.loc 1 358 32 is_stmt 0 view .LVU257
 720 0042 A564     		str	r5, [r4, #72]
 359:Drivers/STM32F2xx_HAL_Driver/Src/stm32f2xx_hal_dma.c ****   hdma->XferAbortCallback = NULL;
 721              		.loc 1 359 3 is_stmt 1 view .LVU258
 359:Drivers/STM32F2xx_HAL_Driver/Src/stm32f2xx_hal_dma.c ****   hdma->XferAbortCallback = NULL;
 722              		.loc 1 359 27 is_stmt 0 view .LVU259
 723 0044 E564     		str	r5, [r4, #76]
 360:Drivers/STM32F2xx_HAL_Driver/Src/stm32f2xx_hal_dma.c **** 
 724              		.loc 1 360 3 is_stmt 1 view .LVU260
 360:Drivers/STM32F2xx_HAL_Driver/Src/stm32f2xx_hal_dma.c **** 
 725              		.loc 1 360 27 is_stmt 0 view .LVU261
 726 0046 2565     		str	r5, [r4, #80]
 363:Drivers/STM32F2xx_HAL_Driver/Src/stm32f2xx_hal_dma.c **** 
 727              		.loc 1 363 3 is_stmt 1 view .LVU262
 363:Drivers/STM32F2xx_HAL_Driver/Src/stm32f2xx_hal_dma.c **** 
 728              		.loc 1 363 29 is_stmt 0 view .LVU263
 729 0048 E26D     		ldr	r2, [r4, #92]
 363:Drivers/STM32F2xx_HAL_Driver/Src/stm32f2xx_hal_dma.c **** 
 730              		.loc 1 363 22 view .LVU264
 731 004a 3F23     		movs	r3, #63
 732 004c 9340     		lsls	r3, r3, r2
 363:Drivers/STM32F2xx_HAL_Driver/Src/stm32f2xx_hal_dma.c **** 
 733              		.loc 1 363 14 view .LVU265
 734 004e 8360     		str	r3, [r0, #8]
 366:Drivers/STM32F2xx_HAL_Driver/Src/stm32f2xx_hal_dma.c **** 
 735              		.loc 1 366 3 is_stmt 1 view .LVU266
 366:Drivers/STM32F2xx_HAL_Driver/Src/stm32f2xx_hal_dma.c **** 
ARM GAS  C:\Users\User\AppData\Local\Temp\cc2bsKoj.s 			page 40


 736              		.loc 1 366 19 is_stmt 0 view .LVU267
 737 0050 6565     		str	r5, [r4, #84]
 369:Drivers/STM32F2xx_HAL_Driver/Src/stm32f2xx_hal_dma.c **** 
 738              		.loc 1 369 3 is_stmt 1 view .LVU268
 369:Drivers/STM32F2xx_HAL_Driver/Src/stm32f2xx_hal_dma.c **** 
 739              		.loc 1 369 15 is_stmt 0 view .LVU269
 740 0052 84F83550 		strb	r5, [r4, #53]
 372:Drivers/STM32F2xx_HAL_Driver/Src/stm32f2xx_hal_dma.c **** 
 741              		.loc 1 372 3 is_stmt 1 view .LVU270
 372:Drivers/STM32F2xx_HAL_Driver/Src/stm32f2xx_hal_dma.c **** 
 742              		.loc 1 372 3 view .LVU271
 743 0056 84F83450 		strb	r5, [r4, #52]
 374:Drivers/STM32F2xx_HAL_Driver/Src/stm32f2xx_hal_dma.c **** }
 744              		.loc 1 374 3 view .LVU272
 374:Drivers/STM32F2xx_HAL_Driver/Src/stm32f2xx_hal_dma.c **** }
 745              		.loc 1 374 10 is_stmt 0 view .LVU273
 746 005a 2846     		mov	r0, r5
 747              	.LVL70:
 748              	.L46:
 375:Drivers/STM32F2xx_HAL_Driver/Src/stm32f2xx_hal_dma.c **** 
 749              		.loc 1 375 1 view .LVU274
 750 005c 38BD     		pop	{r3, r4, r5, pc}
 751              	.LVL71:
 752              	.L47:
 753              	.LCFI8:
 754              		.cfi_def_cfa_offset 0
 755              		.cfi_restore 3
 756              		.cfi_restore 4
 757              		.cfi_restore 5
 758              		.cfi_restore 14
 317:Drivers/STM32F2xx_HAL_Driver/Src/stm32f2xx_hal_dma.c ****   }
 759              		.loc 1 317 12 view .LVU275
 760 005e 0120     		movs	r0, #1
 761              	.LVL72:
 375:Drivers/STM32F2xx_HAL_Driver/Src/stm32f2xx_hal_dma.c **** 
 762              		.loc 1 375 1 view .LVU276
 763 0060 7047     		bx	lr
 764              	.LVL73:
 765              	.L48:
 766              	.LCFI9:
 767              		.cfi_def_cfa_offset 16
 768              		.cfi_offset 3, -16
 769              		.cfi_offset 4, -12
 770              		.cfi_offset 5, -8
 771              		.cfi_offset 14, -4
 324:Drivers/STM32F2xx_HAL_Driver/Src/stm32f2xx_hal_dma.c ****   }
 772              		.loc 1 324 12 view .LVU277
 773 0062 0220     		movs	r0, #2
 774              	.LVL74:
 324:Drivers/STM32F2xx_HAL_Driver/Src/stm32f2xx_hal_dma.c ****   }
 775              		.loc 1 324 12 view .LVU278
 776 0064 FAE7     		b	.L46
 777              		.cfi_endproc
 778              	.LFE73:
 780              		.section	.text.HAL_DMA_Start,"ax",%progbits
 781              		.align	1
 782              		.global	HAL_DMA_Start
ARM GAS  C:\Users\User\AppData\Local\Temp\cc2bsKoj.s 			page 41


 783              		.syntax unified
 784              		.thumb
 785              		.thumb_func
 786              		.fpu softvfp
 788              	HAL_DMA_Start:
 789              	.LVL75:
 790              	.LFB74:
 409:Drivers/STM32F2xx_HAL_Driver/Src/stm32f2xx_hal_dma.c ****   HAL_StatusTypeDef status = HAL_OK;
 791              		.loc 1 409 1 is_stmt 1 view -0
 792              		.cfi_startproc
 793              		@ args = 0, pretend = 0, frame = 0
 794              		@ frame_needed = 0, uses_anonymous_args = 0
 409:Drivers/STM32F2xx_HAL_Driver/Src/stm32f2xx_hal_dma.c ****   HAL_StatusTypeDef status = HAL_OK;
 795              		.loc 1 409 1 is_stmt 0 view .LVU280
 796 0000 38B5     		push	{r3, r4, r5, lr}
 797              	.LCFI10:
 798              		.cfi_def_cfa_offset 16
 799              		.cfi_offset 3, -16
 800              		.cfi_offset 4, -12
 801              		.cfi_offset 5, -8
 802              		.cfi_offset 14, -4
 410:Drivers/STM32F2xx_HAL_Driver/Src/stm32f2xx_hal_dma.c ****   
 803              		.loc 1 410 3 is_stmt 1 view .LVU281
 804              	.LVL76:
 413:Drivers/STM32F2xx_HAL_Driver/Src/stm32f2xx_hal_dma.c **** 
 805              		.loc 1 413 3 view .LVU282
 416:Drivers/STM32F2xx_HAL_Driver/Src/stm32f2xx_hal_dma.c **** 
 806              		.loc 1 416 3 view .LVU283
 416:Drivers/STM32F2xx_HAL_Driver/Src/stm32f2xx_hal_dma.c **** 
 807              		.loc 1 416 3 view .LVU284
 808 0002 90F83440 		ldrb	r4, [r0, #52]	@ zero_extendqisi2
 809 0006 012C     		cmp	r4, #1
 810 0008 1CD0     		beq	.L56
 416:Drivers/STM32F2xx_HAL_Driver/Src/stm32f2xx_hal_dma.c **** 
 811              		.loc 1 416 3 discriminator 2 view .LVU285
 812 000a 0124     		movs	r4, #1
 813 000c 80F83440 		strb	r4, [r0, #52]
 418:Drivers/STM32F2xx_HAL_Driver/Src/stm32f2xx_hal_dma.c ****   {
 814              		.loc 1 418 3 discriminator 2 view .LVU286
 418:Drivers/STM32F2xx_HAL_Driver/Src/stm32f2xx_hal_dma.c ****   {
 815              		.loc 1 418 33 is_stmt 0 discriminator 2 view .LVU287
 816 0010 90F83540 		ldrb	r4, [r0, #53]	@ zero_extendqisi2
 817 0014 E4B2     		uxtb	r4, r4
 418:Drivers/STM32F2xx_HAL_Driver/Src/stm32f2xx_hal_dma.c ****   {
 818              		.loc 1 418 5 discriminator 2 view .LVU288
 819 0016 012C     		cmp	r4, #1
 820 0018 04D0     		beq	.L58
 435:Drivers/STM32F2xx_HAL_Driver/Src/stm32f2xx_hal_dma.c ****     
 821              		.loc 1 435 5 is_stmt 1 view .LVU289
 435:Drivers/STM32F2xx_HAL_Driver/Src/stm32f2xx_hal_dma.c ****     
 822              		.loc 1 435 5 view .LVU290
 823 001a 0023     		movs	r3, #0
 824              	.LVL77:
 435:Drivers/STM32F2xx_HAL_Driver/Src/stm32f2xx_hal_dma.c ****     
 825              		.loc 1 435 5 is_stmt 0 view .LVU291
 826 001c 80F83430 		strb	r3, [r0, #52]
 438:Drivers/STM32F2xx_HAL_Driver/Src/stm32f2xx_hal_dma.c ****   } 
ARM GAS  C:\Users\User\AppData\Local\Temp\cc2bsKoj.s 			page 42


 827              		.loc 1 438 5 is_stmt 1 view .LVU292
 828              	.LVL78:
 438:Drivers/STM32F2xx_HAL_Driver/Src/stm32f2xx_hal_dma.c ****   } 
 829              		.loc 1 438 12 is_stmt 0 view .LVU293
 830 0020 0220     		movs	r0, #2
 831              	.LVL79:
 832              	.L54:
 441:Drivers/STM32F2xx_HAL_Driver/Src/stm32f2xx_hal_dma.c **** 
 833              		.loc 1 441 1 view .LVU294
 834 0022 38BD     		pop	{r3, r4, r5, pc}
 835              	.LVL80:
 836              	.L58:
 441:Drivers/STM32F2xx_HAL_Driver/Src/stm32f2xx_hal_dma.c **** 
 837              		.loc 1 441 1 view .LVU295
 838 0024 0546     		mov	r5, r0
 421:Drivers/STM32F2xx_HAL_Driver/Src/stm32f2xx_hal_dma.c ****     
 839              		.loc 1 421 5 is_stmt 1 view .LVU296
 421:Drivers/STM32F2xx_HAL_Driver/Src/stm32f2xx_hal_dma.c ****     
 840              		.loc 1 421 17 is_stmt 0 view .LVU297
 841 0026 0220     		movs	r0, #2
 842              	.LVL81:
 421:Drivers/STM32F2xx_HAL_Driver/Src/stm32f2xx_hal_dma.c ****     
 843              		.loc 1 421 17 view .LVU298
 844 0028 85F83500 		strb	r0, [r5, #53]
 424:Drivers/STM32F2xx_HAL_Driver/Src/stm32f2xx_hal_dma.c ****     
 845              		.loc 1 424 5 is_stmt 1 view .LVU299
 424:Drivers/STM32F2xx_HAL_Driver/Src/stm32f2xx_hal_dma.c ****     
 846              		.loc 1 424 21 is_stmt 0 view .LVU300
 847 002c 0024     		movs	r4, #0
 848 002e 6C65     		str	r4, [r5, #84]
 427:Drivers/STM32F2xx_HAL_Driver/Src/stm32f2xx_hal_dma.c **** 
 849              		.loc 1 427 5 is_stmt 1 view .LVU301
 850 0030 2846     		mov	r0, r5
 851 0032 FFF7FEFF 		bl	DMA_SetConfig
 852              	.LVL82:
 430:Drivers/STM32F2xx_HAL_Driver/Src/stm32f2xx_hal_dma.c ****   }
 853              		.loc 1 430 5 view .LVU302
 854 0036 2A68     		ldr	r2, [r5]
 855 0038 1368     		ldr	r3, [r2]
 856 003a 43F00103 		orr	r3, r3, #1
 857 003e 1360     		str	r3, [r2]
 410:Drivers/STM32F2xx_HAL_Driver/Src/stm32f2xx_hal_dma.c ****   
 858              		.loc 1 410 21 is_stmt 0 view .LVU303
 859 0040 2046     		mov	r0, r4
 860 0042 EEE7     		b	.L54
 861              	.LVL83:
 862              	.L56:
 416:Drivers/STM32F2xx_HAL_Driver/Src/stm32f2xx_hal_dma.c **** 
 863              		.loc 1 416 3 view .LVU304
 864 0044 0220     		movs	r0, #2
 865              	.LVL84:
 416:Drivers/STM32F2xx_HAL_Driver/Src/stm32f2xx_hal_dma.c **** 
 866              		.loc 1 416 3 view .LVU305
 867 0046 ECE7     		b	.L54
 868              		.cfi_endproc
 869              	.LFE74:
 871              		.section	.text.HAL_DMA_Start_IT,"ax",%progbits
ARM GAS  C:\Users\User\AppData\Local\Temp\cc2bsKoj.s 			page 43


 872              		.align	1
 873              		.global	HAL_DMA_Start_IT
 874              		.syntax unified
 875              		.thumb
 876              		.thumb_func
 877              		.fpu softvfp
 879              	HAL_DMA_Start_IT:
 880              	.LVL85:
 881              	.LFB75:
 453:Drivers/STM32F2xx_HAL_Driver/Src/stm32f2xx_hal_dma.c ****   HAL_StatusTypeDef status = HAL_OK;
 882              		.loc 1 453 1 is_stmt 1 view -0
 883              		.cfi_startproc
 884              		@ args = 0, pretend = 0, frame = 0
 885              		@ frame_needed = 0, uses_anonymous_args = 0
 453:Drivers/STM32F2xx_HAL_Driver/Src/stm32f2xx_hal_dma.c ****   HAL_StatusTypeDef status = HAL_OK;
 886              		.loc 1 453 1 is_stmt 0 view .LVU307
 887 0000 38B5     		push	{r3, r4, r5, lr}
 888              	.LCFI11:
 889              		.cfi_def_cfa_offset 16
 890              		.cfi_offset 3, -16
 891              		.cfi_offset 4, -12
 892              		.cfi_offset 5, -8
 893              		.cfi_offset 14, -4
 454:Drivers/STM32F2xx_HAL_Driver/Src/stm32f2xx_hal_dma.c **** 
 894              		.loc 1 454 3 is_stmt 1 view .LVU308
 895              	.LVL86:
 457:Drivers/STM32F2xx_HAL_Driver/Src/stm32f2xx_hal_dma.c ****   
 896              		.loc 1 457 3 view .LVU309
 457:Drivers/STM32F2xx_HAL_Driver/Src/stm32f2xx_hal_dma.c ****   
 897              		.loc 1 457 56 is_stmt 0 view .LVU310
 898 0002 856D     		ldr	r5, [r0, #88]
 899              	.LVL87:
 460:Drivers/STM32F2xx_HAL_Driver/Src/stm32f2xx_hal_dma.c ****  
 900              		.loc 1 460 3 is_stmt 1 view .LVU311
 463:Drivers/STM32F2xx_HAL_Driver/Src/stm32f2xx_hal_dma.c ****   
 901              		.loc 1 463 3 view .LVU312
 463:Drivers/STM32F2xx_HAL_Driver/Src/stm32f2xx_hal_dma.c ****   
 902              		.loc 1 463 3 view .LVU313
 903 0004 90F83440 		ldrb	r4, [r0, #52]	@ zero_extendqisi2
 904 0008 012C     		cmp	r4, #1
 905 000a 2CD0     		beq	.L63
 463:Drivers/STM32F2xx_HAL_Driver/Src/stm32f2xx_hal_dma.c ****   
 906              		.loc 1 463 3 discriminator 2 view .LVU314
 907 000c 0124     		movs	r4, #1
 908 000e 80F83440 		strb	r4, [r0, #52]
 465:Drivers/STM32F2xx_HAL_Driver/Src/stm32f2xx_hal_dma.c ****   {
 909              		.loc 1 465 3 discriminator 2 view .LVU315
 465:Drivers/STM32F2xx_HAL_Driver/Src/stm32f2xx_hal_dma.c ****   {
 910              		.loc 1 465 33 is_stmt 0 discriminator 2 view .LVU316
 911 0012 90F83540 		ldrb	r4, [r0, #53]	@ zero_extendqisi2
 912 0016 E4B2     		uxtb	r4, r4
 465:Drivers/STM32F2xx_HAL_Driver/Src/stm32f2xx_hal_dma.c ****   {
 913              		.loc 1 465 5 discriminator 2 view .LVU317
 914 0018 012C     		cmp	r4, #1
 915 001a 04D0     		beq	.L65
 493:Drivers/STM32F2xx_HAL_Driver/Src/stm32f2xx_hal_dma.c ****     
 916              		.loc 1 493 5 is_stmt 1 view .LVU318
ARM GAS  C:\Users\User\AppData\Local\Temp\cc2bsKoj.s 			page 44


 493:Drivers/STM32F2xx_HAL_Driver/Src/stm32f2xx_hal_dma.c ****     
 917              		.loc 1 493 5 view .LVU319
 918 001c 0023     		movs	r3, #0
 919              	.LVL88:
 493:Drivers/STM32F2xx_HAL_Driver/Src/stm32f2xx_hal_dma.c ****     
 920              		.loc 1 493 5 is_stmt 0 view .LVU320
 921 001e 80F83430 		strb	r3, [r0, #52]
 496:Drivers/STM32F2xx_HAL_Driver/Src/stm32f2xx_hal_dma.c ****   }
 922              		.loc 1 496 5 is_stmt 1 view .LVU321
 923              	.LVL89:
 496:Drivers/STM32F2xx_HAL_Driver/Src/stm32f2xx_hal_dma.c ****   }
 924              		.loc 1 496 12 is_stmt 0 view .LVU322
 925 0022 0220     		movs	r0, #2
 926              	.LVL90:
 927              	.L60:
 500:Drivers/STM32F2xx_HAL_Driver/Src/stm32f2xx_hal_dma.c **** 
 928              		.loc 1 500 1 view .LVU323
 929 0024 38BD     		pop	{r3, r4, r5, pc}
 930              	.LVL91:
 931              	.L65:
 500:Drivers/STM32F2xx_HAL_Driver/Src/stm32f2xx_hal_dma.c **** 
 932              		.loc 1 500 1 view .LVU324
 933 0026 0446     		mov	r4, r0
 468:Drivers/STM32F2xx_HAL_Driver/Src/stm32f2xx_hal_dma.c ****     
 934              		.loc 1 468 5 is_stmt 1 view .LVU325
 468:Drivers/STM32F2xx_HAL_Driver/Src/stm32f2xx_hal_dma.c ****     
 935              		.loc 1 468 17 is_stmt 0 view .LVU326
 936 0028 0220     		movs	r0, #2
 937              	.LVL92:
 468:Drivers/STM32F2xx_HAL_Driver/Src/stm32f2xx_hal_dma.c ****     
 938              		.loc 1 468 17 view .LVU327
 939 002a 84F83500 		strb	r0, [r4, #53]
 471:Drivers/STM32F2xx_HAL_Driver/Src/stm32f2xx_hal_dma.c ****     
 940              		.loc 1 471 5 is_stmt 1 view .LVU328
 471:Drivers/STM32F2xx_HAL_Driver/Src/stm32f2xx_hal_dma.c ****     
 941              		.loc 1 471 21 is_stmt 0 view .LVU329
 942 002e 0020     		movs	r0, #0
 943 0030 6065     		str	r0, [r4, #84]
 474:Drivers/STM32F2xx_HAL_Driver/Src/stm32f2xx_hal_dma.c ****     
 944              		.loc 1 474 5 is_stmt 1 view .LVU330
 945 0032 2046     		mov	r0, r4
 946 0034 FFF7FEFF 		bl	DMA_SetConfig
 947              	.LVL93:
 477:Drivers/STM32F2xx_HAL_Driver/Src/stm32f2xx_hal_dma.c ****     
 948              		.loc 1 477 5 view .LVU331
 477:Drivers/STM32F2xx_HAL_Driver/Src/stm32f2xx_hal_dma.c ****     
 949              		.loc 1 477 31 is_stmt 0 view .LVU332
 950 0038 E26D     		ldr	r2, [r4, #92]
 477:Drivers/STM32F2xx_HAL_Driver/Src/stm32f2xx_hal_dma.c ****     
 951              		.loc 1 477 24 view .LVU333
 952 003a 3F23     		movs	r3, #63
 953 003c 9340     		lsls	r3, r3, r2
 477:Drivers/STM32F2xx_HAL_Driver/Src/stm32f2xx_hal_dma.c ****     
 954              		.loc 1 477 16 view .LVU334
 955 003e AB60     		str	r3, [r5, #8]
 480:Drivers/STM32F2xx_HAL_Driver/Src/stm32f2xx_hal_dma.c ****     
 956              		.loc 1 480 5 is_stmt 1 view .LVU335
ARM GAS  C:\Users\User\AppData\Local\Temp\cc2bsKoj.s 			page 45


 480:Drivers/STM32F2xx_HAL_Driver/Src/stm32f2xx_hal_dma.c ****     
 957              		.loc 1 480 9 is_stmt 0 view .LVU336
 958 0040 2268     		ldr	r2, [r4]
 480:Drivers/STM32F2xx_HAL_Driver/Src/stm32f2xx_hal_dma.c ****     
 959              		.loc 1 480 25 view .LVU337
 960 0042 1368     		ldr	r3, [r2]
 961 0044 43F01603 		orr	r3, r3, #22
 962 0048 1360     		str	r3, [r2]
 482:Drivers/STM32F2xx_HAL_Driver/Src/stm32f2xx_hal_dma.c ****     {
 963              		.loc 1 482 5 is_stmt 1 view .LVU338
 482:Drivers/STM32F2xx_HAL_Driver/Src/stm32f2xx_hal_dma.c ****     {
 964              		.loc 1 482 12 is_stmt 0 view .LVU339
 965 004a 236C     		ldr	r3, [r4, #64]
 482:Drivers/STM32F2xx_HAL_Driver/Src/stm32f2xx_hal_dma.c ****     {
 966              		.loc 1 482 7 view .LVU340
 967 004c 23B1     		cbz	r3, .L62
 484:Drivers/STM32F2xx_HAL_Driver/Src/stm32f2xx_hal_dma.c ****     }
 968              		.loc 1 484 7 is_stmt 1 view .LVU341
 484:Drivers/STM32F2xx_HAL_Driver/Src/stm32f2xx_hal_dma.c ****     }
 969              		.loc 1 484 11 is_stmt 0 view .LVU342
 970 004e 2268     		ldr	r2, [r4]
 484:Drivers/STM32F2xx_HAL_Driver/Src/stm32f2xx_hal_dma.c ****     }
 971              		.loc 1 484 27 view .LVU343
 972 0050 1368     		ldr	r3, [r2]
 973 0052 43F00803 		orr	r3, r3, #8
 974 0056 1360     		str	r3, [r2]
 975              	.L62:
 488:Drivers/STM32F2xx_HAL_Driver/Src/stm32f2xx_hal_dma.c ****   }
 976              		.loc 1 488 5 is_stmt 1 view .LVU344
 977 0058 2268     		ldr	r2, [r4]
 978 005a 1368     		ldr	r3, [r2]
 979 005c 43F00103 		orr	r3, r3, #1
 980 0060 1360     		str	r3, [r2]
 454:Drivers/STM32F2xx_HAL_Driver/Src/stm32f2xx_hal_dma.c **** 
 981              		.loc 1 454 21 is_stmt 0 view .LVU345
 982 0062 0020     		movs	r0, #0
 983 0064 DEE7     		b	.L60
 984              	.LVL94:
 985              	.L63:
 463:Drivers/STM32F2xx_HAL_Driver/Src/stm32f2xx_hal_dma.c ****   
 986              		.loc 1 463 3 view .LVU346
 987 0066 0220     		movs	r0, #2
 988              	.LVL95:
 463:Drivers/STM32F2xx_HAL_Driver/Src/stm32f2xx_hal_dma.c ****   
 989              		.loc 1 463 3 view .LVU347
 990 0068 DCE7     		b	.L60
 991              		.cfi_endproc
 992              	.LFE75:
 994              		.section	.text.HAL_DMA_Abort,"ax",%progbits
 995              		.align	1
 996              		.global	HAL_DMA_Abort
 997              		.syntax unified
 998              		.thumb
 999              		.thumb_func
 1000              		.fpu softvfp
 1002              	HAL_DMA_Abort:
 1003              	.LVL96:
ARM GAS  C:\Users\User\AppData\Local\Temp\cc2bsKoj.s 			page 46


 1004              	.LFB76:
 515:Drivers/STM32F2xx_HAL_Driver/Src/stm32f2xx_hal_dma.c ****   /* calculate DMA base and stream number */
 1005              		.loc 1 515 1 is_stmt 1 view -0
 1006              		.cfi_startproc
 1007              		@ args = 0, pretend = 0, frame = 0
 1008              		@ frame_needed = 0, uses_anonymous_args = 0
 515:Drivers/STM32F2xx_HAL_Driver/Src/stm32f2xx_hal_dma.c ****   /* calculate DMA base and stream number */
 1009              		.loc 1 515 1 is_stmt 0 view .LVU349
 1010 0000 70B5     		push	{r4, r5, r6, lr}
 1011              	.LCFI12:
 1012              		.cfi_def_cfa_offset 16
 1013              		.cfi_offset 4, -16
 1014              		.cfi_offset 5, -12
 1015              		.cfi_offset 6, -8
 1016              		.cfi_offset 14, -4
 1017 0002 0446     		mov	r4, r0
 517:Drivers/STM32F2xx_HAL_Driver/Src/stm32f2xx_hal_dma.c ****   
 1018              		.loc 1 517 3 is_stmt 1 view .LVU350
 517:Drivers/STM32F2xx_HAL_Driver/Src/stm32f2xx_hal_dma.c ****   
 1019              		.loc 1 517 56 is_stmt 0 view .LVU351
 1020 0004 866D     		ldr	r6, [r0, #88]
 1021              	.LVL97:
 519:Drivers/STM32F2xx_HAL_Driver/Src/stm32f2xx_hal_dma.c ****   
 1022              		.loc 1 519 3 is_stmt 1 view .LVU352
 519:Drivers/STM32F2xx_HAL_Driver/Src/stm32f2xx_hal_dma.c ****   
 1023              		.loc 1 519 24 is_stmt 0 view .LVU353
 1024 0006 FFF7FEFF 		bl	HAL_GetTick
 1025              	.LVL98:
 521:Drivers/STM32F2xx_HAL_Driver/Src/stm32f2xx_hal_dma.c ****   {
 1026              		.loc 1 521 3 is_stmt 1 view .LVU354
 521:Drivers/STM32F2xx_HAL_Driver/Src/stm32f2xx_hal_dma.c ****   {
 1027              		.loc 1 521 10 is_stmt 0 view .LVU355
 1028 000a 94F83530 		ldrb	r3, [r4, #53]	@ zero_extendqisi2
 1029 000e DBB2     		uxtb	r3, r3
 521:Drivers/STM32F2xx_HAL_Driver/Src/stm32f2xx_hal_dma.c ****   {
 1030              		.loc 1 521 5 view .LVU356
 1031 0010 022B     		cmp	r3, #2
 1032 0012 06D0     		beq	.L67
 523:Drivers/STM32F2xx_HAL_Driver/Src/stm32f2xx_hal_dma.c ****     
 1033              		.loc 1 523 5 is_stmt 1 view .LVU357
 523:Drivers/STM32F2xx_HAL_Driver/Src/stm32f2xx_hal_dma.c ****     
 1034              		.loc 1 523 21 is_stmt 0 view .LVU358
 1035 0014 8023     		movs	r3, #128
 1036 0016 6365     		str	r3, [r4, #84]
 526:Drivers/STM32F2xx_HAL_Driver/Src/stm32f2xx_hal_dma.c ****     
 1037              		.loc 1 526 5 is_stmt 1 view .LVU359
 526:Drivers/STM32F2xx_HAL_Driver/Src/stm32f2xx_hal_dma.c ****     
 1038              		.loc 1 526 5 view .LVU360
 1039 0018 0023     		movs	r3, #0
 1040 001a 84F83430 		strb	r3, [r4, #52]
 528:Drivers/STM32F2xx_HAL_Driver/Src/stm32f2xx_hal_dma.c ****   }
 1041              		.loc 1 528 5 view .LVU361
 528:Drivers/STM32F2xx_HAL_Driver/Src/stm32f2xx_hal_dma.c ****   }
 1042              		.loc 1 528 12 is_stmt 0 view .LVU362
 1043 001e 0120     		movs	r0, #1
 1044              	.LVL99:
 1045              	.L68:
ARM GAS  C:\Users\User\AppData\Local\Temp\cc2bsKoj.s 			page 47


 573:Drivers/STM32F2xx_HAL_Driver/Src/stm32f2xx_hal_dma.c **** 
 1046              		.loc 1 573 1 view .LVU363
 1047 0020 70BD     		pop	{r4, r5, r6, pc}
 1048              	.LVL100:
 1049              	.L67:
 573:Drivers/STM32F2xx_HAL_Driver/Src/stm32f2xx_hal_dma.c **** 
 1050              		.loc 1 573 1 view .LVU364
 1051 0022 0546     		mov	r5, r0
 533:Drivers/STM32F2xx_HAL_Driver/Src/stm32f2xx_hal_dma.c ****     hdma->Instance->FCR &= ~(DMA_IT_FE);
 1052              		.loc 1 533 5 is_stmt 1 view .LVU365
 533:Drivers/STM32F2xx_HAL_Driver/Src/stm32f2xx_hal_dma.c ****     hdma->Instance->FCR &= ~(DMA_IT_FE);
 1053              		.loc 1 533 9 is_stmt 0 view .LVU366
 1054 0024 2268     		ldr	r2, [r4]
 533:Drivers/STM32F2xx_HAL_Driver/Src/stm32f2xx_hal_dma.c ****     hdma->Instance->FCR &= ~(DMA_IT_FE);
 1055              		.loc 1 533 25 view .LVU367
 1056 0026 1368     		ldr	r3, [r2]
 1057 0028 23F01603 		bic	r3, r3, #22
 1058 002c 1360     		str	r3, [r2]
 534:Drivers/STM32F2xx_HAL_Driver/Src/stm32f2xx_hal_dma.c ****     
 1059              		.loc 1 534 5 is_stmt 1 view .LVU368
 534:Drivers/STM32F2xx_HAL_Driver/Src/stm32f2xx_hal_dma.c ****     
 1060              		.loc 1 534 9 is_stmt 0 view .LVU369
 1061 002e 2268     		ldr	r2, [r4]
 534:Drivers/STM32F2xx_HAL_Driver/Src/stm32f2xx_hal_dma.c ****     
 1062              		.loc 1 534 25 view .LVU370
 1063 0030 5369     		ldr	r3, [r2, #20]
 1064 0032 23F08003 		bic	r3, r3, #128
 1065 0036 5361     		str	r3, [r2, #20]
 536:Drivers/STM32F2xx_HAL_Driver/Src/stm32f2xx_hal_dma.c ****     {
 1066              		.loc 1 536 5 is_stmt 1 view .LVU371
 536:Drivers/STM32F2xx_HAL_Driver/Src/stm32f2xx_hal_dma.c ****     {
 1067              		.loc 1 536 13 is_stmt 0 view .LVU372
 1068 0038 236C     		ldr	r3, [r4, #64]
 536:Drivers/STM32F2xx_HAL_Driver/Src/stm32f2xx_hal_dma.c ****     {
 1069              		.loc 1 536 7 view .LVU373
 1070 003a E3B1     		cbz	r3, .L74
 1071              	.L69:
 538:Drivers/STM32F2xx_HAL_Driver/Src/stm32f2xx_hal_dma.c ****     }
 1072              		.loc 1 538 7 is_stmt 1 view .LVU374
 538:Drivers/STM32F2xx_HAL_Driver/Src/stm32f2xx_hal_dma.c ****     }
 1073              		.loc 1 538 11 is_stmt 0 view .LVU375
 1074 003c 2268     		ldr	r2, [r4]
 538:Drivers/STM32F2xx_HAL_Driver/Src/stm32f2xx_hal_dma.c ****     }
 1075              		.loc 1 538 27 view .LVU376
 1076 003e 1368     		ldr	r3, [r2]
 1077 0040 23F00803 		bic	r3, r3, #8
 1078 0044 1360     		str	r3, [r2]
 1079              	.L70:
 542:Drivers/STM32F2xx_HAL_Driver/Src/stm32f2xx_hal_dma.c ****     
 1080              		.loc 1 542 5 is_stmt 1 view .LVU377
 1081 0046 2268     		ldr	r2, [r4]
 1082 0048 1368     		ldr	r3, [r2]
 1083 004a 23F00103 		bic	r3, r3, #1
 1084 004e 1360     		str	r3, [r2]
 545:Drivers/STM32F2xx_HAL_Driver/Src/stm32f2xx_hal_dma.c ****     {
 1085              		.loc 1 545 5 view .LVU378
 1086              	.LVL101:
ARM GAS  C:\Users\User\AppData\Local\Temp\cc2bsKoj.s 			page 48


 1087              	.L71:
 545:Drivers/STM32F2xx_HAL_Driver/Src/stm32f2xx_hal_dma.c ****     {
 1088              		.loc 1 545 16 is_stmt 0 view .LVU379
 1089 0050 2368     		ldr	r3, [r4]
 545:Drivers/STM32F2xx_HAL_Driver/Src/stm32f2xx_hal_dma.c ****     {
 1090              		.loc 1 545 26 view .LVU380
 1091 0052 1B68     		ldr	r3, [r3]
 545:Drivers/STM32F2xx_HAL_Driver/Src/stm32f2xx_hal_dma.c ****     {
 1092              		.loc 1 545 10 view .LVU381
 1093 0054 13F0010F 		tst	r3, #1
 1094 0058 11D0     		beq	.L75
 548:Drivers/STM32F2xx_HAL_Driver/Src/stm32f2xx_hal_dma.c ****       {
 1095              		.loc 1 548 7 is_stmt 1 view .LVU382
 548:Drivers/STM32F2xx_HAL_Driver/Src/stm32f2xx_hal_dma.c ****       {
 1096              		.loc 1 548 11 is_stmt 0 view .LVU383
 1097 005a FFF7FEFF 		bl	HAL_GetTick
 1098              	.LVL102:
 548:Drivers/STM32F2xx_HAL_Driver/Src/stm32f2xx_hal_dma.c ****       {
 1099              		.loc 1 548 25 view .LVU384
 1100 005e 401B     		subs	r0, r0, r5
 548:Drivers/STM32F2xx_HAL_Driver/Src/stm32f2xx_hal_dma.c ****       {
 1101              		.loc 1 548 9 view .LVU385
 1102 0060 0528     		cmp	r0, #5
 1103 0062 F5D9     		bls	.L71
 551:Drivers/STM32F2xx_HAL_Driver/Src/stm32f2xx_hal_dma.c ****         
 1104              		.loc 1 551 9 is_stmt 1 view .LVU386
 551:Drivers/STM32F2xx_HAL_Driver/Src/stm32f2xx_hal_dma.c ****         
 1105              		.loc 1 551 25 is_stmt 0 view .LVU387
 1106 0064 2023     		movs	r3, #32
 1107 0066 6365     		str	r3, [r4, #84]
 554:Drivers/STM32F2xx_HAL_Driver/Src/stm32f2xx_hal_dma.c ****         
 1108              		.loc 1 554 9 is_stmt 1 view .LVU388
 554:Drivers/STM32F2xx_HAL_Driver/Src/stm32f2xx_hal_dma.c ****         
 1109              		.loc 1 554 9 view .LVU389
 1110 0068 0023     		movs	r3, #0
 1111 006a 84F83430 		strb	r3, [r4, #52]
 557:Drivers/STM32F2xx_HAL_Driver/Src/stm32f2xx_hal_dma.c ****         
 1112              		.loc 1 557 9 view .LVU390
 557:Drivers/STM32F2xx_HAL_Driver/Src/stm32f2xx_hal_dma.c ****         
 1113              		.loc 1 557 21 is_stmt 0 view .LVU391
 1114 006e 0320     		movs	r0, #3
 1115 0070 84F83500 		strb	r0, [r4, #53]
 559:Drivers/STM32F2xx_HAL_Driver/Src/stm32f2xx_hal_dma.c ****       }
 1116              		.loc 1 559 9 is_stmt 1 view .LVU392
 559:Drivers/STM32F2xx_HAL_Driver/Src/stm32f2xx_hal_dma.c ****       }
 1117              		.loc 1 559 16 is_stmt 0 view .LVU393
 1118 0074 D4E7     		b	.L68
 1119              	.LVL103:
 1120              	.L74:
 536:Drivers/STM32F2xx_HAL_Driver/Src/stm32f2xx_hal_dma.c ****     {
 1121              		.loc 1 536 53 discriminator 1 view .LVU394
 1122 0076 A36C     		ldr	r3, [r4, #72]
 536:Drivers/STM32F2xx_HAL_Driver/Src/stm32f2xx_hal_dma.c ****     {
 1123              		.loc 1 536 45 discriminator 1 view .LVU395
 1124 0078 002B     		cmp	r3, #0
 1125 007a DFD1     		bne	.L69
 1126 007c E3E7     		b	.L70
ARM GAS  C:\Users\User\AppData\Local\Temp\cc2bsKoj.s 			page 49


 1127              	.LVL104:
 1128              	.L75:
 564:Drivers/STM32F2xx_HAL_Driver/Src/stm32f2xx_hal_dma.c ****     
 1129              		.loc 1 564 5 is_stmt 1 view .LVU396
 564:Drivers/STM32F2xx_HAL_Driver/Src/stm32f2xx_hal_dma.c ****     
 1130              		.loc 1 564 31 is_stmt 0 view .LVU397
 1131 007e E26D     		ldr	r2, [r4, #92]
 564:Drivers/STM32F2xx_HAL_Driver/Src/stm32f2xx_hal_dma.c ****     
 1132              		.loc 1 564 24 view .LVU398
 1133 0080 3F23     		movs	r3, #63
 1134 0082 9340     		lsls	r3, r3, r2
 564:Drivers/STM32F2xx_HAL_Driver/Src/stm32f2xx_hal_dma.c ****     
 1135              		.loc 1 564 16 view .LVU399
 1136 0084 B360     		str	r3, [r6, #8]
 567:Drivers/STM32F2xx_HAL_Driver/Src/stm32f2xx_hal_dma.c ****     
 1137              		.loc 1 567 5 is_stmt 1 view .LVU400
 567:Drivers/STM32F2xx_HAL_Driver/Src/stm32f2xx_hal_dma.c ****     
 1138              		.loc 1 567 5 view .LVU401
 1139 0086 0020     		movs	r0, #0
 1140 0088 84F83400 		strb	r0, [r4, #52]
 570:Drivers/STM32F2xx_HAL_Driver/Src/stm32f2xx_hal_dma.c ****   }
 1141              		.loc 1 570 5 view .LVU402
 570:Drivers/STM32F2xx_HAL_Driver/Src/stm32f2xx_hal_dma.c ****   }
 1142              		.loc 1 570 17 is_stmt 0 view .LVU403
 1143 008c 0123     		movs	r3, #1
 1144 008e 84F83530 		strb	r3, [r4, #53]
 572:Drivers/STM32F2xx_HAL_Driver/Src/stm32f2xx_hal_dma.c **** }
 1145              		.loc 1 572 3 is_stmt 1 view .LVU404
 572:Drivers/STM32F2xx_HAL_Driver/Src/stm32f2xx_hal_dma.c **** }
 1146              		.loc 1 572 10 is_stmt 0 view .LVU405
 1147 0092 C5E7     		b	.L68
 1148              		.cfi_endproc
 1149              	.LFE76:
 1151              		.section	.text.HAL_DMA_Abort_IT,"ax",%progbits
 1152              		.align	1
 1153              		.global	HAL_DMA_Abort_IT
 1154              		.syntax unified
 1155              		.thumb
 1156              		.thumb_func
 1157              		.fpu softvfp
 1159              	HAL_DMA_Abort_IT:
 1160              	.LVL105:
 1161              	.LFB77:
 582:Drivers/STM32F2xx_HAL_Driver/Src/stm32f2xx_hal_dma.c ****   if(hdma->State != HAL_DMA_STATE_BUSY)
 1162              		.loc 1 582 1 is_stmt 1 view -0
 1163              		.cfi_startproc
 1164              		@ args = 0, pretend = 0, frame = 0
 1165              		@ frame_needed = 0, uses_anonymous_args = 0
 1166              		@ link register save eliminated.
 583:Drivers/STM32F2xx_HAL_Driver/Src/stm32f2xx_hal_dma.c ****   {
 1167              		.loc 1 583 3 view .LVU407
 583:Drivers/STM32F2xx_HAL_Driver/Src/stm32f2xx_hal_dma.c ****   {
 1168              		.loc 1 583 10 is_stmt 0 view .LVU408
 1169 0000 90F83530 		ldrb	r3, [r0, #53]	@ zero_extendqisi2
 1170 0004 DBB2     		uxtb	r3, r3
 583:Drivers/STM32F2xx_HAL_Driver/Src/stm32f2xx_hal_dma.c ****   {
 1171              		.loc 1 583 5 view .LVU409
ARM GAS  C:\Users\User\AppData\Local\Temp\cc2bsKoj.s 			page 50


 1172 0006 022B     		cmp	r3, #2
 1173 0008 03D0     		beq	.L77
 585:Drivers/STM32F2xx_HAL_Driver/Src/stm32f2xx_hal_dma.c ****     return HAL_ERROR;
 1174              		.loc 1 585 5 is_stmt 1 view .LVU410
 585:Drivers/STM32F2xx_HAL_Driver/Src/stm32f2xx_hal_dma.c ****     return HAL_ERROR;
 1175              		.loc 1 585 21 is_stmt 0 view .LVU411
 1176 000a 8023     		movs	r3, #128
 1177 000c 4365     		str	r3, [r0, #84]
 586:Drivers/STM32F2xx_HAL_Driver/Src/stm32f2xx_hal_dma.c ****   }
 1178              		.loc 1 586 5 is_stmt 1 view .LVU412
 586:Drivers/STM32F2xx_HAL_Driver/Src/stm32f2xx_hal_dma.c ****   }
 1179              		.loc 1 586 12 is_stmt 0 view .LVU413
 1180 000e 0120     		movs	r0, #1
 1181              	.LVL106:
 586:Drivers/STM32F2xx_HAL_Driver/Src/stm32f2xx_hal_dma.c ****   }
 1182              		.loc 1 586 12 view .LVU414
 1183 0010 7047     		bx	lr
 1184              	.LVL107:
 1185              	.L77:
 591:Drivers/STM32F2xx_HAL_Driver/Src/stm32f2xx_hal_dma.c ****     
 1186              		.loc 1 591 5 is_stmt 1 view .LVU415
 591:Drivers/STM32F2xx_HAL_Driver/Src/stm32f2xx_hal_dma.c ****     
 1187              		.loc 1 591 17 is_stmt 0 view .LVU416
 1188 0012 0523     		movs	r3, #5
 1189 0014 80F83530 		strb	r3, [r0, #53]
 594:Drivers/STM32F2xx_HAL_Driver/Src/stm32f2xx_hal_dma.c ****   }
 1190              		.loc 1 594 5 is_stmt 1 view .LVU417
 1191 0018 0268     		ldr	r2, [r0]
 1192 001a 1368     		ldr	r3, [r2]
 1193 001c 23F00103 		bic	r3, r3, #1
 1194 0020 1360     		str	r3, [r2]
 597:Drivers/STM32F2xx_HAL_Driver/Src/stm32f2xx_hal_dma.c **** }
 1195              		.loc 1 597 3 view .LVU418
 597:Drivers/STM32F2xx_HAL_Driver/Src/stm32f2xx_hal_dma.c **** }
 1196              		.loc 1 597 10 is_stmt 0 view .LVU419
 1197 0022 0020     		movs	r0, #0
 1198              	.LVL108:
 598:Drivers/STM32F2xx_HAL_Driver/Src/stm32f2xx_hal_dma.c **** 
 1199              		.loc 1 598 1 view .LVU420
 1200 0024 7047     		bx	lr
 1201              		.cfi_endproc
 1202              	.LFE77:
 1204              		.section	.text.HAL_DMA_PollForTransfer,"ax",%progbits
 1205              		.align	1
 1206              		.global	HAL_DMA_PollForTransfer
 1207              		.syntax unified
 1208              		.thumb
 1209              		.thumb_func
 1210              		.fpu softvfp
 1212              	HAL_DMA_PollForTransfer:
 1213              	.LVL109:
 1214              	.LFB78:
 612:Drivers/STM32F2xx_HAL_Driver/Src/stm32f2xx_hal_dma.c ****   HAL_StatusTypeDef status = HAL_OK; 
 1215              		.loc 1 612 1 is_stmt 1 view -0
 1216              		.cfi_startproc
 1217              		@ args = 0, pretend = 0, frame = 0
 1218              		@ frame_needed = 0, uses_anonymous_args = 0
ARM GAS  C:\Users\User\AppData\Local\Temp\cc2bsKoj.s 			page 51


 612:Drivers/STM32F2xx_HAL_Driver/Src/stm32f2xx_hal_dma.c ****   HAL_StatusTypeDef status = HAL_OK; 
 1219              		.loc 1 612 1 is_stmt 0 view .LVU422
 1220 0000 2DE9F843 		push	{r3, r4, r5, r6, r7, r8, r9, lr}
 1221              	.LCFI13:
 1222              		.cfi_def_cfa_offset 32
 1223              		.cfi_offset 3, -32
 1224              		.cfi_offset 4, -28
 1225              		.cfi_offset 5, -24
 1226              		.cfi_offset 6, -20
 1227              		.cfi_offset 7, -16
 1228              		.cfi_offset 8, -12
 1229              		.cfi_offset 9, -8
 1230              		.cfi_offset 14, -4
 1231 0004 0446     		mov	r4, r0
 1232 0006 8946     		mov	r9, r1
 1233 0008 1646     		mov	r6, r2
 613:Drivers/STM32F2xx_HAL_Driver/Src/stm32f2xx_hal_dma.c ****   uint32_t mask_cpltlevel;
 1234              		.loc 1 613 3 is_stmt 1 view .LVU423
 1235              	.LVL110:
 614:Drivers/STM32F2xx_HAL_Driver/Src/stm32f2xx_hal_dma.c ****   uint32_t tickstart = HAL_GetTick(); 
 1236              		.loc 1 614 3 view .LVU424
 615:Drivers/STM32F2xx_HAL_Driver/Src/stm32f2xx_hal_dma.c ****   uint32_t tmpisr;
 1237              		.loc 1 615 3 view .LVU425
 615:Drivers/STM32F2xx_HAL_Driver/Src/stm32f2xx_hal_dma.c ****   uint32_t tmpisr;
 1238              		.loc 1 615 24 is_stmt 0 view .LVU426
 1239 000a FFF7FEFF 		bl	HAL_GetTick
 1240              	.LVL111:
 616:Drivers/STM32F2xx_HAL_Driver/Src/stm32f2xx_hal_dma.c ****   
 1241              		.loc 1 616 3 is_stmt 1 view .LVU427
 619:Drivers/STM32F2xx_HAL_Driver/Src/stm32f2xx_hal_dma.c **** 
 1242              		.loc 1 619 3 view .LVU428
 621:Drivers/STM32F2xx_HAL_Driver/Src/stm32f2xx_hal_dma.c ****   {
 1243              		.loc 1 621 3 view .LVU429
 621:Drivers/STM32F2xx_HAL_Driver/Src/stm32f2xx_hal_dma.c ****   {
 1244              		.loc 1 621 32 is_stmt 0 view .LVU430
 1245 000e 94F83530 		ldrb	r3, [r4, #53]	@ zero_extendqisi2
 1246 0012 DBB2     		uxtb	r3, r3
 621:Drivers/STM32F2xx_HAL_Driver/Src/stm32f2xx_hal_dma.c ****   {
 1247              		.loc 1 621 5 view .LVU431
 1248 0014 022B     		cmp	r3, #2
 1249 0016 07D0     		beq	.L80
 624:Drivers/STM32F2xx_HAL_Driver/Src/stm32f2xx_hal_dma.c ****     __HAL_UNLOCK(hdma);
 1250              		.loc 1 624 5 is_stmt 1 view .LVU432
 624:Drivers/STM32F2xx_HAL_Driver/Src/stm32f2xx_hal_dma.c ****     __HAL_UNLOCK(hdma);
 1251              		.loc 1 624 21 is_stmt 0 view .LVU433
 1252 0018 8023     		movs	r3, #128
 1253 001a 6365     		str	r3, [r4, #84]
 625:Drivers/STM32F2xx_HAL_Driver/Src/stm32f2xx_hal_dma.c ****     return HAL_ERROR;
 1254              		.loc 1 625 5 is_stmt 1 view .LVU434
 625:Drivers/STM32F2xx_HAL_Driver/Src/stm32f2xx_hal_dma.c ****     return HAL_ERROR;
 1255              		.loc 1 625 5 view .LVU435
 1256 001c 0023     		movs	r3, #0
 1257 001e 84F83430 		strb	r3, [r4, #52]
 626:Drivers/STM32F2xx_HAL_Driver/Src/stm32f2xx_hal_dma.c ****   }
 1258              		.loc 1 626 5 view .LVU436
 626:Drivers/STM32F2xx_HAL_Driver/Src/stm32f2xx_hal_dma.c ****   }
 1259              		.loc 1 626 12 is_stmt 0 view .LVU437
ARM GAS  C:\Users\User\AppData\Local\Temp\cc2bsKoj.s 			page 52


 1260 0022 0120     		movs	r0, #1
 1261              	.LVL112:
 1262              	.L81:
 739:Drivers/STM32F2xx_HAL_Driver/Src/stm32f2xx_hal_dma.c **** 
 1263              		.loc 1 739 1 view .LVU438
 1264 0024 BDE8F883 		pop	{r3, r4, r5, r6, r7, r8, r9, pc}
 1265              	.LVL113:
 1266              	.L80:
 739:Drivers/STM32F2xx_HAL_Driver/Src/stm32f2xx_hal_dma.c **** 
 1267              		.loc 1 739 1 view .LVU439
 1268 0028 8046     		mov	r8, r0
 630:Drivers/STM32F2xx_HAL_Driver/Src/stm32f2xx_hal_dma.c ****   {
 1269              		.loc 1 630 3 is_stmt 1 view .LVU440
 630:Drivers/STM32F2xx_HAL_Driver/Src/stm32f2xx_hal_dma.c ****   {
 1270              		.loc 1 630 12 is_stmt 0 view .LVU441
 1271 002a 2368     		ldr	r3, [r4]
 630:Drivers/STM32F2xx_HAL_Driver/Src/stm32f2xx_hal_dma.c ****   {
 1272              		.loc 1 630 22 view .LVU442
 1273 002c 1B68     		ldr	r3, [r3]
 630:Drivers/STM32F2xx_HAL_Driver/Src/stm32f2xx_hal_dma.c ****   {
 1274              		.loc 1 630 6 view .LVU443
 1275 002e 13F4807F 		tst	r3, #256
 1276 0032 38D1     		bne	.L96
 637:Drivers/STM32F2xx_HAL_Driver/Src/stm32f2xx_hal_dma.c ****   {
 1277              		.loc 1 637 3 is_stmt 1 view .LVU444
 637:Drivers/STM32F2xx_HAL_Driver/Src/stm32f2xx_hal_dma.c ****   {
 1278              		.loc 1 637 5 is_stmt 0 view .LVU445
 1279 0034 B9F1000F 		cmp	r9, #0
 1280 0038 3AD1     		bne	.L83
 640:Drivers/STM32F2xx_HAL_Driver/Src/stm32f2xx_hal_dma.c ****   }
 1281              		.loc 1 640 5 is_stmt 1 view .LVU446
 640:Drivers/STM32F2xx_HAL_Driver/Src/stm32f2xx_hal_dma.c ****   }
 1282              		.loc 1 640 46 is_stmt 0 view .LVU447
 1283 003a E36D     		ldr	r3, [r4, #92]
 640:Drivers/STM32F2xx_HAL_Driver/Src/stm32f2xx_hal_dma.c ****   }
 1284              		.loc 1 640 20 view .LVU448
 1285 003c 2027     		movs	r7, #32
 1286 003e 9F40     		lsls	r7, r7, r3
 1287              	.LVL114:
 1288              	.L84:
 648:Drivers/STM32F2xx_HAL_Driver/Src/stm32f2xx_hal_dma.c ****   tmpisr = regs->ISR;
 1289              		.loc 1 648 3 is_stmt 1 view .LVU449
 648:Drivers/STM32F2xx_HAL_Driver/Src/stm32f2xx_hal_dma.c ****   tmpisr = regs->ISR;
 1290              		.loc 1 648 36 is_stmt 0 view .LVU450
 1291 0040 A56D     		ldr	r5, [r4, #88]
 1292              	.LVL115:
 649:Drivers/STM32F2xx_HAL_Driver/Src/stm32f2xx_hal_dma.c ****   
 1293              		.loc 1 649 3 is_stmt 1 view .LVU451
 649:Drivers/STM32F2xx_HAL_Driver/Src/stm32f2xx_hal_dma.c ****   
 1294              		.loc 1 649 10 is_stmt 0 view .LVU452
 1295 0042 2B68     		ldr	r3, [r5]
 1296              	.LVL116:
 651:Drivers/STM32F2xx_HAL_Driver/Src/stm32f2xx_hal_dma.c ****   {
 1297              		.loc 1 651 3 is_stmt 1 view .LVU453
 1298              	.L85:
 651:Drivers/STM32F2xx_HAL_Driver/Src/stm32f2xx_hal_dma.c ****   {
 1299              		.loc 1 651 8 is_stmt 0 view .LVU454
ARM GAS  C:\Users\User\AppData\Local\Temp\cc2bsKoj.s 			page 53


 1300 0044 1F42     		tst	r7, r3
 1301 0046 41D1     		bne	.L91
 651:Drivers/STM32F2xx_HAL_Driver/Src/stm32f2xx_hal_dma.c ****   {
 1302              		.loc 1 651 55 discriminator 1 view .LVU455
 1303 0048 636D     		ldr	r3, [r4, #84]
 1304              	.LVL117:
 651:Drivers/STM32F2xx_HAL_Driver/Src/stm32f2xx_hal_dma.c ****   {
 1305              		.loc 1 651 46 discriminator 1 view .LVU456
 1306 004a 13F0010F 		tst	r3, #1
 1307 004e 3DD1     		bne	.L91
 654:Drivers/STM32F2xx_HAL_Driver/Src/stm32f2xx_hal_dma.c ****     {
 1308              		.loc 1 654 5 is_stmt 1 view .LVU457
 654:Drivers/STM32F2xx_HAL_Driver/Src/stm32f2xx_hal_dma.c ****     {
 1309              		.loc 1 654 7 is_stmt 0 view .LVU458
 1310 0050 B6F1FF3F 		cmp	r6, #-1
 1311 0054 07D0     		beq	.L86
 656:Drivers/STM32F2xx_HAL_Driver/Src/stm32f2xx_hal_dma.c ****       {
 1312              		.loc 1 656 7 is_stmt 1 view .LVU459
 656:Drivers/STM32F2xx_HAL_Driver/Src/stm32f2xx_hal_dma.c ****       {
 1313              		.loc 1 656 9 is_stmt 0 view .LVU460
 1314 0056 002E     		cmp	r6, #0
 1315 0058 2ED0     		beq	.L87
 656:Drivers/STM32F2xx_HAL_Driver/Src/stm32f2xx_hal_dma.c ****       {
 1316              		.loc 1 656 29 discriminator 1 view .LVU461
 1317 005a FFF7FEFF 		bl	HAL_GetTick
 1318              	.LVL118:
 656:Drivers/STM32F2xx_HAL_Driver/Src/stm32f2xx_hal_dma.c ****       {
 1319              		.loc 1 656 43 discriminator 1 view .LVU462
 1320 005e A0EB0800 		sub	r0, r0, r8
 656:Drivers/STM32F2xx_HAL_Driver/Src/stm32f2xx_hal_dma.c ****       {
 1321              		.loc 1 656 25 discriminator 1 view .LVU463
 1322 0062 B042     		cmp	r0, r6
 1323 0064 28D8     		bhi	.L87
 1324              	.L86:
 672:Drivers/STM32F2xx_HAL_Driver/Src/stm32f2xx_hal_dma.c **** 
 1325              		.loc 1 672 5 is_stmt 1 view .LVU464
 672:Drivers/STM32F2xx_HAL_Driver/Src/stm32f2xx_hal_dma.c **** 
 1326              		.loc 1 672 12 is_stmt 0 view .LVU465
 1327 0066 2B68     		ldr	r3, [r5]
 1328              	.LVL119:
 674:Drivers/STM32F2xx_HAL_Driver/Src/stm32f2xx_hal_dma.c ****     {
 1329              		.loc 1 674 5 is_stmt 1 view .LVU466
 674:Drivers/STM32F2xx_HAL_Driver/Src/stm32f2xx_hal_dma.c ****     {
 1330              		.loc 1 674 43 is_stmt 0 view .LVU467
 1331 0068 E16D     		ldr	r1, [r4, #92]
 674:Drivers/STM32F2xx_HAL_Driver/Src/stm32f2xx_hal_dma.c ****     {
 1332              		.loc 1 674 36 view .LVU468
 1333 006a 0822     		movs	r2, #8
 1334 006c 8A40     		lsls	r2, r2, r1
 674:Drivers/STM32F2xx_HAL_Driver/Src/stm32f2xx_hal_dma.c ****     {
 1335              		.loc 1 674 7 view .LVU469
 1336 006e 1A42     		tst	r2, r3
 1337 0070 04D0     		beq	.L88
 677:Drivers/STM32F2xx_HAL_Driver/Src/stm32f2xx_hal_dma.c ****       
 1338              		.loc 1 677 7 is_stmt 1 view .LVU470
 677:Drivers/STM32F2xx_HAL_Driver/Src/stm32f2xx_hal_dma.c ****       
 1339              		.loc 1 677 23 is_stmt 0 view .LVU471
ARM GAS  C:\Users\User\AppData\Local\Temp\cc2bsKoj.s 			page 54


 1340 0072 616D     		ldr	r1, [r4, #84]
 1341 0074 41F00101 		orr	r1, r1, #1
 1342 0078 6165     		str	r1, [r4, #84]
 680:Drivers/STM32F2xx_HAL_Driver/Src/stm32f2xx_hal_dma.c ****     }
 1343              		.loc 1 680 7 is_stmt 1 view .LVU472
 680:Drivers/STM32F2xx_HAL_Driver/Src/stm32f2xx_hal_dma.c ****     }
 1344              		.loc 1 680 18 is_stmt 0 view .LVU473
 1345 007a AA60     		str	r2, [r5, #8]
 1346              	.L88:
 683:Drivers/STM32F2xx_HAL_Driver/Src/stm32f2xx_hal_dma.c ****     {
 1347              		.loc 1 683 5 is_stmt 1 view .LVU474
 683:Drivers/STM32F2xx_HAL_Driver/Src/stm32f2xx_hal_dma.c ****     {
 1348              		.loc 1 683 43 is_stmt 0 view .LVU475
 1349 007c E16D     		ldr	r1, [r4, #92]
 683:Drivers/STM32F2xx_HAL_Driver/Src/stm32f2xx_hal_dma.c ****     {
 1350              		.loc 1 683 36 view .LVU476
 1351 007e 0122     		movs	r2, #1
 1352 0080 8A40     		lsls	r2, r2, r1
 683:Drivers/STM32F2xx_HAL_Driver/Src/stm32f2xx_hal_dma.c ****     {
 1353              		.loc 1 683 7 view .LVU477
 1354 0082 1A42     		tst	r2, r3
 1355 0084 04D0     		beq	.L89
 686:Drivers/STM32F2xx_HAL_Driver/Src/stm32f2xx_hal_dma.c ****       
 1356              		.loc 1 686 7 is_stmt 1 view .LVU478
 686:Drivers/STM32F2xx_HAL_Driver/Src/stm32f2xx_hal_dma.c ****       
 1357              		.loc 1 686 23 is_stmt 0 view .LVU479
 1358 0086 616D     		ldr	r1, [r4, #84]
 1359 0088 41F00201 		orr	r1, r1, #2
 1360 008c 6165     		str	r1, [r4, #84]
 689:Drivers/STM32F2xx_HAL_Driver/Src/stm32f2xx_hal_dma.c ****     }
 1361              		.loc 1 689 7 is_stmt 1 view .LVU480
 689:Drivers/STM32F2xx_HAL_Driver/Src/stm32f2xx_hal_dma.c ****     }
 1362              		.loc 1 689 18 is_stmt 0 view .LVU481
 1363 008e AA60     		str	r2, [r5, #8]
 1364              	.L89:
 692:Drivers/STM32F2xx_HAL_Driver/Src/stm32f2xx_hal_dma.c ****     {
 1365              		.loc 1 692 5 is_stmt 1 view .LVU482
 692:Drivers/STM32F2xx_HAL_Driver/Src/stm32f2xx_hal_dma.c ****     {
 1366              		.loc 1 692 44 is_stmt 0 view .LVU483
 1367 0090 E16D     		ldr	r1, [r4, #92]
 692:Drivers/STM32F2xx_HAL_Driver/Src/stm32f2xx_hal_dma.c ****     {
 1368              		.loc 1 692 37 view .LVU484
 1369 0092 0422     		movs	r2, #4
 1370 0094 8A40     		lsls	r2, r2, r1
 692:Drivers/STM32F2xx_HAL_Driver/Src/stm32f2xx_hal_dma.c ****     {
 1371              		.loc 1 692 7 view .LVU485
 1372 0096 1A42     		tst	r2, r3
 1373 0098 D4D0     		beq	.L85
 695:Drivers/STM32F2xx_HAL_Driver/Src/stm32f2xx_hal_dma.c ****       
 1374              		.loc 1 695 7 is_stmt 1 view .LVU486
 695:Drivers/STM32F2xx_HAL_Driver/Src/stm32f2xx_hal_dma.c ****       
 1375              		.loc 1 695 23 is_stmt 0 view .LVU487
 1376 009a 616D     		ldr	r1, [r4, #84]
 1377 009c 41F00401 		orr	r1, r1, #4
 1378 00a0 6165     		str	r1, [r4, #84]
 698:Drivers/STM32F2xx_HAL_Driver/Src/stm32f2xx_hal_dma.c ****     }
 1379              		.loc 1 698 7 is_stmt 1 view .LVU488
ARM GAS  C:\Users\User\AppData\Local\Temp\cc2bsKoj.s 			page 55


 698:Drivers/STM32F2xx_HAL_Driver/Src/stm32f2xx_hal_dma.c ****     }
 1380              		.loc 1 698 18 is_stmt 0 view .LVU489
 1381 00a2 AA60     		str	r2, [r5, #8]
 1382 00a4 CEE7     		b	.L85
 1383              	.LVL120:
 1384              	.L96:
 632:Drivers/STM32F2xx_HAL_Driver/Src/stm32f2xx_hal_dma.c ****     return HAL_ERROR;
 1385              		.loc 1 632 5 is_stmt 1 view .LVU490
 632:Drivers/STM32F2xx_HAL_Driver/Src/stm32f2xx_hal_dma.c ****     return HAL_ERROR;
 1386              		.loc 1 632 21 is_stmt 0 view .LVU491
 1387 00a6 4FF48073 		mov	r3, #256
 1388 00aa 6365     		str	r3, [r4, #84]
 633:Drivers/STM32F2xx_HAL_Driver/Src/stm32f2xx_hal_dma.c ****   }
 1389              		.loc 1 633 5 is_stmt 1 view .LVU492
 633:Drivers/STM32F2xx_HAL_Driver/Src/stm32f2xx_hal_dma.c ****   }
 1390              		.loc 1 633 12 is_stmt 0 view .LVU493
 1391 00ac 0120     		movs	r0, #1
 1392              	.LVL121:
 633:Drivers/STM32F2xx_HAL_Driver/Src/stm32f2xx_hal_dma.c ****   }
 1393              		.loc 1 633 12 view .LVU494
 1394 00ae B9E7     		b	.L81
 1395              	.LVL122:
 1396              	.L83:
 645:Drivers/STM32F2xx_HAL_Driver/Src/stm32f2xx_hal_dma.c ****   }
 1397              		.loc 1 645 5 is_stmt 1 view .LVU495
 645:Drivers/STM32F2xx_HAL_Driver/Src/stm32f2xx_hal_dma.c ****   }
 1398              		.loc 1 645 46 is_stmt 0 view .LVU496
 1399 00b0 E36D     		ldr	r3, [r4, #92]
 645:Drivers/STM32F2xx_HAL_Driver/Src/stm32f2xx_hal_dma.c ****   }
 1400              		.loc 1 645 20 view .LVU497
 1401 00b2 1027     		movs	r7, #16
 1402 00b4 9F40     		lsls	r7, r7, r3
 1403              	.LVL123:
 645:Drivers/STM32F2xx_HAL_Driver/Src/stm32f2xx_hal_dma.c ****   }
 1404              		.loc 1 645 20 view .LVU498
 1405 00b6 C3E7     		b	.L84
 1406              	.LVL124:
 1407              	.L87:
 659:Drivers/STM32F2xx_HAL_Driver/Src/stm32f2xx_hal_dma.c **** 
 1408              		.loc 1 659 9 is_stmt 1 view .LVU499
 659:Drivers/STM32F2xx_HAL_Driver/Src/stm32f2xx_hal_dma.c **** 
 1409              		.loc 1 659 25 is_stmt 0 view .LVU500
 1410 00b8 2023     		movs	r3, #32
 1411 00ba 6365     		str	r3, [r4, #84]
 662:Drivers/STM32F2xx_HAL_Driver/Src/stm32f2xx_hal_dma.c ****         
 1412              		.loc 1 662 9 is_stmt 1 view .LVU501
 662:Drivers/STM32F2xx_HAL_Driver/Src/stm32f2xx_hal_dma.c ****         
 1413              		.loc 1 662 9 view .LVU502
 1414 00bc 0023     		movs	r3, #0
 1415 00be 84F83430 		strb	r3, [r4, #52]
 665:Drivers/STM32F2xx_HAL_Driver/Src/stm32f2xx_hal_dma.c ****         
 1416              		.loc 1 665 9 view .LVU503
 665:Drivers/STM32F2xx_HAL_Driver/Src/stm32f2xx_hal_dma.c ****         
 1417              		.loc 1 665 21 is_stmt 0 view .LVU504
 1418 00c2 0123     		movs	r3, #1
 1419 00c4 84F83530 		strb	r3, [r4, #53]
 667:Drivers/STM32F2xx_HAL_Driver/Src/stm32f2xx_hal_dma.c ****       }
ARM GAS  C:\Users\User\AppData\Local\Temp\cc2bsKoj.s 			page 56


 1420              		.loc 1 667 9 is_stmt 1 view .LVU505
 667:Drivers/STM32F2xx_HAL_Driver/Src/stm32f2xx_hal_dma.c ****       }
 1421              		.loc 1 667 16 is_stmt 0 view .LVU506
 1422 00c8 0320     		movs	r0, #3
 1423 00ca ABE7     		b	.L81
 1424              	.L91:
 702:Drivers/STM32F2xx_HAL_Driver/Src/stm32f2xx_hal_dma.c ****   {
 1425              		.loc 1 702 3 is_stmt 1 view .LVU507
 702:Drivers/STM32F2xx_HAL_Driver/Src/stm32f2xx_hal_dma.c ****   {
 1426              		.loc 1 702 10 is_stmt 0 view .LVU508
 1427 00cc 636D     		ldr	r3, [r4, #84]
 702:Drivers/STM32F2xx_HAL_Driver/Src/stm32f2xx_hal_dma.c ****   {
 1428              		.loc 1 702 5 view .LVU509
 1429 00ce 1BB1     		cbz	r3, .L93
 704:Drivers/STM32F2xx_HAL_Driver/Src/stm32f2xx_hal_dma.c ****     {
 1430              		.loc 1 704 5 is_stmt 1 view .LVU510
 704:Drivers/STM32F2xx_HAL_Driver/Src/stm32f2xx_hal_dma.c ****     {
 1431              		.loc 1 704 13 is_stmt 0 view .LVU511
 1432 00d0 636D     		ldr	r3, [r4, #84]
 704:Drivers/STM32F2xx_HAL_Driver/Src/stm32f2xx_hal_dma.c ****     {
 1433              		.loc 1 704 7 view .LVU512
 1434 00d2 13F0010F 		tst	r3, #1
 1435 00d6 0DD1     		bne	.L97
 1436              	.L93:
 722:Drivers/STM32F2xx_HAL_Driver/Src/stm32f2xx_hal_dma.c ****   {
 1437              		.loc 1 722 3 is_stmt 1 view .LVU513
 722:Drivers/STM32F2xx_HAL_Driver/Src/stm32f2xx_hal_dma.c ****   {
 1438              		.loc 1 722 5 is_stmt 0 view .LVU514
 1439 00d8 B9F1000F 		cmp	r9, #0
 1440 00dc 18D1     		bne	.L94
 725:Drivers/STM32F2xx_HAL_Driver/Src/stm32f2xx_hal_dma.c ****     
 1441              		.loc 1 725 5 is_stmt 1 view .LVU515
 725:Drivers/STM32F2xx_HAL_Driver/Src/stm32f2xx_hal_dma.c ****     
 1442              		.loc 1 725 63 is_stmt 0 view .LVU516
 1443 00de E26D     		ldr	r2, [r4, #92]
 725:Drivers/STM32F2xx_HAL_Driver/Src/stm32f2xx_hal_dma.c ****     
 1444              		.loc 1 725 56 view .LVU517
 1445 00e0 3023     		movs	r3, #48
 1446 00e2 9340     		lsls	r3, r3, r2
 725:Drivers/STM32F2xx_HAL_Driver/Src/stm32f2xx_hal_dma.c ****     
 1447              		.loc 1 725 16 view .LVU518
 1448 00e4 AB60     		str	r3, [r5, #8]
 728:Drivers/STM32F2xx_HAL_Driver/Src/stm32f2xx_hal_dma.c **** 
 1449              		.loc 1 728 5 is_stmt 1 view .LVU519
 728:Drivers/STM32F2xx_HAL_Driver/Src/stm32f2xx_hal_dma.c **** 
 1450              		.loc 1 728 5 view .LVU520
 1451 00e6 0020     		movs	r0, #0
 1452 00e8 84F83400 		strb	r0, [r4, #52]
 730:Drivers/STM32F2xx_HAL_Driver/Src/stm32f2xx_hal_dma.c ****   }
 1453              		.loc 1 730 5 view .LVU521
 730:Drivers/STM32F2xx_HAL_Driver/Src/stm32f2xx_hal_dma.c ****   }
 1454              		.loc 1 730 17 is_stmt 0 view .LVU522
 1455 00ec 0123     		movs	r3, #1
 1456 00ee 84F83530 		strb	r3, [r4, #53]
 1457 00f2 97E7     		b	.L81
 1458              	.L97:
 706:Drivers/STM32F2xx_HAL_Driver/Src/stm32f2xx_hal_dma.c ****     
ARM GAS  C:\Users\User\AppData\Local\Temp\cc2bsKoj.s 			page 57


 1459              		.loc 1 706 7 is_stmt 1 view .LVU523
 1460 00f4 2046     		mov	r0, r4
 1461 00f6 FFF7FEFF 		bl	HAL_DMA_Abort
 1462              	.LVL125:
 709:Drivers/STM32F2xx_HAL_Driver/Src/stm32f2xx_hal_dma.c ****     
 1463              		.loc 1 709 7 view .LVU524
 709:Drivers/STM32F2xx_HAL_Driver/Src/stm32f2xx_hal_dma.c ****     
 1464              		.loc 1 709 65 is_stmt 0 view .LVU525
 1465 00fa E26D     		ldr	r2, [r4, #92]
 709:Drivers/STM32F2xx_HAL_Driver/Src/stm32f2xx_hal_dma.c ****     
 1466              		.loc 1 709 58 view .LVU526
 1467 00fc 3023     		movs	r3, #48
 1468 00fe 9340     		lsls	r3, r3, r2
 709:Drivers/STM32F2xx_HAL_Driver/Src/stm32f2xx_hal_dma.c ****     
 1469              		.loc 1 709 18 view .LVU527
 1470 0100 AB60     		str	r3, [r5, #8]
 712:Drivers/STM32F2xx_HAL_Driver/Src/stm32f2xx_hal_dma.c **** 
 1471              		.loc 1 712 7 is_stmt 1 view .LVU528
 712:Drivers/STM32F2xx_HAL_Driver/Src/stm32f2xx_hal_dma.c **** 
 1472              		.loc 1 712 7 view .LVU529
 1473 0102 0023     		movs	r3, #0
 1474 0104 84F83430 		strb	r3, [r4, #52]
 715:Drivers/STM32F2xx_HAL_Driver/Src/stm32f2xx_hal_dma.c **** 
 1475              		.loc 1 715 7 view .LVU530
 715:Drivers/STM32F2xx_HAL_Driver/Src/stm32f2xx_hal_dma.c **** 
 1476              		.loc 1 715 18 is_stmt 0 view .LVU531
 1477 0108 0120     		movs	r0, #1
 1478 010a 84F83500 		strb	r0, [r4, #53]
 717:Drivers/STM32F2xx_HAL_Driver/Src/stm32f2xx_hal_dma.c ****    }
 1479              		.loc 1 717 7 is_stmt 1 view .LVU532
 717:Drivers/STM32F2xx_HAL_Driver/Src/stm32f2xx_hal_dma.c ****    }
 1480              		.loc 1 717 14 is_stmt 0 view .LVU533
 1481 010e 89E7     		b	.L81
 1482              	.L94:
 735:Drivers/STM32F2xx_HAL_Driver/Src/stm32f2xx_hal_dma.c ****   }
 1483              		.loc 1 735 5 is_stmt 1 view .LVU534
 735:Drivers/STM32F2xx_HAL_Driver/Src/stm32f2xx_hal_dma.c ****   }
 1484              		.loc 1 735 44 is_stmt 0 view .LVU535
 1485 0110 E26D     		ldr	r2, [r4, #92]
 735:Drivers/STM32F2xx_HAL_Driver/Src/stm32f2xx_hal_dma.c ****   }
 1486              		.loc 1 735 37 view .LVU536
 1487 0112 1023     		movs	r3, #16
 1488 0114 9340     		lsls	r3, r3, r2
 735:Drivers/STM32F2xx_HAL_Driver/Src/stm32f2xx_hal_dma.c ****   }
 1489              		.loc 1 735 16 view .LVU537
 1490 0116 AB60     		str	r3, [r5, #8]
 738:Drivers/STM32F2xx_HAL_Driver/Src/stm32f2xx_hal_dma.c **** }
 1491              		.loc 1 738 10 view .LVU538
 1492 0118 0020     		movs	r0, #0
 1493 011a 83E7     		b	.L81
 1494              		.cfi_endproc
 1495              	.LFE78:
 1497              		.section	.text.HAL_DMA_IRQHandler,"ax",%progbits
 1498              		.align	1
 1499              		.global	HAL_DMA_IRQHandler
 1500              		.syntax unified
 1501              		.thumb
ARM GAS  C:\Users\User\AppData\Local\Temp\cc2bsKoj.s 			page 58


 1502              		.thumb_func
 1503              		.fpu softvfp
 1505              	HAL_DMA_IRQHandler:
 1506              	.LVL126:
 1507              	.LFB79:
 748:Drivers/STM32F2xx_HAL_Driver/Src/stm32f2xx_hal_dma.c ****   uint32_t tmpisr;
 1508              		.loc 1 748 1 is_stmt 1 view -0
 1509              		.cfi_startproc
 1510              		@ args = 0, pretend = 0, frame = 8
 1511              		@ frame_needed = 0, uses_anonymous_args = 0
 748:Drivers/STM32F2xx_HAL_Driver/Src/stm32f2xx_hal_dma.c ****   uint32_t tmpisr;
 1512              		.loc 1 748 1 is_stmt 0 view .LVU540
 1513 0000 F0B5     		push	{r4, r5, r6, r7, lr}
 1514              	.LCFI14:
 1515              		.cfi_def_cfa_offset 20
 1516              		.cfi_offset 4, -20
 1517              		.cfi_offset 5, -16
 1518              		.cfi_offset 6, -12
 1519              		.cfi_offset 7, -8
 1520              		.cfi_offset 14, -4
 1521 0002 83B0     		sub	sp, sp, #12
 1522              	.LCFI15:
 1523              		.cfi_def_cfa_offset 32
 1524 0004 0446     		mov	r4, r0
 749:Drivers/STM32F2xx_HAL_Driver/Src/stm32f2xx_hal_dma.c ****   __IO uint32_t count = 0U;
 1525              		.loc 1 749 3 is_stmt 1 view .LVU541
 750:Drivers/STM32F2xx_HAL_Driver/Src/stm32f2xx_hal_dma.c ****   uint32_t timeout = SystemCoreClock / 9600U;
 1526              		.loc 1 750 3 view .LVU542
 750:Drivers/STM32F2xx_HAL_Driver/Src/stm32f2xx_hal_dma.c ****   uint32_t timeout = SystemCoreClock / 9600U;
 1527              		.loc 1 750 17 is_stmt 0 view .LVU543
 1528 0006 0023     		movs	r3, #0
 1529 0008 0193     		str	r3, [sp, #4]
 751:Drivers/STM32F2xx_HAL_Driver/Src/stm32f2xx_hal_dma.c **** 
 1530              		.loc 1 751 3 is_stmt 1 view .LVU544
 751:Drivers/STM32F2xx_HAL_Driver/Src/stm32f2xx_hal_dma.c **** 
 1531              		.loc 1 751 38 is_stmt 0 view .LVU545
 1532 000a 724B     		ldr	r3, .L121
 1533 000c 1D68     		ldr	r5, [r3]
 751:Drivers/STM32F2xx_HAL_Driver/Src/stm32f2xx_hal_dma.c **** 
 1534              		.loc 1 751 12 view .LVU546
 1535 000e 724B     		ldr	r3, .L121+4
 1536 0010 A3FB0535 		umull	r3, r5, r3, r5
 1537 0014 AD0A     		lsrs	r5, r5, #10
 1538              	.LVL127:
 754:Drivers/STM32F2xx_HAL_Driver/Src/stm32f2xx_hal_dma.c **** 
 1539              		.loc 1 754 3 is_stmt 1 view .LVU547
 754:Drivers/STM32F2xx_HAL_Driver/Src/stm32f2xx_hal_dma.c **** 
 1540              		.loc 1 754 56 is_stmt 0 view .LVU548
 1541 0016 876D     		ldr	r7, [r0, #88]
 1542              	.LVL128:
 756:Drivers/STM32F2xx_HAL_Driver/Src/stm32f2xx_hal_dma.c **** 
 1543              		.loc 1 756 3 is_stmt 1 view .LVU549
 756:Drivers/STM32F2xx_HAL_Driver/Src/stm32f2xx_hal_dma.c **** 
 1544              		.loc 1 756 10 is_stmt 0 view .LVU550
 1545 0018 3E68     		ldr	r6, [r7]
 1546              	.LVL129:
 759:Drivers/STM32F2xx_HAL_Driver/Src/stm32f2xx_hal_dma.c ****   {
ARM GAS  C:\Users\User\AppData\Local\Temp\cc2bsKoj.s 			page 59


 1547              		.loc 1 759 3 is_stmt 1 view .LVU551
 759:Drivers/STM32F2xx_HAL_Driver/Src/stm32f2xx_hal_dma.c ****   {
 1548              		.loc 1 759 42 is_stmt 0 view .LVU552
 1549 001a C26D     		ldr	r2, [r0, #92]
 759:Drivers/STM32F2xx_HAL_Driver/Src/stm32f2xx_hal_dma.c ****   {
 1550              		.loc 1 759 35 view .LVU553
 1551 001c 0823     		movs	r3, #8
 1552 001e 9340     		lsls	r3, r3, r2
 759:Drivers/STM32F2xx_HAL_Driver/Src/stm32f2xx_hal_dma.c ****   {
 1553              		.loc 1 759 6 view .LVU554
 1554 0020 3342     		tst	r3, r6
 1555 0022 10D0     		beq	.L99
 761:Drivers/STM32F2xx_HAL_Driver/Src/stm32f2xx_hal_dma.c ****     {
 1556              		.loc 1 761 5 is_stmt 1 view .LVU555
 761:Drivers/STM32F2xx_HAL_Driver/Src/stm32f2xx_hal_dma.c ****     {
 1557              		.loc 1 761 8 is_stmt 0 view .LVU556
 1558 0024 0368     		ldr	r3, [r0]
 1559 0026 1A68     		ldr	r2, [r3]
 761:Drivers/STM32F2xx_HAL_Driver/Src/stm32f2xx_hal_dma.c ****     {
 1560              		.loc 1 761 7 view .LVU557
 1561 0028 12F0040F 		tst	r2, #4
 1562 002c 0BD0     		beq	.L99
 764:Drivers/STM32F2xx_HAL_Driver/Src/stm32f2xx_hal_dma.c ****       
 1563              		.loc 1 764 7 is_stmt 1 view .LVU558
 764:Drivers/STM32F2xx_HAL_Driver/Src/stm32f2xx_hal_dma.c ****       
 1564              		.loc 1 764 27 is_stmt 0 view .LVU559
 1565 002e 1A68     		ldr	r2, [r3]
 1566 0030 22F00402 		bic	r2, r2, #4
 1567 0034 1A60     		str	r2, [r3]
 767:Drivers/STM32F2xx_HAL_Driver/Src/stm32f2xx_hal_dma.c ****       
 1568              		.loc 1 767 7 is_stmt 1 view .LVU560
 767:Drivers/STM32F2xx_HAL_Driver/Src/stm32f2xx_hal_dma.c ****       
 1569              		.loc 1 767 44 is_stmt 0 view .LVU561
 1570 0036 C26D     		ldr	r2, [r0, #92]
 767:Drivers/STM32F2xx_HAL_Driver/Src/stm32f2xx_hal_dma.c ****       
 1571              		.loc 1 767 37 view .LVU562
 1572 0038 0823     		movs	r3, #8
 1573 003a 9340     		lsls	r3, r3, r2
 767:Drivers/STM32F2xx_HAL_Driver/Src/stm32f2xx_hal_dma.c ****       
 1574              		.loc 1 767 18 view .LVU563
 1575 003c BB60     		str	r3, [r7, #8]
 770:Drivers/STM32F2xx_HAL_Driver/Src/stm32f2xx_hal_dma.c ****     }
 1576              		.loc 1 770 7 is_stmt 1 view .LVU564
 770:Drivers/STM32F2xx_HAL_Driver/Src/stm32f2xx_hal_dma.c ****     }
 1577              		.loc 1 770 23 is_stmt 0 view .LVU565
 1578 003e 436D     		ldr	r3, [r0, #84]
 1579 0040 43F00103 		orr	r3, r3, #1
 1580 0044 4365     		str	r3, [r0, #84]
 1581              	.L99:
 774:Drivers/STM32F2xx_HAL_Driver/Src/stm32f2xx_hal_dma.c ****   {
 1582              		.loc 1 774 3 is_stmt 1 view .LVU566
 774:Drivers/STM32F2xx_HAL_Driver/Src/stm32f2xx_hal_dma.c ****   {
 1583              		.loc 1 774 42 is_stmt 0 view .LVU567
 1584 0046 E26D     		ldr	r2, [r4, #92]
 774:Drivers/STM32F2xx_HAL_Driver/Src/stm32f2xx_hal_dma.c ****   {
 1585              		.loc 1 774 35 view .LVU568
 1586 0048 0123     		movs	r3, #1
ARM GAS  C:\Users\User\AppData\Local\Temp\cc2bsKoj.s 			page 60


 1587 004a 9340     		lsls	r3, r3, r2
 774:Drivers/STM32F2xx_HAL_Driver/Src/stm32f2xx_hal_dma.c ****   {
 1588              		.loc 1 774 6 view .LVU569
 1589 004c 3342     		tst	r3, r6
 1590 004e 09D0     		beq	.L100
 776:Drivers/STM32F2xx_HAL_Driver/Src/stm32f2xx_hal_dma.c ****     {
 1591              		.loc 1 776 5 is_stmt 1 view .LVU570
 776:Drivers/STM32F2xx_HAL_Driver/Src/stm32f2xx_hal_dma.c ****     {
 1592              		.loc 1 776 8 is_stmt 0 view .LVU571
 1593 0050 2268     		ldr	r2, [r4]
 1594 0052 5269     		ldr	r2, [r2, #20]
 776:Drivers/STM32F2xx_HAL_Driver/Src/stm32f2xx_hal_dma.c ****     {
 1595              		.loc 1 776 7 view .LVU572
 1596 0054 12F0800F 		tst	r2, #128
 1597 0058 04D0     		beq	.L100
 779:Drivers/STM32F2xx_HAL_Driver/Src/stm32f2xx_hal_dma.c **** 
 1598              		.loc 1 779 7 is_stmt 1 view .LVU573
 779:Drivers/STM32F2xx_HAL_Driver/Src/stm32f2xx_hal_dma.c **** 
 1599              		.loc 1 779 18 is_stmt 0 view .LVU574
 1600 005a BB60     		str	r3, [r7, #8]
 782:Drivers/STM32F2xx_HAL_Driver/Src/stm32f2xx_hal_dma.c ****     }
 1601              		.loc 1 782 7 is_stmt 1 view .LVU575
 782:Drivers/STM32F2xx_HAL_Driver/Src/stm32f2xx_hal_dma.c ****     }
 1602              		.loc 1 782 23 is_stmt 0 view .LVU576
 1603 005c 636D     		ldr	r3, [r4, #84]
 1604 005e 43F00203 		orr	r3, r3, #2
 1605 0062 6365     		str	r3, [r4, #84]
 1606              	.L100:
 786:Drivers/STM32F2xx_HAL_Driver/Src/stm32f2xx_hal_dma.c ****   {
 1607              		.loc 1 786 3 is_stmt 1 view .LVU577
 786:Drivers/STM32F2xx_HAL_Driver/Src/stm32f2xx_hal_dma.c ****   {
 1608              		.loc 1 786 43 is_stmt 0 view .LVU578
 1609 0064 E26D     		ldr	r2, [r4, #92]
 786:Drivers/STM32F2xx_HAL_Driver/Src/stm32f2xx_hal_dma.c ****   {
 1610              		.loc 1 786 36 view .LVU579
 1611 0066 0423     		movs	r3, #4
 1612 0068 9340     		lsls	r3, r3, r2
 786:Drivers/STM32F2xx_HAL_Driver/Src/stm32f2xx_hal_dma.c ****   {
 1613              		.loc 1 786 6 view .LVU580
 1614 006a 3342     		tst	r3, r6
 1615 006c 09D0     		beq	.L101
 788:Drivers/STM32F2xx_HAL_Driver/Src/stm32f2xx_hal_dma.c ****     {
 1616              		.loc 1 788 5 is_stmt 1 view .LVU581
 788:Drivers/STM32F2xx_HAL_Driver/Src/stm32f2xx_hal_dma.c ****     {
 1617              		.loc 1 788 8 is_stmt 0 view .LVU582
 1618 006e 2268     		ldr	r2, [r4]
 1619 0070 1268     		ldr	r2, [r2]
 788:Drivers/STM32F2xx_HAL_Driver/Src/stm32f2xx_hal_dma.c ****     {
 1620              		.loc 1 788 7 view .LVU583
 1621 0072 12F0020F 		tst	r2, #2
 1622 0076 04D0     		beq	.L101
 791:Drivers/STM32F2xx_HAL_Driver/Src/stm32f2xx_hal_dma.c **** 
 1623              		.loc 1 791 7 is_stmt 1 view .LVU584
 791:Drivers/STM32F2xx_HAL_Driver/Src/stm32f2xx_hal_dma.c **** 
 1624              		.loc 1 791 18 is_stmt 0 view .LVU585
 1625 0078 BB60     		str	r3, [r7, #8]
 794:Drivers/STM32F2xx_HAL_Driver/Src/stm32f2xx_hal_dma.c ****     }
ARM GAS  C:\Users\User\AppData\Local\Temp\cc2bsKoj.s 			page 61


 1626              		.loc 1 794 7 is_stmt 1 view .LVU586
 794:Drivers/STM32F2xx_HAL_Driver/Src/stm32f2xx_hal_dma.c ****     }
 1627              		.loc 1 794 23 is_stmt 0 view .LVU587
 1628 007a 636D     		ldr	r3, [r4, #84]
 1629 007c 43F00403 		orr	r3, r3, #4
 1630 0080 6365     		str	r3, [r4, #84]
 1631              	.L101:
 798:Drivers/STM32F2xx_HAL_Driver/Src/stm32f2xx_hal_dma.c ****   {
 1632              		.loc 1 798 3 is_stmt 1 view .LVU588
 798:Drivers/STM32F2xx_HAL_Driver/Src/stm32f2xx_hal_dma.c ****   {
 1633              		.loc 1 798 42 is_stmt 0 view .LVU589
 1634 0082 E26D     		ldr	r2, [r4, #92]
 798:Drivers/STM32F2xx_HAL_Driver/Src/stm32f2xx_hal_dma.c ****   {
 1635              		.loc 1 798 35 view .LVU590
 1636 0084 1023     		movs	r3, #16
 1637 0086 9340     		lsls	r3, r3, r2
 798:Drivers/STM32F2xx_HAL_Driver/Src/stm32f2xx_hal_dma.c ****   {
 1638              		.loc 1 798 6 view .LVU591
 1639 0088 3342     		tst	r3, r6
 1640 008a 24D0     		beq	.L102
 800:Drivers/STM32F2xx_HAL_Driver/Src/stm32f2xx_hal_dma.c ****     {
 1641              		.loc 1 800 5 is_stmt 1 view .LVU592
 800:Drivers/STM32F2xx_HAL_Driver/Src/stm32f2xx_hal_dma.c ****     {
 1642              		.loc 1 800 8 is_stmt 0 view .LVU593
 1643 008c 2268     		ldr	r2, [r4]
 1644 008e 1268     		ldr	r2, [r2]
 800:Drivers/STM32F2xx_HAL_Driver/Src/stm32f2xx_hal_dma.c ****     {
 1645              		.loc 1 800 7 view .LVU594
 1646 0090 12F0080F 		tst	r2, #8
 1647 0094 1FD0     		beq	.L102
 803:Drivers/STM32F2xx_HAL_Driver/Src/stm32f2xx_hal_dma.c ****       
 1648              		.loc 1 803 7 is_stmt 1 view .LVU595
 803:Drivers/STM32F2xx_HAL_Driver/Src/stm32f2xx_hal_dma.c ****       
 1649              		.loc 1 803 18 is_stmt 0 view .LVU596
 1650 0096 BB60     		str	r3, [r7, #8]
 806:Drivers/STM32F2xx_HAL_Driver/Src/stm32f2xx_hal_dma.c ****       {
 1651              		.loc 1 806 7 is_stmt 1 view .LVU597
 806:Drivers/STM32F2xx_HAL_Driver/Src/stm32f2xx_hal_dma.c ****       {
 1652              		.loc 1 806 16 is_stmt 0 view .LVU598
 1653 0098 2368     		ldr	r3, [r4]
 806:Drivers/STM32F2xx_HAL_Driver/Src/stm32f2xx_hal_dma.c ****       {
 1654              		.loc 1 806 26 view .LVU599
 1655 009a 1A68     		ldr	r2, [r3]
 806:Drivers/STM32F2xx_HAL_Driver/Src/stm32f2xx_hal_dma.c ****       {
 1656              		.loc 1 806 9 view .LVU600
 1657 009c 12F4802F 		tst	r2, #262144
 1658 00a0 0DD0     		beq	.L103
 809:Drivers/STM32F2xx_HAL_Driver/Src/stm32f2xx_hal_dma.c ****         {
 1659              		.loc 1 809 9 is_stmt 1 view .LVU601
 809:Drivers/STM32F2xx_HAL_Driver/Src/stm32f2xx_hal_dma.c ****         {
 1660              		.loc 1 809 27 is_stmt 0 view .LVU602
 1661 00a2 1B68     		ldr	r3, [r3]
 809:Drivers/STM32F2xx_HAL_Driver/Src/stm32f2xx_hal_dma.c ****         {
 1662              		.loc 1 809 11 view .LVU603
 1663 00a4 13F4002F 		tst	r3, #524288
 1664 00a8 04D1     		bne	.L104
 811:Drivers/STM32F2xx_HAL_Driver/Src/stm32f2xx_hal_dma.c ****           {
ARM GAS  C:\Users\User\AppData\Local\Temp\cc2bsKoj.s 			page 62


 1665              		.loc 1 811 11 is_stmt 1 view .LVU604
 811:Drivers/STM32F2xx_HAL_Driver/Src/stm32f2xx_hal_dma.c ****           {
 1666              		.loc 1 811 18 is_stmt 0 view .LVU605
 1667 00aa 236C     		ldr	r3, [r4, #64]
 811:Drivers/STM32F2xx_HAL_Driver/Src/stm32f2xx_hal_dma.c ****           {
 1668              		.loc 1 811 13 view .LVU606
 1669 00ac 9BB1     		cbz	r3, .L102
 814:Drivers/STM32F2xx_HAL_Driver/Src/stm32f2xx_hal_dma.c ****           }
 1670              		.loc 1 814 13 is_stmt 1 view .LVU607
 1671 00ae 2046     		mov	r0, r4
 1672              	.LVL130:
 814:Drivers/STM32F2xx_HAL_Driver/Src/stm32f2xx_hal_dma.c ****           }
 1673              		.loc 1 814 13 is_stmt 0 view .LVU608
 1674 00b0 9847     		blx	r3
 1675              	.LVL131:
 1676 00b2 10E0     		b	.L102
 1677              	.LVL132:
 1678              	.L104:
 820:Drivers/STM32F2xx_HAL_Driver/Src/stm32f2xx_hal_dma.c ****           {
 1679              		.loc 1 820 11 is_stmt 1 view .LVU609
 820:Drivers/STM32F2xx_HAL_Driver/Src/stm32f2xx_hal_dma.c ****           {
 1680              		.loc 1 820 18 is_stmt 0 view .LVU610
 1681 00b4 A36C     		ldr	r3, [r4, #72]
 820:Drivers/STM32F2xx_HAL_Driver/Src/stm32f2xx_hal_dma.c ****           {
 1682              		.loc 1 820 13 view .LVU611
 1683 00b6 73B1     		cbz	r3, .L102
 823:Drivers/STM32F2xx_HAL_Driver/Src/stm32f2xx_hal_dma.c ****           }
 1684              		.loc 1 823 13 is_stmt 1 view .LVU612
 1685 00b8 2046     		mov	r0, r4
 1686              	.LVL133:
 823:Drivers/STM32F2xx_HAL_Driver/Src/stm32f2xx_hal_dma.c ****           }
 1687              		.loc 1 823 13 is_stmt 0 view .LVU613
 1688 00ba 9847     		blx	r3
 1689              	.LVL134:
 1690 00bc 0BE0     		b	.L102
 1691              	.LVL135:
 1692              	.L103:
 830:Drivers/STM32F2xx_HAL_Driver/Src/stm32f2xx_hal_dma.c ****         {
 1693              		.loc 1 830 9 is_stmt 1 view .LVU614
 830:Drivers/STM32F2xx_HAL_Driver/Src/stm32f2xx_hal_dma.c ****         {
 1694              		.loc 1 830 27 is_stmt 0 view .LVU615
 1695 00be 1A68     		ldr	r2, [r3]
 830:Drivers/STM32F2xx_HAL_Driver/Src/stm32f2xx_hal_dma.c ****         {
 1696              		.loc 1 830 11 view .LVU616
 1697 00c0 12F4807F 		tst	r2, #256
 1698 00c4 03D1     		bne	.L105
 833:Drivers/STM32F2xx_HAL_Driver/Src/stm32f2xx_hal_dma.c ****         }
 1699              		.loc 1 833 11 is_stmt 1 view .LVU617
 833:Drivers/STM32F2xx_HAL_Driver/Src/stm32f2xx_hal_dma.c ****         }
 1700              		.loc 1 833 31 is_stmt 0 view .LVU618
 1701 00c6 1A68     		ldr	r2, [r3]
 1702 00c8 22F00802 		bic	r2, r2, #8
 1703 00cc 1A60     		str	r2, [r3]
 1704              	.L105:
 836:Drivers/STM32F2xx_HAL_Driver/Src/stm32f2xx_hal_dma.c ****         {
 1705              		.loc 1 836 9 is_stmt 1 view .LVU619
 836:Drivers/STM32F2xx_HAL_Driver/Src/stm32f2xx_hal_dma.c ****         {
ARM GAS  C:\Users\User\AppData\Local\Temp\cc2bsKoj.s 			page 63


 1706              		.loc 1 836 16 is_stmt 0 view .LVU620
 1707 00ce 236C     		ldr	r3, [r4, #64]
 836:Drivers/STM32F2xx_HAL_Driver/Src/stm32f2xx_hal_dma.c ****         {
 1708              		.loc 1 836 11 view .LVU621
 1709 00d0 0BB1     		cbz	r3, .L102
 839:Drivers/STM32F2xx_HAL_Driver/Src/stm32f2xx_hal_dma.c ****         }
 1710              		.loc 1 839 11 is_stmt 1 view .LVU622
 1711 00d2 2046     		mov	r0, r4
 1712              	.LVL136:
 839:Drivers/STM32F2xx_HAL_Driver/Src/stm32f2xx_hal_dma.c ****         }
 1713              		.loc 1 839 11 is_stmt 0 view .LVU623
 1714 00d4 9847     		blx	r3
 1715              	.LVL137:
 1716              	.L102:
 845:Drivers/STM32F2xx_HAL_Driver/Src/stm32f2xx_hal_dma.c ****   {
 1717              		.loc 1 845 3 is_stmt 1 view .LVU624
 845:Drivers/STM32F2xx_HAL_Driver/Src/stm32f2xx_hal_dma.c ****   {
 1718              		.loc 1 845 42 is_stmt 0 view .LVU625
 1719 00d6 E26D     		ldr	r2, [r4, #92]
 845:Drivers/STM32F2xx_HAL_Driver/Src/stm32f2xx_hal_dma.c ****   {
 1720              		.loc 1 845 35 view .LVU626
 1721 00d8 2023     		movs	r3, #32
 1722 00da 9340     		lsls	r3, r3, r2
 845:Drivers/STM32F2xx_HAL_Driver/Src/stm32f2xx_hal_dma.c ****   {
 1723              		.loc 1 845 6 view .LVU627
 1724 00dc 3342     		tst	r3, r6
 1725 00de 55D0     		beq	.L106
 847:Drivers/STM32F2xx_HAL_Driver/Src/stm32f2xx_hal_dma.c ****     {
 1726              		.loc 1 847 5 is_stmt 1 view .LVU628
 847:Drivers/STM32F2xx_HAL_Driver/Src/stm32f2xx_hal_dma.c ****     {
 1727              		.loc 1 847 8 is_stmt 0 view .LVU629
 1728 00e0 2268     		ldr	r2, [r4]
 1729 00e2 1268     		ldr	r2, [r2]
 847:Drivers/STM32F2xx_HAL_Driver/Src/stm32f2xx_hal_dma.c ****     {
 1730              		.loc 1 847 7 view .LVU630
 1731 00e4 12F0100F 		tst	r2, #16
 1732 00e8 50D0     		beq	.L106
 850:Drivers/STM32F2xx_HAL_Driver/Src/stm32f2xx_hal_dma.c ****       
 1733              		.loc 1 850 7 is_stmt 1 view .LVU631
 850:Drivers/STM32F2xx_HAL_Driver/Src/stm32f2xx_hal_dma.c ****       
 1734              		.loc 1 850 18 is_stmt 0 view .LVU632
 1735 00ea BB60     		str	r3, [r7, #8]
 852:Drivers/STM32F2xx_HAL_Driver/Src/stm32f2xx_hal_dma.c ****       {
 1736              		.loc 1 852 7 is_stmt 1 view .LVU633
 852:Drivers/STM32F2xx_HAL_Driver/Src/stm32f2xx_hal_dma.c ****       {
 1737              		.loc 1 852 37 is_stmt 0 view .LVU634
 1738 00ec 94F83530 		ldrb	r3, [r4, #53]	@ zero_extendqisi2
 1739 00f0 DBB2     		uxtb	r3, r3
 852:Drivers/STM32F2xx_HAL_Driver/Src/stm32f2xx_hal_dma.c ****       {
 1740              		.loc 1 852 9 view .LVU635
 1741 00f2 052B     		cmp	r3, #5
 1742 00f4 0ED0     		beq	.L119
 879:Drivers/STM32F2xx_HAL_Driver/Src/stm32f2xx_hal_dma.c ****       {
 1743              		.loc 1 879 7 is_stmt 1 view .LVU636
 879:Drivers/STM32F2xx_HAL_Driver/Src/stm32f2xx_hal_dma.c ****       {
 1744              		.loc 1 879 16 is_stmt 0 view .LVU637
 1745 00f6 2368     		ldr	r3, [r4]
ARM GAS  C:\Users\User\AppData\Local\Temp\cc2bsKoj.s 			page 64


 879:Drivers/STM32F2xx_HAL_Driver/Src/stm32f2xx_hal_dma.c ****       {
 1746              		.loc 1 879 26 view .LVU638
 1747 00f8 1A68     		ldr	r2, [r3]
 879:Drivers/STM32F2xx_HAL_Driver/Src/stm32f2xx_hal_dma.c ****       {
 1748              		.loc 1 879 9 view .LVU639
 1749 00fa 12F4802F 		tst	r2, #262144
 1750 00fe 33D0     		beq	.L112
 882:Drivers/STM32F2xx_HAL_Driver/Src/stm32f2xx_hal_dma.c ****         {
 1751              		.loc 1 882 9 is_stmt 1 view .LVU640
 882:Drivers/STM32F2xx_HAL_Driver/Src/stm32f2xx_hal_dma.c ****         {
 1752              		.loc 1 882 27 is_stmt 0 view .LVU641
 1753 0100 1B68     		ldr	r3, [r3]
 882:Drivers/STM32F2xx_HAL_Driver/Src/stm32f2xx_hal_dma.c ****         {
 1754              		.loc 1 882 11 view .LVU642
 1755 0102 13F4002F 		tst	r3, #524288
 1756 0106 2AD1     		bne	.L113
 884:Drivers/STM32F2xx_HAL_Driver/Src/stm32f2xx_hal_dma.c ****           {
 1757              		.loc 1 884 11 is_stmt 1 view .LVU643
 884:Drivers/STM32F2xx_HAL_Driver/Src/stm32f2xx_hal_dma.c ****           {
 1758              		.loc 1 884 18 is_stmt 0 view .LVU644
 1759 0108 636C     		ldr	r3, [r4, #68]
 884:Drivers/STM32F2xx_HAL_Driver/Src/stm32f2xx_hal_dma.c ****           {
 1760              		.loc 1 884 13 view .LVU645
 1761 010a 002B     		cmp	r3, #0
 1762 010c 3ED0     		beq	.L106
 887:Drivers/STM32F2xx_HAL_Driver/Src/stm32f2xx_hal_dma.c ****           }
 1763              		.loc 1 887 13 is_stmt 1 view .LVU646
 1764 010e 2046     		mov	r0, r4
 1765 0110 9847     		blx	r3
 1766              	.LVL138:
 1767 0112 3BE0     		b	.L106
 1768              	.L119:
 855:Drivers/STM32F2xx_HAL_Driver/Src/stm32f2xx_hal_dma.c ****         hdma->Instance->FCR &= ~(DMA_IT_FE);
 1769              		.loc 1 855 9 view .LVU647
 855:Drivers/STM32F2xx_HAL_Driver/Src/stm32f2xx_hal_dma.c ****         hdma->Instance->FCR &= ~(DMA_IT_FE);
 1770              		.loc 1 855 13 is_stmt 0 view .LVU648
 1771 0114 2268     		ldr	r2, [r4]
 855:Drivers/STM32F2xx_HAL_Driver/Src/stm32f2xx_hal_dma.c ****         hdma->Instance->FCR &= ~(DMA_IT_FE);
 1772              		.loc 1 855 29 view .LVU649
 1773 0116 1368     		ldr	r3, [r2]
 1774 0118 23F01603 		bic	r3, r3, #22
 1775 011c 1360     		str	r3, [r2]
 856:Drivers/STM32F2xx_HAL_Driver/Src/stm32f2xx_hal_dma.c ****         
 1776              		.loc 1 856 9 is_stmt 1 view .LVU650
 856:Drivers/STM32F2xx_HAL_Driver/Src/stm32f2xx_hal_dma.c ****         
 1777              		.loc 1 856 13 is_stmt 0 view .LVU651
 1778 011e 2268     		ldr	r2, [r4]
 856:Drivers/STM32F2xx_HAL_Driver/Src/stm32f2xx_hal_dma.c ****         
 1779              		.loc 1 856 29 view .LVU652
 1780 0120 5369     		ldr	r3, [r2, #20]
 1781 0122 23F08003 		bic	r3, r3, #128
 1782 0126 5361     		str	r3, [r2, #20]
 858:Drivers/STM32F2xx_HAL_Driver/Src/stm32f2xx_hal_dma.c ****         {
 1783              		.loc 1 858 9 is_stmt 1 view .LVU653
 858:Drivers/STM32F2xx_HAL_Driver/Src/stm32f2xx_hal_dma.c ****         {
 1784              		.loc 1 858 17 is_stmt 0 view .LVU654
 1785 0128 236C     		ldr	r3, [r4, #64]
ARM GAS  C:\Users\User\AppData\Local\Temp\cc2bsKoj.s 			page 65


 858:Drivers/STM32F2xx_HAL_Driver/Src/stm32f2xx_hal_dma.c ****         {
 1786              		.loc 1 858 11 view .LVU655
 1787 012a A3B1     		cbz	r3, .L120
 1788              	.L108:
 860:Drivers/STM32F2xx_HAL_Driver/Src/stm32f2xx_hal_dma.c ****         }
 1789              		.loc 1 860 11 is_stmt 1 view .LVU656
 860:Drivers/STM32F2xx_HAL_Driver/Src/stm32f2xx_hal_dma.c ****         }
 1790              		.loc 1 860 15 is_stmt 0 view .LVU657
 1791 012c 2268     		ldr	r2, [r4]
 860:Drivers/STM32F2xx_HAL_Driver/Src/stm32f2xx_hal_dma.c ****         }
 1792              		.loc 1 860 31 view .LVU658
 1793 012e 1368     		ldr	r3, [r2]
 1794 0130 23F00803 		bic	r3, r3, #8
 1795 0134 1360     		str	r3, [r2]
 1796              	.L109:
 864:Drivers/STM32F2xx_HAL_Driver/Src/stm32f2xx_hal_dma.c **** 
 1797              		.loc 1 864 9 is_stmt 1 view .LVU659
 864:Drivers/STM32F2xx_HAL_Driver/Src/stm32f2xx_hal_dma.c **** 
 1798              		.loc 1 864 35 is_stmt 0 view .LVU660
 1799 0136 E26D     		ldr	r2, [r4, #92]
 864:Drivers/STM32F2xx_HAL_Driver/Src/stm32f2xx_hal_dma.c **** 
 1800              		.loc 1 864 28 view .LVU661
 1801 0138 3F23     		movs	r3, #63
 1802 013a 9340     		lsls	r3, r3, r2
 864:Drivers/STM32F2xx_HAL_Driver/Src/stm32f2xx_hal_dma.c **** 
 1803              		.loc 1 864 20 view .LVU662
 1804 013c BB60     		str	r3, [r7, #8]
 867:Drivers/STM32F2xx_HAL_Driver/Src/stm32f2xx_hal_dma.c **** 
 1805              		.loc 1 867 9 is_stmt 1 view .LVU663
 867:Drivers/STM32F2xx_HAL_Driver/Src/stm32f2xx_hal_dma.c **** 
 1806              		.loc 1 867 9 view .LVU664
 1807 013e 0023     		movs	r3, #0
 1808 0140 84F83430 		strb	r3, [r4, #52]
 870:Drivers/STM32F2xx_HAL_Driver/Src/stm32f2xx_hal_dma.c **** 
 1809              		.loc 1 870 9 view .LVU665
 870:Drivers/STM32F2xx_HAL_Driver/Src/stm32f2xx_hal_dma.c **** 
 1810              		.loc 1 870 21 is_stmt 0 view .LVU666
 1811 0144 0123     		movs	r3, #1
 1812 0146 84F83530 		strb	r3, [r4, #53]
 872:Drivers/STM32F2xx_HAL_Driver/Src/stm32f2xx_hal_dma.c ****         {
 1813              		.loc 1 872 9 is_stmt 1 view .LVU667
 872:Drivers/STM32F2xx_HAL_Driver/Src/stm32f2xx_hal_dma.c ****         {
 1814              		.loc 1 872 16 is_stmt 0 view .LVU668
 1815 014a 236D     		ldr	r3, [r4, #80]
 872:Drivers/STM32F2xx_HAL_Driver/Src/stm32f2xx_hal_dma.c ****         {
 1816              		.loc 1 872 11 view .LVU669
 1817 014c 002B     		cmp	r3, #0
 1818 014e 3FD0     		beq	.L98
 874:Drivers/STM32F2xx_HAL_Driver/Src/stm32f2xx_hal_dma.c ****         }
 1819              		.loc 1 874 11 is_stmt 1 view .LVU670
 1820 0150 2046     		mov	r0, r4
 1821 0152 9847     		blx	r3
 1822              	.LVL139:
 876:Drivers/STM32F2xx_HAL_Driver/Src/stm32f2xx_hal_dma.c ****       }
 1823              		.loc 1 876 9 view .LVU671
 1824 0154 3CE0     		b	.L98
 1825              	.L120:
ARM GAS  C:\Users\User\AppData\Local\Temp\cc2bsKoj.s 			page 66


 858:Drivers/STM32F2xx_HAL_Driver/Src/stm32f2xx_hal_dma.c ****         {
 1826              		.loc 1 858 57 is_stmt 0 discriminator 1 view .LVU672
 1827 0156 A36C     		ldr	r3, [r4, #72]
 858:Drivers/STM32F2xx_HAL_Driver/Src/stm32f2xx_hal_dma.c ****         {
 1828              		.loc 1 858 49 discriminator 1 view .LVU673
 1829 0158 002B     		cmp	r3, #0
 1830 015a E7D1     		bne	.L108
 1831 015c EBE7     		b	.L109
 1832              	.L113:
 893:Drivers/STM32F2xx_HAL_Driver/Src/stm32f2xx_hal_dma.c ****           {
 1833              		.loc 1 893 11 is_stmt 1 view .LVU674
 893:Drivers/STM32F2xx_HAL_Driver/Src/stm32f2xx_hal_dma.c ****           {
 1834              		.loc 1 893 18 is_stmt 0 view .LVU675
 1835 015e E36B     		ldr	r3, [r4, #60]
 893:Drivers/STM32F2xx_HAL_Driver/Src/stm32f2xx_hal_dma.c ****           {
 1836              		.loc 1 893 13 view .LVU676
 1837 0160 A3B1     		cbz	r3, .L106
 896:Drivers/STM32F2xx_HAL_Driver/Src/stm32f2xx_hal_dma.c ****           }
 1838              		.loc 1 896 13 is_stmt 1 view .LVU677
 1839 0162 2046     		mov	r0, r4
 1840 0164 9847     		blx	r3
 1841              	.LVL140:
 1842 0166 11E0     		b	.L106
 1843              	.L112:
 903:Drivers/STM32F2xx_HAL_Driver/Src/stm32f2xx_hal_dma.c ****         {
 1844              		.loc 1 903 9 view .LVU678
 903:Drivers/STM32F2xx_HAL_Driver/Src/stm32f2xx_hal_dma.c ****         {
 1845              		.loc 1 903 27 is_stmt 0 view .LVU679
 1846 0168 1A68     		ldr	r2, [r3]
 903:Drivers/STM32F2xx_HAL_Driver/Src/stm32f2xx_hal_dma.c ****         {
 1847              		.loc 1 903 11 view .LVU680
 1848 016a 12F4807F 		tst	r2, #256
 1849 016e 09D1     		bne	.L114
 906:Drivers/STM32F2xx_HAL_Driver/Src/stm32f2xx_hal_dma.c **** 
 1850              		.loc 1 906 11 is_stmt 1 view .LVU681
 906:Drivers/STM32F2xx_HAL_Driver/Src/stm32f2xx_hal_dma.c **** 
 1851              		.loc 1 906 31 is_stmt 0 view .LVU682
 1852 0170 1A68     		ldr	r2, [r3]
 1853 0172 22F01002 		bic	r2, r2, #16
 1854 0176 1A60     		str	r2, [r3]
 909:Drivers/STM32F2xx_HAL_Driver/Src/stm32f2xx_hal_dma.c **** 
 1855              		.loc 1 909 11 is_stmt 1 view .LVU683
 909:Drivers/STM32F2xx_HAL_Driver/Src/stm32f2xx_hal_dma.c **** 
 1856              		.loc 1 909 11 view .LVU684
 1857 0178 0023     		movs	r3, #0
 1858 017a 84F83430 		strb	r3, [r4, #52]
 912:Drivers/STM32F2xx_HAL_Driver/Src/stm32f2xx_hal_dma.c ****         }
 1859              		.loc 1 912 11 view .LVU685
 912:Drivers/STM32F2xx_HAL_Driver/Src/stm32f2xx_hal_dma.c ****         }
 1860              		.loc 1 912 23 is_stmt 0 view .LVU686
 1861 017e 0123     		movs	r3, #1
 1862 0180 84F83530 		strb	r3, [r4, #53]
 1863              	.L114:
 915:Drivers/STM32F2xx_HAL_Driver/Src/stm32f2xx_hal_dma.c ****         {
 1864              		.loc 1 915 9 is_stmt 1 view .LVU687
 915:Drivers/STM32F2xx_HAL_Driver/Src/stm32f2xx_hal_dma.c ****         {
 1865              		.loc 1 915 16 is_stmt 0 view .LVU688
ARM GAS  C:\Users\User\AppData\Local\Temp\cc2bsKoj.s 			page 67


 1866 0184 E36B     		ldr	r3, [r4, #60]
 915:Drivers/STM32F2xx_HAL_Driver/Src/stm32f2xx_hal_dma.c ****         {
 1867              		.loc 1 915 11 view .LVU689
 1868 0186 0BB1     		cbz	r3, .L106
 918:Drivers/STM32F2xx_HAL_Driver/Src/stm32f2xx_hal_dma.c ****         }
 1869              		.loc 1 918 11 is_stmt 1 view .LVU690
 1870 0188 2046     		mov	r0, r4
 1871 018a 9847     		blx	r3
 1872              	.LVL141:
 1873              	.L106:
 925:Drivers/STM32F2xx_HAL_Driver/Src/stm32f2xx_hal_dma.c ****   {
 1874              		.loc 1 925 3 view .LVU691
 925:Drivers/STM32F2xx_HAL_Driver/Src/stm32f2xx_hal_dma.c ****   {
 1875              		.loc 1 925 10 is_stmt 0 view .LVU692
 1876 018c 636D     		ldr	r3, [r4, #84]
 925:Drivers/STM32F2xx_HAL_Driver/Src/stm32f2xx_hal_dma.c ****   {
 1877              		.loc 1 925 5 view .LVU693
 1878 018e FBB1     		cbz	r3, .L98
 927:Drivers/STM32F2xx_HAL_Driver/Src/stm32f2xx_hal_dma.c ****     {
 1879              		.loc 1 927 5 is_stmt 1 view .LVU694
 927:Drivers/STM32F2xx_HAL_Driver/Src/stm32f2xx_hal_dma.c ****     {
 1880              		.loc 1 927 13 is_stmt 0 view .LVU695
 1881 0190 636D     		ldr	r3, [r4, #84]
 927:Drivers/STM32F2xx_HAL_Driver/Src/stm32f2xx_hal_dma.c ****     {
 1882              		.loc 1 927 7 view .LVU696
 1883 0192 13F0010F 		tst	r3, #1
 1884 0196 17D0     		beq	.L115
 929:Drivers/STM32F2xx_HAL_Driver/Src/stm32f2xx_hal_dma.c **** 
 1885              		.loc 1 929 7 is_stmt 1 view .LVU697
 929:Drivers/STM32F2xx_HAL_Driver/Src/stm32f2xx_hal_dma.c **** 
 1886              		.loc 1 929 19 is_stmt 0 view .LVU698
 1887 0198 0523     		movs	r3, #5
 1888 019a 84F83530 		strb	r3, [r4, #53]
 932:Drivers/STM32F2xx_HAL_Driver/Src/stm32f2xx_hal_dma.c **** 
 1889              		.loc 1 932 7 is_stmt 1 view .LVU699
 1890 019e 2268     		ldr	r2, [r4]
 1891 01a0 1368     		ldr	r3, [r2]
 1892 01a2 23F00103 		bic	r3, r3, #1
 1893 01a6 1360     		str	r3, [r2]
 1894              	.L117:
 934:Drivers/STM32F2xx_HAL_Driver/Src/stm32f2xx_hal_dma.c ****       {
 1895              		.loc 1 934 7 view .LVU700
 936:Drivers/STM32F2xx_HAL_Driver/Src/stm32f2xx_hal_dma.c ****         {
 1896              		.loc 1 936 9 view .LVU701
 936:Drivers/STM32F2xx_HAL_Driver/Src/stm32f2xx_hal_dma.c ****         {
 1897              		.loc 1 936 13 is_stmt 0 view .LVU702
 1898 01a8 019B     		ldr	r3, [sp, #4]
 1899 01aa 0133     		adds	r3, r3, #1
 936:Drivers/STM32F2xx_HAL_Driver/Src/stm32f2xx_hal_dma.c ****         {
 1900              		.loc 1 936 12 view .LVU703
 1901 01ac 0193     		str	r3, [sp, #4]
 1902 01ae AB42     		cmp	r3, r5
 1903 01b0 04D8     		bhi	.L116
 941:Drivers/STM32F2xx_HAL_Driver/Src/stm32f2xx_hal_dma.c **** 
 1904              		.loc 1 941 18 view .LVU704
 1905 01b2 2368     		ldr	r3, [r4]
 941:Drivers/STM32F2xx_HAL_Driver/Src/stm32f2xx_hal_dma.c **** 
ARM GAS  C:\Users\User\AppData\Local\Temp\cc2bsKoj.s 			page 68


 1906              		.loc 1 941 28 view .LVU705
 1907 01b4 1B68     		ldr	r3, [r3]
 941:Drivers/STM32F2xx_HAL_Driver/Src/stm32f2xx_hal_dma.c **** 
 1908              		.loc 1 941 7 view .LVU706
 1909 01b6 13F0010F 		tst	r3, #1
 1910 01ba F5D1     		bne	.L117
 1911              	.L116:
 944:Drivers/STM32F2xx_HAL_Driver/Src/stm32f2xx_hal_dma.c **** 
 1912              		.loc 1 944 7 is_stmt 1 view .LVU707
 944:Drivers/STM32F2xx_HAL_Driver/Src/stm32f2xx_hal_dma.c **** 
 1913              		.loc 1 944 7 view .LVU708
 1914 01bc 0023     		movs	r3, #0
 1915 01be 84F83430 		strb	r3, [r4, #52]
 947:Drivers/STM32F2xx_HAL_Driver/Src/stm32f2xx_hal_dma.c ****     }
 1916              		.loc 1 947 7 view .LVU709
 947:Drivers/STM32F2xx_HAL_Driver/Src/stm32f2xx_hal_dma.c ****     }
 1917              		.loc 1 947 19 is_stmt 0 view .LVU710
 1918 01c2 0123     		movs	r3, #1
 1919 01c4 84F83530 		strb	r3, [r4, #53]
 1920              	.L115:
 950:Drivers/STM32F2xx_HAL_Driver/Src/stm32f2xx_hal_dma.c ****     {
 1921              		.loc 1 950 5 is_stmt 1 view .LVU711
 950:Drivers/STM32F2xx_HAL_Driver/Src/stm32f2xx_hal_dma.c ****     {
 1922              		.loc 1 950 12 is_stmt 0 view .LVU712
 1923 01c8 E36C     		ldr	r3, [r4, #76]
 950:Drivers/STM32F2xx_HAL_Driver/Src/stm32f2xx_hal_dma.c ****     {
 1924              		.loc 1 950 7 view .LVU713
 1925 01ca 0BB1     		cbz	r3, .L98
 953:Drivers/STM32F2xx_HAL_Driver/Src/stm32f2xx_hal_dma.c ****     }
 1926              		.loc 1 953 7 is_stmt 1 view .LVU714
 1927 01cc 2046     		mov	r0, r4
 1928 01ce 9847     		blx	r3
 1929              	.LVL142:
 1930              	.L98:
 956:Drivers/STM32F2xx_HAL_Driver/Src/stm32f2xx_hal_dma.c **** 
 1931              		.loc 1 956 1 is_stmt 0 view .LVU715
 1932 01d0 03B0     		add	sp, sp, #12
 1933              	.LCFI16:
 1934              		.cfi_def_cfa_offset 20
 1935              		@ sp needed
 1936 01d2 F0BD     		pop	{r4, r5, r6, r7, pc}
 1937              	.LVL143:
 1938              	.L122:
 956:Drivers/STM32F2xx_HAL_Driver/Src/stm32f2xx_hal_dma.c **** 
 1939              		.loc 1 956 1 view .LVU716
 1940              		.align	2
 1941              	.L121:
 1942 01d4 00000000 		.word	SystemCoreClock
 1943 01d8 B5814E1B 		.word	458129845
 1944              		.cfi_endproc
 1945              	.LFE79:
 1947              		.section	.text.HAL_DMA_RegisterCallback,"ax",%progbits
 1948              		.align	1
 1949              		.global	HAL_DMA_RegisterCallback
 1950              		.syntax unified
 1951              		.thumb
 1952              		.thumb_func
ARM GAS  C:\Users\User\AppData\Local\Temp\cc2bsKoj.s 			page 69


 1953              		.fpu softvfp
 1955              	HAL_DMA_RegisterCallback:
 1956              	.LVL144:
 1957              	.LFB80:
 969:Drivers/STM32F2xx_HAL_Driver/Src/stm32f2xx_hal_dma.c **** 
 1958              		.loc 1 969 1 is_stmt 1 view -0
 1959              		.cfi_startproc
 1960              		@ args = 0, pretend = 0, frame = 0
 1961              		@ frame_needed = 0, uses_anonymous_args = 0
 1962              		@ link register save eliminated.
 969:Drivers/STM32F2xx_HAL_Driver/Src/stm32f2xx_hal_dma.c **** 
 1963              		.loc 1 969 1 is_stmt 0 view .LVU718
 1964 0000 0346     		mov	r3, r0
 971:Drivers/STM32F2xx_HAL_Driver/Src/stm32f2xx_hal_dma.c **** 
 1965              		.loc 1 971 3 is_stmt 1 view .LVU719
 1966              	.LVL145:
 974:Drivers/STM32F2xx_HAL_Driver/Src/stm32f2xx_hal_dma.c **** 
 1967              		.loc 1 974 3 view .LVU720
 974:Drivers/STM32F2xx_HAL_Driver/Src/stm32f2xx_hal_dma.c **** 
 1968              		.loc 1 974 3 view .LVU721
 1969 0002 90F83400 		ldrb	r0, [r0, #52]	@ zero_extendqisi2
 1970              	.LVL146:
 974:Drivers/STM32F2xx_HAL_Driver/Src/stm32f2xx_hal_dma.c **** 
 1971              		.loc 1 974 3 is_stmt 0 view .LVU722
 1972 0006 0128     		cmp	r0, #1
 1973 0008 27D0     		beq	.L133
 974:Drivers/STM32F2xx_HAL_Driver/Src/stm32f2xx_hal_dma.c **** 
 1974              		.loc 1 974 3 is_stmt 1 discriminator 2 view .LVU723
 1975 000a 0120     		movs	r0, #1
 1976 000c 83F83400 		strb	r0, [r3, #52]
 976:Drivers/STM32F2xx_HAL_Driver/Src/stm32f2xx_hal_dma.c ****   {
 1977              		.loc 1 976 3 discriminator 2 view .LVU724
 976:Drivers/STM32F2xx_HAL_Driver/Src/stm32f2xx_hal_dma.c ****   {
 1978              		.loc 1 976 33 is_stmt 0 discriminator 2 view .LVU725
 1979 0010 93F83500 		ldrb	r0, [r3, #53]	@ zero_extendqisi2
 1980 0014 C0B2     		uxtb	r0, r0
 976:Drivers/STM32F2xx_HAL_Driver/Src/stm32f2xx_hal_dma.c ****   {
 1981              		.loc 1 976 5 discriminator 2 view .LVU726
 1982 0016 0128     		cmp	r0, #1
 1983 0018 04D0     		beq	.L136
1011:Drivers/STM32F2xx_HAL_Driver/Src/stm32f2xx_hal_dma.c ****   }
 1984              		.loc 1 1011 12 view .LVU727
 1985 001a 0120     		movs	r0, #1
 1986              	.L125:
 1987              	.LVL147:
1015:Drivers/STM32F2xx_HAL_Driver/Src/stm32f2xx_hal_dma.c ****   
 1988              		.loc 1 1015 3 is_stmt 1 view .LVU728
1015:Drivers/STM32F2xx_HAL_Driver/Src/stm32f2xx_hal_dma.c ****   
 1989              		.loc 1 1015 3 view .LVU729
 1990 001c 0022     		movs	r2, #0
 1991              	.LVL148:
1015:Drivers/STM32F2xx_HAL_Driver/Src/stm32f2xx_hal_dma.c ****   
 1992              		.loc 1 1015 3 is_stmt 0 view .LVU730
 1993 001e 83F83420 		strb	r2, [r3, #52]
1017:Drivers/STM32F2xx_HAL_Driver/Src/stm32f2xx_hal_dma.c **** }
 1994              		.loc 1 1017 3 is_stmt 1 view .LVU731
1017:Drivers/STM32F2xx_HAL_Driver/Src/stm32f2xx_hal_dma.c **** }
ARM GAS  C:\Users\User\AppData\Local\Temp\cc2bsKoj.s 			page 70


 1995              		.loc 1 1017 10 is_stmt 0 view .LVU732
 1996 0022 7047     		bx	lr
 1997              	.LVL149:
 1998              	.L136:
 978:Drivers/STM32F2xx_HAL_Driver/Src/stm32f2xx_hal_dma.c ****     {
 1999              		.loc 1 978 5 is_stmt 1 view .LVU733
 2000 0024 0529     		cmp	r1, #5
 2001 0026 16D8     		bhi	.L135
 2002 0028 DFE801F0 		tbb	[pc, r1]
 2003              	.L127:
 2004 002c 03       		.byte	(.L132-.L127)/2
 2005 002d 06       		.byte	(.L131-.L127)/2
 2006 002e 09       		.byte	(.L130-.L127)/2
 2007 002f 0C       		.byte	(.L129-.L127)/2
 2008 0030 0F       		.byte	(.L128-.L127)/2
 2009 0031 12       		.byte	(.L126-.L127)/2
 2010              		.p2align 1
 2011              	.L132:
 981:Drivers/STM32F2xx_HAL_Driver/Src/stm32f2xx_hal_dma.c ****       break;
 2012              		.loc 1 981 7 view .LVU734
 981:Drivers/STM32F2xx_HAL_Driver/Src/stm32f2xx_hal_dma.c ****       break;
 2013              		.loc 1 981 30 is_stmt 0 view .LVU735
 2014 0032 DA63     		str	r2, [r3, #60]
 982:Drivers/STM32F2xx_HAL_Driver/Src/stm32f2xx_hal_dma.c **** 
 2015              		.loc 1 982 7 is_stmt 1 view .LVU736
 971:Drivers/STM32F2xx_HAL_Driver/Src/stm32f2xx_hal_dma.c **** 
 2016              		.loc 1 971 21 is_stmt 0 view .LVU737
 2017 0034 0020     		movs	r0, #0
 982:Drivers/STM32F2xx_HAL_Driver/Src/stm32f2xx_hal_dma.c **** 
 2018              		.loc 1 982 7 view .LVU738
 2019 0036 F1E7     		b	.L125
 2020              	.L131:
 985:Drivers/STM32F2xx_HAL_Driver/Src/stm32f2xx_hal_dma.c ****       break;
 2021              		.loc 1 985 7 is_stmt 1 view .LVU739
 985:Drivers/STM32F2xx_HAL_Driver/Src/stm32f2xx_hal_dma.c ****       break;
 2022              		.loc 1 985 34 is_stmt 0 view .LVU740
 2023 0038 1A64     		str	r2, [r3, #64]
 986:Drivers/STM32F2xx_HAL_Driver/Src/stm32f2xx_hal_dma.c **** 
 2024              		.loc 1 986 7 is_stmt 1 view .LVU741
 971:Drivers/STM32F2xx_HAL_Driver/Src/stm32f2xx_hal_dma.c **** 
 2025              		.loc 1 971 21 is_stmt 0 view .LVU742
 2026 003a 0020     		movs	r0, #0
 986:Drivers/STM32F2xx_HAL_Driver/Src/stm32f2xx_hal_dma.c **** 
 2027              		.loc 1 986 7 view .LVU743
 2028 003c EEE7     		b	.L125
 2029              	.L130:
 989:Drivers/STM32F2xx_HAL_Driver/Src/stm32f2xx_hal_dma.c ****       break;
 2030              		.loc 1 989 7 is_stmt 1 view .LVU744
 989:Drivers/STM32F2xx_HAL_Driver/Src/stm32f2xx_hal_dma.c ****       break;
 2031              		.loc 1 989 32 is_stmt 0 view .LVU745
 2032 003e 5A64     		str	r2, [r3, #68]
 990:Drivers/STM32F2xx_HAL_Driver/Src/stm32f2xx_hal_dma.c **** 
 2033              		.loc 1 990 7 is_stmt 1 view .LVU746
 971:Drivers/STM32F2xx_HAL_Driver/Src/stm32f2xx_hal_dma.c **** 
 2034              		.loc 1 971 21 is_stmt 0 view .LVU747
 2035 0040 0020     		movs	r0, #0
 990:Drivers/STM32F2xx_HAL_Driver/Src/stm32f2xx_hal_dma.c **** 
ARM GAS  C:\Users\User\AppData\Local\Temp\cc2bsKoj.s 			page 71


 2036              		.loc 1 990 7 view .LVU748
 2037 0042 EBE7     		b	.L125
 2038              	.L129:
 993:Drivers/STM32F2xx_HAL_Driver/Src/stm32f2xx_hal_dma.c ****       break;
 2039              		.loc 1 993 7 is_stmt 1 view .LVU749
 993:Drivers/STM32F2xx_HAL_Driver/Src/stm32f2xx_hal_dma.c ****       break;
 2040              		.loc 1 993 36 is_stmt 0 view .LVU750
 2041 0044 9A64     		str	r2, [r3, #72]
 994:Drivers/STM32F2xx_HAL_Driver/Src/stm32f2xx_hal_dma.c **** 
 2042              		.loc 1 994 7 is_stmt 1 view .LVU751
 971:Drivers/STM32F2xx_HAL_Driver/Src/stm32f2xx_hal_dma.c **** 
 2043              		.loc 1 971 21 is_stmt 0 view .LVU752
 2044 0046 0020     		movs	r0, #0
 994:Drivers/STM32F2xx_HAL_Driver/Src/stm32f2xx_hal_dma.c **** 
 2045              		.loc 1 994 7 view .LVU753
 2046 0048 E8E7     		b	.L125
 2047              	.L128:
 997:Drivers/STM32F2xx_HAL_Driver/Src/stm32f2xx_hal_dma.c ****       break;
 2048              		.loc 1 997 7 is_stmt 1 view .LVU754
 997:Drivers/STM32F2xx_HAL_Driver/Src/stm32f2xx_hal_dma.c ****       break;
 2049              		.loc 1 997 31 is_stmt 0 view .LVU755
 2050 004a DA64     		str	r2, [r3, #76]
 998:Drivers/STM32F2xx_HAL_Driver/Src/stm32f2xx_hal_dma.c **** 
 2051              		.loc 1 998 7 is_stmt 1 view .LVU756
 971:Drivers/STM32F2xx_HAL_Driver/Src/stm32f2xx_hal_dma.c **** 
 2052              		.loc 1 971 21 is_stmt 0 view .LVU757
 2053 004c 0020     		movs	r0, #0
 998:Drivers/STM32F2xx_HAL_Driver/Src/stm32f2xx_hal_dma.c **** 
 2054              		.loc 1 998 7 view .LVU758
 2055 004e E5E7     		b	.L125
 2056              	.L126:
1001:Drivers/STM32F2xx_HAL_Driver/Src/stm32f2xx_hal_dma.c ****       break;
 2057              		.loc 1 1001 7 is_stmt 1 view .LVU759
1001:Drivers/STM32F2xx_HAL_Driver/Src/stm32f2xx_hal_dma.c ****       break;
 2058              		.loc 1 1001 31 is_stmt 0 view .LVU760
 2059 0050 1A65     		str	r2, [r3, #80]
1002:Drivers/STM32F2xx_HAL_Driver/Src/stm32f2xx_hal_dma.c **** 
 2060              		.loc 1 1002 7 is_stmt 1 view .LVU761
 971:Drivers/STM32F2xx_HAL_Driver/Src/stm32f2xx_hal_dma.c **** 
 2061              		.loc 1 971 21 is_stmt 0 view .LVU762
 2062 0052 0020     		movs	r0, #0
1002:Drivers/STM32F2xx_HAL_Driver/Src/stm32f2xx_hal_dma.c **** 
 2063              		.loc 1 1002 7 view .LVU763
 2064 0054 E2E7     		b	.L125
 2065              	.L135:
 971:Drivers/STM32F2xx_HAL_Driver/Src/stm32f2xx_hal_dma.c **** 
 2066              		.loc 1 971 21 view .LVU764
 2067 0056 0020     		movs	r0, #0
 2068 0058 E0E7     		b	.L125
 2069              	.L133:
 974:Drivers/STM32F2xx_HAL_Driver/Src/stm32f2xx_hal_dma.c **** 
 2070              		.loc 1 974 3 view .LVU765
 2071 005a 0220     		movs	r0, #2
1018:Drivers/STM32F2xx_HAL_Driver/Src/stm32f2xx_hal_dma.c **** 
 2072              		.loc 1 1018 1 view .LVU766
 2073 005c 7047     		bx	lr
 2074              		.cfi_endproc
ARM GAS  C:\Users\User\AppData\Local\Temp\cc2bsKoj.s 			page 72


 2075              	.LFE80:
 2077              		.section	.text.HAL_DMA_UnRegisterCallback,"ax",%progbits
 2078              		.align	1
 2079              		.global	HAL_DMA_UnRegisterCallback
 2080              		.syntax unified
 2081              		.thumb
 2082              		.thumb_func
 2083              		.fpu softvfp
 2085              	HAL_DMA_UnRegisterCallback:
 2086              	.LVL150:
 2087              	.LFB81:
1029:Drivers/STM32F2xx_HAL_Driver/Src/stm32f2xx_hal_dma.c ****   HAL_StatusTypeDef status = HAL_OK;
 2088              		.loc 1 1029 1 is_stmt 1 view -0
 2089              		.cfi_startproc
 2090              		@ args = 0, pretend = 0, frame = 0
 2091              		@ frame_needed = 0, uses_anonymous_args = 0
 2092              		@ link register save eliminated.
1029:Drivers/STM32F2xx_HAL_Driver/Src/stm32f2xx_hal_dma.c ****   HAL_StatusTypeDef status = HAL_OK;
 2093              		.loc 1 1029 1 is_stmt 0 view .LVU768
 2094 0000 0346     		mov	r3, r0
1030:Drivers/STM32F2xx_HAL_Driver/Src/stm32f2xx_hal_dma.c ****   
 2095              		.loc 1 1030 3 is_stmt 1 view .LVU769
 2096              	.LVL151:
1033:Drivers/STM32F2xx_HAL_Driver/Src/stm32f2xx_hal_dma.c ****   
 2097              		.loc 1 1033 3 view .LVU770
1033:Drivers/STM32F2xx_HAL_Driver/Src/stm32f2xx_hal_dma.c ****   
 2098              		.loc 1 1033 3 view .LVU771
 2099 0002 90F83420 		ldrb	r2, [r0, #52]	@ zero_extendqisi2
 2100 0006 012A     		cmp	r2, #1
 2101 0008 30D0     		beq	.L148
1033:Drivers/STM32F2xx_HAL_Driver/Src/stm32f2xx_hal_dma.c ****   
 2102              		.loc 1 1033 3 discriminator 2 view .LVU772
 2103 000a 0122     		movs	r2, #1
 2104 000c 80F83420 		strb	r2, [r0, #52]
1035:Drivers/STM32F2xx_HAL_Driver/Src/stm32f2xx_hal_dma.c ****   {
 2105              		.loc 1 1035 3 discriminator 2 view .LVU773
1035:Drivers/STM32F2xx_HAL_Driver/Src/stm32f2xx_hal_dma.c ****   {
 2106              		.loc 1 1035 33 is_stmt 0 discriminator 2 view .LVU774
 2107 0010 90F83520 		ldrb	r2, [r0, #53]	@ zero_extendqisi2
 2108 0014 D2B2     		uxtb	r2, r2
1035:Drivers/STM32F2xx_HAL_Driver/Src/stm32f2xx_hal_dma.c ****   {
 2109              		.loc 1 1035 5 discriminator 2 view .LVU775
 2110 0016 012A     		cmp	r2, #1
 2111 0018 04D0     		beq	.L151
1079:Drivers/STM32F2xx_HAL_Driver/Src/stm32f2xx_hal_dma.c ****   }
 2112              		.loc 1 1079 12 view .LVU776
 2113 001a 0120     		movs	r0, #1
 2114              	.LVL152:
 2115              	.L139:
1083:Drivers/STM32F2xx_HAL_Driver/Src/stm32f2xx_hal_dma.c ****   
 2116              		.loc 1 1083 3 is_stmt 1 view .LVU777
1083:Drivers/STM32F2xx_HAL_Driver/Src/stm32f2xx_hal_dma.c ****   
 2117              		.loc 1 1083 3 view .LVU778
 2118 001c 0022     		movs	r2, #0
 2119 001e 83F83420 		strb	r2, [r3, #52]
1085:Drivers/STM32F2xx_HAL_Driver/Src/stm32f2xx_hal_dma.c **** }
 2120              		.loc 1 1085 3 view .LVU779
ARM GAS  C:\Users\User\AppData\Local\Temp\cc2bsKoj.s 			page 73


1085:Drivers/STM32F2xx_HAL_Driver/Src/stm32f2xx_hal_dma.c **** }
 2121              		.loc 1 1085 10 is_stmt 0 view .LVU780
 2122 0022 7047     		bx	lr
 2123              	.LVL153:
 2124              	.L151:
1037:Drivers/STM32F2xx_HAL_Driver/Src/stm32f2xx_hal_dma.c ****     {
 2125              		.loc 1 1037 5 is_stmt 1 view .LVU781
 2126 0024 0629     		cmp	r1, #6
 2127 0026 1FD8     		bhi	.L150
 2128 0028 DFE801F0 		tbb	[pc, r1]
 2129              	.L141:
 2130 002c 04       		.byte	(.L147-.L141)/2
 2131 002d 07       		.byte	(.L146-.L141)/2
 2132 002e 0A       		.byte	(.L145-.L141)/2
 2133 002f 0D       		.byte	(.L144-.L141)/2
 2134 0030 10       		.byte	(.L143-.L141)/2
 2135 0031 13       		.byte	(.L142-.L141)/2
 2136 0032 16       		.byte	(.L140-.L141)/2
 2137 0033 00       		.p2align 1
 2138              	.L147:
1040:Drivers/STM32F2xx_HAL_Driver/Src/stm32f2xx_hal_dma.c ****       break;
 2139              		.loc 1 1040 7 view .LVU782
1040:Drivers/STM32F2xx_HAL_Driver/Src/stm32f2xx_hal_dma.c ****       break;
 2140              		.loc 1 1040 30 is_stmt 0 view .LVU783
 2141 0034 0020     		movs	r0, #0
 2142              	.LVL154:
1040:Drivers/STM32F2xx_HAL_Driver/Src/stm32f2xx_hal_dma.c ****       break;
 2143              		.loc 1 1040 30 view .LVU784
 2144 0036 D863     		str	r0, [r3, #60]
1041:Drivers/STM32F2xx_HAL_Driver/Src/stm32f2xx_hal_dma.c ****       
 2145              		.loc 1 1041 7 is_stmt 1 view .LVU785
 2146 0038 F0E7     		b	.L139
 2147              	.LVL155:
 2148              	.L146:
1044:Drivers/STM32F2xx_HAL_Driver/Src/stm32f2xx_hal_dma.c ****       break;
 2149              		.loc 1 1044 7 view .LVU786
1044:Drivers/STM32F2xx_HAL_Driver/Src/stm32f2xx_hal_dma.c ****       break;
 2150              		.loc 1 1044 34 is_stmt 0 view .LVU787
 2151 003a 0020     		movs	r0, #0
 2152              	.LVL156:
1044:Drivers/STM32F2xx_HAL_Driver/Src/stm32f2xx_hal_dma.c ****       break;
 2153              		.loc 1 1044 34 view .LVU788
 2154 003c 1864     		str	r0, [r3, #64]
1045:Drivers/STM32F2xx_HAL_Driver/Src/stm32f2xx_hal_dma.c ****       
 2155              		.loc 1 1045 7 is_stmt 1 view .LVU789
 2156 003e EDE7     		b	.L139
 2157              	.LVL157:
 2158              	.L145:
1048:Drivers/STM32F2xx_HAL_Driver/Src/stm32f2xx_hal_dma.c ****       break;
 2159              		.loc 1 1048 7 view .LVU790
1048:Drivers/STM32F2xx_HAL_Driver/Src/stm32f2xx_hal_dma.c ****       break;
 2160              		.loc 1 1048 32 is_stmt 0 view .LVU791
 2161 0040 0020     		movs	r0, #0
 2162              	.LVL158:
1048:Drivers/STM32F2xx_HAL_Driver/Src/stm32f2xx_hal_dma.c ****       break;
 2163              		.loc 1 1048 32 view .LVU792
 2164 0042 5864     		str	r0, [r3, #68]
ARM GAS  C:\Users\User\AppData\Local\Temp\cc2bsKoj.s 			page 74


1049:Drivers/STM32F2xx_HAL_Driver/Src/stm32f2xx_hal_dma.c ****       
 2165              		.loc 1 1049 7 is_stmt 1 view .LVU793
 2166 0044 EAE7     		b	.L139
 2167              	.LVL159:
 2168              	.L144:
1052:Drivers/STM32F2xx_HAL_Driver/Src/stm32f2xx_hal_dma.c ****       break;
 2169              		.loc 1 1052 7 view .LVU794
1052:Drivers/STM32F2xx_HAL_Driver/Src/stm32f2xx_hal_dma.c ****       break;
 2170              		.loc 1 1052 36 is_stmt 0 view .LVU795
 2171 0046 0020     		movs	r0, #0
 2172              	.LVL160:
1052:Drivers/STM32F2xx_HAL_Driver/Src/stm32f2xx_hal_dma.c ****       break;
 2173              		.loc 1 1052 36 view .LVU796
 2174 0048 9864     		str	r0, [r3, #72]
1053:Drivers/STM32F2xx_HAL_Driver/Src/stm32f2xx_hal_dma.c ****       
 2175              		.loc 1 1053 7 is_stmt 1 view .LVU797
 2176 004a E7E7     		b	.L139
 2177              	.LVL161:
 2178              	.L143:
1056:Drivers/STM32F2xx_HAL_Driver/Src/stm32f2xx_hal_dma.c ****       break;
 2179              		.loc 1 1056 7 view .LVU798
1056:Drivers/STM32F2xx_HAL_Driver/Src/stm32f2xx_hal_dma.c ****       break;
 2180              		.loc 1 1056 31 is_stmt 0 view .LVU799
 2181 004c 0020     		movs	r0, #0
 2182              	.LVL162:
1056:Drivers/STM32F2xx_HAL_Driver/Src/stm32f2xx_hal_dma.c ****       break;
 2183              		.loc 1 1056 31 view .LVU800
 2184 004e D864     		str	r0, [r3, #76]
1057:Drivers/STM32F2xx_HAL_Driver/Src/stm32f2xx_hal_dma.c ****       
 2185              		.loc 1 1057 7 is_stmt 1 view .LVU801
 2186 0050 E4E7     		b	.L139
 2187              	.LVL163:
 2188              	.L142:
1060:Drivers/STM32F2xx_HAL_Driver/Src/stm32f2xx_hal_dma.c ****       break; 
 2189              		.loc 1 1060 7 view .LVU802
1060:Drivers/STM32F2xx_HAL_Driver/Src/stm32f2xx_hal_dma.c ****       break; 
 2190              		.loc 1 1060 31 is_stmt 0 view .LVU803
 2191 0052 0020     		movs	r0, #0
 2192              	.LVL164:
1060:Drivers/STM32F2xx_HAL_Driver/Src/stm32f2xx_hal_dma.c ****       break; 
 2193              		.loc 1 1060 31 view .LVU804
 2194 0054 1865     		str	r0, [r3, #80]
1061:Drivers/STM32F2xx_HAL_Driver/Src/stm32f2xx_hal_dma.c ****       
 2195              		.loc 1 1061 7 is_stmt 1 view .LVU805
 2196 0056 E1E7     		b	.L139
 2197              	.LVL165:
 2198              	.L140:
1064:Drivers/STM32F2xx_HAL_Driver/Src/stm32f2xx_hal_dma.c ****       hdma->XferHalfCpltCallback = NULL;
 2199              		.loc 1 1064 7 view .LVU806
1064:Drivers/STM32F2xx_HAL_Driver/Src/stm32f2xx_hal_dma.c ****       hdma->XferHalfCpltCallback = NULL;
 2200              		.loc 1 1064 30 is_stmt 0 view .LVU807
 2201 0058 0020     		movs	r0, #0
 2202              	.LVL166:
1064:Drivers/STM32F2xx_HAL_Driver/Src/stm32f2xx_hal_dma.c ****       hdma->XferHalfCpltCallback = NULL;
 2203              		.loc 1 1064 30 view .LVU808
 2204 005a D863     		str	r0, [r3, #60]
1065:Drivers/STM32F2xx_HAL_Driver/Src/stm32f2xx_hal_dma.c ****       hdma->XferM1CpltCallback = NULL;
ARM GAS  C:\Users\User\AppData\Local\Temp\cc2bsKoj.s 			page 75


 2205              		.loc 1 1065 7 is_stmt 1 view .LVU809
1065:Drivers/STM32F2xx_HAL_Driver/Src/stm32f2xx_hal_dma.c ****       hdma->XferM1CpltCallback = NULL;
 2206              		.loc 1 1065 34 is_stmt 0 view .LVU810
 2207 005c 1864     		str	r0, [r3, #64]
1066:Drivers/STM32F2xx_HAL_Driver/Src/stm32f2xx_hal_dma.c ****       hdma->XferM1HalfCpltCallback = NULL;
 2208              		.loc 1 1066 7 is_stmt 1 view .LVU811
1066:Drivers/STM32F2xx_HAL_Driver/Src/stm32f2xx_hal_dma.c ****       hdma->XferM1HalfCpltCallback = NULL;
 2209              		.loc 1 1066 32 is_stmt 0 view .LVU812
 2210 005e 5864     		str	r0, [r3, #68]
1067:Drivers/STM32F2xx_HAL_Driver/Src/stm32f2xx_hal_dma.c ****       hdma->XferErrorCallback = NULL;
 2211              		.loc 1 1067 7 is_stmt 1 view .LVU813
1067:Drivers/STM32F2xx_HAL_Driver/Src/stm32f2xx_hal_dma.c ****       hdma->XferErrorCallback = NULL;
 2212              		.loc 1 1067 36 is_stmt 0 view .LVU814
 2213 0060 9864     		str	r0, [r3, #72]
1068:Drivers/STM32F2xx_HAL_Driver/Src/stm32f2xx_hal_dma.c ****       hdma->XferAbortCallback = NULL;
 2214              		.loc 1 1068 7 is_stmt 1 view .LVU815
1068:Drivers/STM32F2xx_HAL_Driver/Src/stm32f2xx_hal_dma.c ****       hdma->XferAbortCallback = NULL;
 2215              		.loc 1 1068 31 is_stmt 0 view .LVU816
 2216 0062 D864     		str	r0, [r3, #76]
1069:Drivers/STM32F2xx_HAL_Driver/Src/stm32f2xx_hal_dma.c ****       break; 
 2217              		.loc 1 1069 7 is_stmt 1 view .LVU817
1069:Drivers/STM32F2xx_HAL_Driver/Src/stm32f2xx_hal_dma.c ****       break; 
 2218              		.loc 1 1069 31 is_stmt 0 view .LVU818
 2219 0064 1865     		str	r0, [r3, #80]
1070:Drivers/STM32F2xx_HAL_Driver/Src/stm32f2xx_hal_dma.c ****       
 2220              		.loc 1 1070 7 is_stmt 1 view .LVU819
 2221 0066 D9E7     		b	.L139
 2222              	.LVL167:
 2223              	.L150:
1073:Drivers/STM32F2xx_HAL_Driver/Src/stm32f2xx_hal_dma.c ****       break;
 2224              		.loc 1 1073 14 is_stmt 0 view .LVU820
 2225 0068 0120     		movs	r0, #1
 2226              	.LVL168:
1073:Drivers/STM32F2xx_HAL_Driver/Src/stm32f2xx_hal_dma.c ****       break;
 2227              		.loc 1 1073 14 view .LVU821
 2228 006a D7E7     		b	.L139
 2229              	.LVL169:
 2230              	.L148:
1033:Drivers/STM32F2xx_HAL_Driver/Src/stm32f2xx_hal_dma.c ****   
 2231              		.loc 1 1033 3 view .LVU822
 2232 006c 0220     		movs	r0, #2
 2233              	.LVL170:
1086:Drivers/STM32F2xx_HAL_Driver/Src/stm32f2xx_hal_dma.c **** 
 2234              		.loc 1 1086 1 view .LVU823
 2235 006e 7047     		bx	lr
 2236              		.cfi_endproc
 2237              	.LFE81:
 2239              		.section	.text.HAL_DMA_GetState,"ax",%progbits
 2240              		.align	1
 2241              		.global	HAL_DMA_GetState
 2242              		.syntax unified
 2243              		.thumb
 2244              		.thumb_func
 2245              		.fpu softvfp
 2247              	HAL_DMA_GetState:
 2248              	.LVL171:
 2249              	.LFB82:
ARM GAS  C:\Users\User\AppData\Local\Temp\cc2bsKoj.s 			page 76


1114:Drivers/STM32F2xx_HAL_Driver/Src/stm32f2xx_hal_dma.c ****   return hdma->State;
 2250              		.loc 1 1114 1 is_stmt 1 view -0
 2251              		.cfi_startproc
 2252              		@ args = 0, pretend = 0, frame = 0
 2253              		@ frame_needed = 0, uses_anonymous_args = 0
 2254              		@ link register save eliminated.
1115:Drivers/STM32F2xx_HAL_Driver/Src/stm32f2xx_hal_dma.c **** }
 2255              		.loc 1 1115 3 view .LVU825
1115:Drivers/STM32F2xx_HAL_Driver/Src/stm32f2xx_hal_dma.c **** }
 2256              		.loc 1 1115 14 is_stmt 0 view .LVU826
 2257 0000 90F83500 		ldrb	r0, [r0, #53]	@ zero_extendqisi2
 2258              	.LVL172:
1116:Drivers/STM32F2xx_HAL_Driver/Src/stm32f2xx_hal_dma.c **** 
 2259              		.loc 1 1116 1 view .LVU827
 2260 0004 7047     		bx	lr
 2261              		.cfi_endproc
 2262              	.LFE82:
 2264              		.section	.text.HAL_DMA_GetError,"ax",%progbits
 2265              		.align	1
 2266              		.global	HAL_DMA_GetError
 2267              		.syntax unified
 2268              		.thumb
 2269              		.thumb_func
 2270              		.fpu softvfp
 2272              	HAL_DMA_GetError:
 2273              	.LVL173:
 2274              	.LFB83:
1125:Drivers/STM32F2xx_HAL_Driver/Src/stm32f2xx_hal_dma.c ****   return hdma->ErrorCode;
 2275              		.loc 1 1125 1 is_stmt 1 view -0
 2276              		.cfi_startproc
 2277              		@ args = 0, pretend = 0, frame = 0
 2278              		@ frame_needed = 0, uses_anonymous_args = 0
 2279              		@ link register save eliminated.
1126:Drivers/STM32F2xx_HAL_Driver/Src/stm32f2xx_hal_dma.c **** }
 2280              		.loc 1 1126 3 view .LVU829
1126:Drivers/STM32F2xx_HAL_Driver/Src/stm32f2xx_hal_dma.c **** }
 2281              		.loc 1 1126 14 is_stmt 0 view .LVU830
 2282 0000 406D     		ldr	r0, [r0, #84]
 2283              	.LVL174:
1127:Drivers/STM32F2xx_HAL_Driver/Src/stm32f2xx_hal_dma.c **** 
 2284              		.loc 1 1127 1 view .LVU831
 2285 0002 7047     		bx	lr
 2286              		.cfi_endproc
 2287              	.LFE83:
 2289              		.section	.rodata.flagBitshiftOffset.7381,"a"
 2290              		.align	2
 2291              		.set	.LANCHOR0,. + 0
 2294              	flagBitshiftOffset.7381:
 2295 0000 00       		.byte	0
 2296 0001 06       		.byte	6
 2297 0002 10       		.byte	16
 2298 0003 16       		.byte	22
 2299 0004 00       		.byte	0
 2300 0005 06       		.byte	6
 2301 0006 10       		.byte	16
 2302 0007 16       		.byte	22
 2303              		.text
ARM GAS  C:\Users\User\AppData\Local\Temp\cc2bsKoj.s 			page 77


 2304              	.Letext0:
 2305              		.file 2 "c:\\users\\user\\appdata\\roaming\\gnumcueclipse\\armembeddedgcc\\arm-none-eabi\\include\
 2306              		.file 3 "c:\\users\\user\\appdata\\roaming\\gnumcueclipse\\armembeddedgcc\\arm-none-eabi\\include\
 2307              		.file 4 "Drivers/CMSIS/Include/core_cm3.h"
 2308              		.file 5 "Drivers/CMSIS/Device/ST/STM32F2xx/Include/system_stm32f2xx.h"
 2309              		.file 6 "Drivers/CMSIS/Device/ST/STM32F2xx/Include/stm32f215xx.h"
 2310              		.file 7 "Drivers/CMSIS/Device/ST/STM32F2xx/Include/stm32f2xx.h"
 2311              		.file 8 "Drivers/STM32F2xx_HAL_Driver/Inc/stm32f2xx_hal_def.h"
 2312              		.file 9 "Drivers/STM32F2xx_HAL_Driver/Inc/stm32f2xx_hal_dma.h"
 2313              		.file 10 "Drivers/STM32F2xx_HAL_Driver/Inc/stm32f2xx_hal.h"
ARM GAS  C:\Users\User\AppData\Local\Temp\cc2bsKoj.s 			page 78


DEFINED SYMBOLS
                            *ABS*:0000000000000000 stm32f2xx_hal_dma.c
C:\Users\User\AppData\Local\Temp\cc2bsKoj.s:16     .text.DMA_SetConfig:0000000000000000 $t
C:\Users\User\AppData\Local\Temp\cc2bsKoj.s:23     .text.DMA_SetConfig:0000000000000000 DMA_SetConfig
C:\Users\User\AppData\Local\Temp\cc2bsKoj.s:97     .text.DMA_CalcBaseAndBitshift:0000000000000000 $t
C:\Users\User\AppData\Local\Temp\cc2bsKoj.s:103    .text.DMA_CalcBaseAndBitshift:0000000000000000 DMA_CalcBaseAndBitshift
C:\Users\User\AppData\Local\Temp\cc2bsKoj.s:174    .text.DMA_CalcBaseAndBitshift:0000000000000038 $d
C:\Users\User\AppData\Local\Temp\cc2bsKoj.s:180    .text.DMA_CheckFifoParam:0000000000000000 $t
C:\Users\User\AppData\Local\Temp\cc2bsKoj.s:186    .text.DMA_CheckFifoParam:0000000000000000 DMA_CheckFifoParam
C:\Users\User\AppData\Local\Temp\cc2bsKoj.s:273    .text.DMA_CheckFifoParam:000000000000004e $d
C:\Users\User\AppData\Local\Temp\cc2bsKoj.s:277    .text.DMA_CheckFifoParam:0000000000000052 $t
C:\Users\User\AppData\Local\Temp\cc2bsKoj.s:373    .text.HAL_DMA_Init:0000000000000000 $t
C:\Users\User\AppData\Local\Temp\cc2bsKoj.s:380    .text.HAL_DMA_Init:0000000000000000 HAL_DMA_Init
C:\Users\User\AppData\Local\Temp\cc2bsKoj.s:627    .text.HAL_DMA_Init:00000000000000c8 $d
C:\Users\User\AppData\Local\Temp\cc2bsKoj.s:632    .text.HAL_DMA_DeInit:0000000000000000 $t
C:\Users\User\AppData\Local\Temp\cc2bsKoj.s:639    .text.HAL_DMA_DeInit:0000000000000000 HAL_DMA_DeInit
C:\Users\User\AppData\Local\Temp\cc2bsKoj.s:781    .text.HAL_DMA_Start:0000000000000000 $t
C:\Users\User\AppData\Local\Temp\cc2bsKoj.s:788    .text.HAL_DMA_Start:0000000000000000 HAL_DMA_Start
C:\Users\User\AppData\Local\Temp\cc2bsKoj.s:872    .text.HAL_DMA_Start_IT:0000000000000000 $t
C:\Users\User\AppData\Local\Temp\cc2bsKoj.s:879    .text.HAL_DMA_Start_IT:0000000000000000 HAL_DMA_Start_IT
C:\Users\User\AppData\Local\Temp\cc2bsKoj.s:995    .text.HAL_DMA_Abort:0000000000000000 $t
C:\Users\User\AppData\Local\Temp\cc2bsKoj.s:1002   .text.HAL_DMA_Abort:0000000000000000 HAL_DMA_Abort
C:\Users\User\AppData\Local\Temp\cc2bsKoj.s:1152   .text.HAL_DMA_Abort_IT:0000000000000000 $t
C:\Users\User\AppData\Local\Temp\cc2bsKoj.s:1159   .text.HAL_DMA_Abort_IT:0000000000000000 HAL_DMA_Abort_IT
C:\Users\User\AppData\Local\Temp\cc2bsKoj.s:1205   .text.HAL_DMA_PollForTransfer:0000000000000000 $t
C:\Users\User\AppData\Local\Temp\cc2bsKoj.s:1212   .text.HAL_DMA_PollForTransfer:0000000000000000 HAL_DMA_PollForTransfer
C:\Users\User\AppData\Local\Temp\cc2bsKoj.s:1498   .text.HAL_DMA_IRQHandler:0000000000000000 $t
C:\Users\User\AppData\Local\Temp\cc2bsKoj.s:1505   .text.HAL_DMA_IRQHandler:0000000000000000 HAL_DMA_IRQHandler
C:\Users\User\AppData\Local\Temp\cc2bsKoj.s:1942   .text.HAL_DMA_IRQHandler:00000000000001d4 $d
C:\Users\User\AppData\Local\Temp\cc2bsKoj.s:1948   .text.HAL_DMA_RegisterCallback:0000000000000000 $t
C:\Users\User\AppData\Local\Temp\cc2bsKoj.s:1955   .text.HAL_DMA_RegisterCallback:0000000000000000 HAL_DMA_RegisterCallback
C:\Users\User\AppData\Local\Temp\cc2bsKoj.s:2004   .text.HAL_DMA_RegisterCallback:000000000000002c $d
C:\Users\User\AppData\Local\Temp\cc2bsKoj.s:2010   .text.HAL_DMA_RegisterCallback:0000000000000032 $t
C:\Users\User\AppData\Local\Temp\cc2bsKoj.s:2078   .text.HAL_DMA_UnRegisterCallback:0000000000000000 $t
C:\Users\User\AppData\Local\Temp\cc2bsKoj.s:2085   .text.HAL_DMA_UnRegisterCallback:0000000000000000 HAL_DMA_UnRegisterCallback
C:\Users\User\AppData\Local\Temp\cc2bsKoj.s:2130   .text.HAL_DMA_UnRegisterCallback:000000000000002c $d
C:\Users\User\AppData\Local\Temp\cc2bsKoj.s:2240   .text.HAL_DMA_GetState:0000000000000000 $t
C:\Users\User\AppData\Local\Temp\cc2bsKoj.s:2247   .text.HAL_DMA_GetState:0000000000000000 HAL_DMA_GetState
C:\Users\User\AppData\Local\Temp\cc2bsKoj.s:2265   .text.HAL_DMA_GetError:0000000000000000 $t
C:\Users\User\AppData\Local\Temp\cc2bsKoj.s:2272   .text.HAL_DMA_GetError:0000000000000000 HAL_DMA_GetError
C:\Users\User\AppData\Local\Temp\cc2bsKoj.s:2290   .rodata.flagBitshiftOffset.7381:0000000000000000 $d
C:\Users\User\AppData\Local\Temp\cc2bsKoj.s:2294   .rodata.flagBitshiftOffset.7381:0000000000000000 flagBitshiftOffset.7381
C:\Users\User\AppData\Local\Temp\cc2bsKoj.s:2137   .text.HAL_DMA_UnRegisterCallback:0000000000000033 $d
C:\Users\User\AppData\Local\Temp\cc2bsKoj.s:2137   .text.HAL_DMA_UnRegisterCallback:0000000000000034 $t

UNDEFINED SYMBOLS
HAL_GetTick
SystemCoreClock
