ARM GAS  C:\Users\User\AppData\Local\Temp\ccJJZLUY.s 			page 1


   1              		.cpu cortex-m3
   2              		.eabi_attribute 20, 1
   3              		.eabi_attribute 21, 1
   4              		.eabi_attribute 23, 3
   5              		.eabi_attribute 24, 1
   6              		.eabi_attribute 25, 1
   7              		.eabi_attribute 26, 1
   8              		.eabi_attribute 30, 1
   9              		.eabi_attribute 34, 1
  10              		.eabi_attribute 18, 4
  11              		.file	"usbCore.c"
  12              		.text
  13              	.Ltext0:
  14              		.cfi_sections	.debug_frame
  15              		.section	.text.InitMAPFunc,"ax",%progbits
  16              		.align	1
  17              		.global	InitMAPFunc
  18              		.arch armv7-m
  19              		.syntax unified
  20              		.thumb
  21              		.thumb_func
  22              		.fpu softvfp
  24              	InitMAPFunc:
  25              	.LFB80:
  26              		.file 1 "Src/usbCore.c"
   1:Src/usbCore.c **** #include "main.h"
   2:Src/usbCore.c **** #include "cmsis_os.h"
   3:Src/usbCore.c **** #include "can.h"
   4:Src/usbCore.c **** #include "dma.h"
   5:Src/usbCore.c **** #include "spi.h"
   6:Src/usbCore.c **** #include "usart.h"
   7:Src/usbCore.c **** #include "usb_device.h"
   8:Src/usbCore.c **** #include "gpio.h"
   9:Src/usbCore.c **** #include "fsmc.h"
  10:Src/usbCore.c **** #include "usbd_cdc_if.h"
  11:Src/usbCore.c **** #include "../nanopb/simple.pb.h"
  12:Src/usbCore.c **** #include <stdio.h>
  13:Src/usbCore.c **** #include <../nanopb/pb_encode.h>
  14:Src/usbCore.c **** #include <../nanopb/pb_decode.h>
  15:Src/usbCore.c **** 
  16:Src/usbCore.c **** uint8_t InitMAPFunc(void)
  17:Src/usbCore.c **** {
  27              		.loc 1 17 1 view -0
  28              		.cfi_startproc
  29              		@ args = 0, pretend = 0, frame = 152
  30              		@ frame_needed = 0, uses_anonymous_args = 0
  31 0000 10B5     		push	{r4, lr}
  32              	.LCFI0:
  33              		.cfi_def_cfa_offset 8
  34              		.cfi_offset 4, -8
  35              		.cfi_offset 14, -4
  36 0002 A6B0     		sub	sp, sp, #152
  37              	.LCFI1:
  38              		.cfi_def_cfa_offset 160
  18:Src/usbCore.c ****     uint8_t buffer[128];
  39              		.loc 1 18 5 view .LVU1
  19:Src/usbCore.c ****     size_t message_length;
ARM GAS  C:\Users\User\AppData\Local\Temp\ccJJZLUY.s 			page 2


  40              		.loc 1 19 5 view .LVU2
  20:Src/usbCore.c ****     bool status;
  41              		.loc 1 20 5 view .LVU3
  21:Src/usbCore.c **** 
  22:Src/usbCore.c ****     SimpleMessage message = SimpleMessage_init_zero;
  42              		.loc 1 22 5 view .LVU4
  43              		.loc 1 22 19 is_stmt 0 view .LVU5
  44 0004 0023     		movs	r3, #0
  45 0006 0593     		str	r3, [sp, #20]
  23:Src/usbCore.c **** 
  24:Src/usbCore.c ****     /* Create a stream that will write to our buffer. */
  25:Src/usbCore.c ****     pb_ostream_t stream = pb_ostream_from_buffer(buffer, sizeof(buffer));
  46              		.loc 1 25 5 is_stmt 1 view .LVU6
  47              		.loc 1 25 27 is_stmt 0 view .LVU7
  48 0008 8022     		movs	r2, #128
  49 000a 06A9     		add	r1, sp, #24
  50 000c 6846     		mov	r0, sp
  51 000e FFF7FEFF 		bl	pb_ostream_from_buffer
  52              	.LVL0:
  26:Src/usbCore.c **** 
  27:Src/usbCore.c ****     /* Fill in the lucky number */
  28:Src/usbCore.c ****     message.lucky_number = 13;
  53              		.loc 1 28 5 is_stmt 1 view .LVU8
  54              		.loc 1 28 26 is_stmt 0 view .LVU9
  55 0012 0D23     		movs	r3, #13
  56 0014 0593     		str	r3, [sp, #20]
  29:Src/usbCore.c **** 
  30:Src/usbCore.c ****     /* Now we are ready to encode the message! */
  31:Src/usbCore.c ****     status = pb_encode(&stream, SimpleMessage_fields, &message);
  57              		.loc 1 31 5 is_stmt 1 view .LVU10
  58              		.loc 1 31 14 is_stmt 0 view .LVU11
  59 0016 05AA     		add	r2, sp, #20
  60 0018 0B49     		ldr	r1, .L7
  61 001a 6846     		mov	r0, sp
  62 001c FFF7FEFF 		bl	pb_encode
  63              	.LVL1:
  32:Src/usbCore.c ****     message_length = stream.bytes_written;
  64              		.loc 1 32 5 is_stmt 1 view .LVU12
  65              		.loc 1 32 20 is_stmt 0 view .LVU13
  66 0020 0399     		ldr	r1, [sp, #12]
  67              	.LVL2:
  33:Src/usbCore.c ****     
  34:Src/usbCore.c ****     /* Then just check for any errors.. */
  35:Src/usbCore.c ****     if (!status)
  68              		.loc 1 35 5 is_stmt 1 view .LVU14
  69              		.loc 1 35 8 is_stmt 0 view .LVU15
  70 0022 48B9     		cbnz	r0, .L2
  36:Src/usbCore.c ****     {
  37:Src/usbCore.c ****         printf("Encoding failed: %s\n", PB_GET_ERROR(&stream));
  71              		.loc 1 37 9 is_stmt 1 view .LVU16
  72              		.loc 1 37 41 is_stmt 0 view .LVU17
  73 0024 0499     		ldr	r1, [sp, #16]
  74              	.LVL3:
  75              		.loc 1 37 9 view .LVU18
  76 0026 29B1     		cbz	r1, .L6
  77              	.L3:
  78              		.loc 1 37 9 discriminator 4 view .LVU19
ARM GAS  C:\Users\User\AppData\Local\Temp\ccJJZLUY.s 			page 3


  79 0028 0848     		ldr	r0, .L7+4
  80              	.LVL4:
  81              		.loc 1 37 9 discriminator 4 view .LVU20
  82 002a FFF7FEFF 		bl	printf
  83              	.LVL5:
  38:Src/usbCore.c ****         return 1;
  84              		.loc 1 38 9 is_stmt 1 discriminator 4 view .LVU21
  85              		.loc 1 38 16 is_stmt 0 discriminator 4 view .LVU22
  86 002e 0120     		movs	r0, #1
  87              	.L4:
  39:Src/usbCore.c ****     }
  40:Src/usbCore.c ****     CDC_Transmit_HS(buffer, message_length);
  41:Src/usbCore.c ****     
  42:Src/usbCore.c ****     return status;
  43:Src/usbCore.c **** }
  88              		.loc 1 43 1 view .LVU23
  89 0030 26B0     		add	sp, sp, #152
  90              	.LCFI2:
  91              		.cfi_remember_state
  92              		.cfi_def_cfa_offset 8
  93              		@ sp needed
  94 0032 10BD     		pop	{r4, pc}
  95              	.LVL6:
  96              	.L6:
  97              	.LCFI3:
  98              		.cfi_restore_state
  37:Src/usbCore.c ****         return 1;
  99              		.loc 1 37 9 view .LVU24
 100 0034 0649     		ldr	r1, .L7+8
 101 0036 F7E7     		b	.L3
 102              	.LVL7:
 103              	.L2:
  37:Src/usbCore.c ****         return 1;
 104              		.loc 1 37 9 view .LVU25
 105 0038 0446     		mov	r4, r0
  40:Src/usbCore.c ****     
 106              		.loc 1 40 5 is_stmt 1 view .LVU26
 107 003a 89B2     		uxth	r1, r1
 108              	.LVL8:
  40:Src/usbCore.c ****     
 109              		.loc 1 40 5 is_stmt 0 view .LVU27
 110 003c 06A8     		add	r0, sp, #24
 111              	.LVL9:
  40:Src/usbCore.c ****     
 112              		.loc 1 40 5 view .LVU28
 113 003e FFF7FEFF 		bl	CDC_Transmit_HS
 114              	.LVL10:
  42:Src/usbCore.c **** }
 115              		.loc 1 42 5 is_stmt 1 view .LVU29
  42:Src/usbCore.c **** }
 116              		.loc 1 42 12 is_stmt 0 view .LVU30
 117 0042 2046     		mov	r0, r4
 118 0044 F4E7     		b	.L4
 119              	.L8:
 120 0046 00BF     		.align	2
 121              	.L7:
 122 0048 00000000 		.word	SimpleMessage_fields
ARM GAS  C:\Users\User\AppData\Local\Temp\ccJJZLUY.s 			page 4


 123 004c 08000000 		.word	.LC1
 124 0050 00000000 		.word	.LC0
 125              		.cfi_endproc
 126              	.LFE80:
 128              		.section	.text.MyInfo,"ax",%progbits
 129              		.align	1
 130              		.global	MyInfo
 131              		.syntax unified
 132              		.thumb
 133              		.thumb_func
 134              		.fpu softvfp
 136              	MyInfo:
 137              	.LFB81:
  44:Src/usbCore.c **** 
  45:Src/usbCore.c **** uint8_t MyInfo(void)
  46:Src/usbCore.c **** {
 138              		.loc 1 46 1 is_stmt 1 view -0
 139              		.cfi_startproc
 140              		@ args = 0, pretend = 0, frame = 128
 141              		@ frame_needed = 0, uses_anonymous_args = 0
 142 0000 10B5     		push	{r4, lr}
 143              	.LCFI4:
 144              		.cfi_def_cfa_offset 8
 145              		.cfi_offset 4, -8
 146              		.cfi_offset 14, -4
 147 0002 A0B0     		sub	sp, sp, #128
 148              	.LCFI5:
 149              		.cfi_def_cfa_offset 136
  47:Src/usbCore.c ****     uint8_t array[128];
 150              		.loc 1 47 5 view .LVU32
  48:Src/usbCore.c **** 
  49:Src/usbCore.c ****     array[0] = 0x01;
 151              		.loc 1 49 5 view .LVU33
 152              		.loc 1 49 14 is_stmt 0 view .LVU34
 153 0004 0124     		movs	r4, #1
 154 0006 8DF80040 		strb	r4, [sp]
  50:Src/usbCore.c ****     array[1] = 0x00;
 155              		.loc 1 50 5 is_stmt 1 view .LVU35
 156              		.loc 1 50 14 is_stmt 0 view .LVU36
 157 000a 0023     		movs	r3, #0
 158 000c 8DF80130 		strb	r3, [sp, #1]
  51:Src/usbCore.c ****     CDC_Transmit_HS(array, 128);
 159              		.loc 1 51 5 is_stmt 1 view .LVU37
 160 0010 8021     		movs	r1, #128
 161 0012 6846     		mov	r0, sp
 162 0014 FFF7FEFF 		bl	CDC_Transmit_HS
 163              	.LVL11:
  52:Src/usbCore.c **** 
  53:Src/usbCore.c ****     return pdTRUE;
 164              		.loc 1 53 5 view .LVU38
  54:Src/usbCore.c **** }...
 165              		.loc 1 54 1 is_stmt 0 view .LVU39
 166 0018 2046     		mov	r0, r4
 167 001a 20B0     		add	sp, sp, #128
 168              	.LCFI6:
 169              		.cfi_def_cfa_offset 8
 170              		@ sp needed
ARM GAS  C:\Users\User\AppData\Local\Temp\ccJJZLUY.s 			page 5


 171 001c 10BD     		pop	{r4, pc}
 172              		.cfi_endproc
 173              	.LFE81:
 175              		.section	.rodata.InitMAPFunc.str1.4,"aMS",%progbits,1
 176              		.align	2
 177              	.LC0:
 178 0000 286E6F6E 		.ascii	"(none)\000"
 178      652900
 179 0007 00       		.space	1
 180              	.LC1:
 181 0008 456E636F 		.ascii	"Encoding failed: %s\012\000"
 181      64696E67 
 181      20666169 
 181      6C65643A 
 181      2025730A 
 182              		.text
 183              	.Letext0:
 184              		.file 2 "c:\\users\\user\\appdata\\roaming\\gnumcueclipse\\armembeddedgcc\\arm-none-eabi\\include\
 185              		.file 3 "c:\\users\\user\\appdata\\roaming\\gnumcueclipse\\armembeddedgcc\\arm-none-eabi\\include\
 186              		.file 4 "c:\\users\\user\\appdata\\roaming\\gnumcueclipse\\armembeddedgcc\\arm-none-eabi\\include\
 187              		.file 5 "Drivers/CMSIS/Include/core_cm3.h"
 188              		.file 6 "Drivers/CMSIS/Device/ST/STM32F2xx/Include/system_stm32f2xx.h"
 189              		.file 7 "Drivers/CMSIS/Device/ST/STM32F2xx/Include/stm32f215xx.h"
 190              		.file 8 "Drivers/CMSIS/Device/ST/STM32F2xx/Include/stm32f2xx.h"
 191              		.file 9 "c:\\users\\user\\appdata\\roaming\\gnumcueclipse\\armembeddedgcc\\lib\\gcc\\arm-none-eabi
 192              		.file 10 "Drivers/STM32F2xx_HAL_Driver/Inc/stm32f2xx_hal_def.h"
 193              		.file 11 "Drivers/STM32F2xx_HAL_Driver/Inc/stm32f2xx_hal_dma.h"
 194              		.file 12 "Drivers/STM32F2xx_HAL_Driver/Inc/stm32f2xx_hal_can.h"
 195              		.file 13 "Drivers/STM32F2xx_HAL_Driver/Inc/stm32f2xx_ll_fsmc.h"
 196              		.file 14 "Drivers/STM32F2xx_HAL_Driver/Inc/stm32f2xx_hal_nand.h"
 197              		.file 15 "Drivers/STM32F2xx_HAL_Driver/Inc/stm32f2xx_hal_spi.h"
 198              		.file 16 "Drivers/STM32F2xx_HAL_Driver/Inc/stm32f2xx_hal_uart.h"
 199              		.file 17 "Drivers/STM32F2xx_HAL_Driver/Inc/stm32f2xx_hal.h"
 200              		.file 18 "Middlewares/Third_Party/FreeRTOS/Source/portable/GCC/ARM_CM3/portmacro.h"
 201              		.file 19 "Inc/can.h"
 202              		.file 20 "Inc/dma.h"
 203              		.file 21 "Inc/spi.h"
 204              		.file 22 "Inc/usart.h"
 205              		.file 23 "c:\\users\\user\\appdata\\roaming\\gnumcueclipse\\armembeddedgcc\\arm-none-eabi\\include
 206              		.file 24 "c:\\users\\user\\appdata\\roaming\\gnumcueclipse\\armembeddedgcc\\arm-none-eabi\\include
 207              		.file 25 "c:\\users\\user\\appdata\\roaming\\gnumcueclipse\\armembeddedgcc\\arm-none-eabi\\include
 208              		.file 26 "c:\\users\\user\\appdata\\roaming\\gnumcueclipse\\armembeddedgcc\\arm-none-eabi\\include
 209              		.file 27 "Middlewares/ST/STM32_USB_Device_Library/Core/Inc/usbd_def.h"
 210              		.file 28 "Inc/fsmc.h"
 211              		.file 29 "Middlewares/ST/STM32_USB_Device_Library/Class/CDC/Inc/usbd_cdc.h"
 212              		.file 30 "Inc/usbd_cdc_if.h"
 213              		.file 31 "nanopb/pb.h"
 214              		.file 32 "nanopb/../nanopb/pb_encode.h"
 215              		.file 33 "Src/../nanopb/simple.pb.h"
 216              		.file 34 "c:\\users\\user\\appdata\\roaming\\gnumcueclipse\\armembeddedgcc\\arm-none-eabi\\include
ARM GAS  C:\Users\User\AppData\Local\Temp\ccJJZLUY.s 			page 6

