ARM GAS  C:\Users\User\AppData\Local\Temp\ccvvXoar.s 			page 1


   1              		.cpu cortex-m3
   2              		.eabi_attribute 20, 1
   3              		.eabi_attribute 21, 1
   4              		.eabi_attribute 23, 3
   5              		.eabi_attribute 24, 1
   6              		.eabi_attribute 25, 1
   7              		.eabi_attribute 26, 1
   8              		.eabi_attribute 30, 1
   9              		.eabi_attribute 34, 1
  10              		.eabi_attribute 18, 4
  11              		.file	"usbd_cdc_if.c"
  12              		.text
  13              	.Ltext0:
  14              		.cfi_sections	.debug_frame
  15              		.section	.text.CDC_DeInit_HS,"ax",%progbits
  16              		.align	1
  17              		.arch armv7-m
  18              		.syntax unified
  19              		.thumb
  20              		.thumb_func
  21              		.fpu softvfp
  23              	CDC_DeInit_HS:
  24              	.LFB76:
  25              		.file 1 "Src/usbd_cdc_if.c"
   1:Src/usbd_cdc_if.c **** /* USER CODE BEGIN Header */
   2:Src/usbd_cdc_if.c **** /**
   3:Src/usbd_cdc_if.c ****   ******************************************************************************
   4:Src/usbd_cdc_if.c ****   * @file           : usbd_cdc_if.c
   5:Src/usbd_cdc_if.c ****   * @version        : v1.0_Cube
   6:Src/usbd_cdc_if.c ****   * @brief          : Usb device for Virtual Com Port.
   7:Src/usbd_cdc_if.c ****   ******************************************************************************
   8:Src/usbd_cdc_if.c ****   * @attention
   9:Src/usbd_cdc_if.c ****   *
  10:Src/usbd_cdc_if.c ****   * <h2><center>&copy; Copyright (c) 2019 STMicroelectronics.
  11:Src/usbd_cdc_if.c ****   * All rights reserved.</center></h2>
  12:Src/usbd_cdc_if.c ****   *
  13:Src/usbd_cdc_if.c ****   * This software component is licensed by ST under Ultimate Liberty license
  14:Src/usbd_cdc_if.c ****   * SLA0044, the "License"; You may not use this file except in compliance with
  15:Src/usbd_cdc_if.c ****   * the License. You may obtain a copy of the License at:
  16:Src/usbd_cdc_if.c ****   *                             www.st.com/SLA0044
  17:Src/usbd_cdc_if.c ****   *
  18:Src/usbd_cdc_if.c ****   ******************************************************************************
  19:Src/usbd_cdc_if.c ****   */
  20:Src/usbd_cdc_if.c **** /* USER CODE END Header */
  21:Src/usbd_cdc_if.c **** 
  22:Src/usbd_cdc_if.c **** /* Includes ------------------------------------------------------------------*/
  23:Src/usbd_cdc_if.c **** #include "usbd_cdc_if.h"
  24:Src/usbd_cdc_if.c **** 
  25:Src/usbd_cdc_if.c **** /* USER CODE BEGIN INCLUDE */
  26:Src/usbd_cdc_if.c **** 
  27:Src/usbd_cdc_if.c **** /* USER CODE END INCLUDE */
  28:Src/usbd_cdc_if.c **** 
  29:Src/usbd_cdc_if.c **** /* Private typedef -----------------------------------------------------------*/
  30:Src/usbd_cdc_if.c **** /* Private define ------------------------------------------------------------*/
  31:Src/usbd_cdc_if.c **** /* Private macro -------------------------------------------------------------*/
  32:Src/usbd_cdc_if.c **** 
  33:Src/usbd_cdc_if.c **** /* USER CODE BEGIN PV */
ARM GAS  C:\Users\User\AppData\Local\Temp\ccvvXoar.s 			page 2


  34:Src/usbd_cdc_if.c **** /* Private variables ---------------------------------------------------------*/
  35:Src/usbd_cdc_if.c **** 
  36:Src/usbd_cdc_if.c **** /* USER CODE END PV */
  37:Src/usbd_cdc_if.c **** 
  38:Src/usbd_cdc_if.c **** /** @addtogroup STM32_USB_OTG_DEVICE_LIBRARY
  39:Src/usbd_cdc_if.c ****   * @brief Usb device library.
  40:Src/usbd_cdc_if.c ****   * @{
  41:Src/usbd_cdc_if.c ****   */
  42:Src/usbd_cdc_if.c **** 
  43:Src/usbd_cdc_if.c **** /** @addtogroup USBD_CDC_IF
  44:Src/usbd_cdc_if.c ****   * @{
  45:Src/usbd_cdc_if.c ****   */
  46:Src/usbd_cdc_if.c **** 
  47:Src/usbd_cdc_if.c **** /** @defgroup USBD_CDC_IF_Private_TypesDefinitions USBD_CDC_IF_Private_TypesDefinitions
  48:Src/usbd_cdc_if.c ****   * @brief Private types.
  49:Src/usbd_cdc_if.c ****   * @{
  50:Src/usbd_cdc_if.c ****   */
  51:Src/usbd_cdc_if.c **** 
  52:Src/usbd_cdc_if.c **** /* USER CODE BEGIN PRIVATE_TYPES */
  53:Src/usbd_cdc_if.c **** 
  54:Src/usbd_cdc_if.c **** /* USER CODE END PRIVATE_TYPES */
  55:Src/usbd_cdc_if.c **** 
  56:Src/usbd_cdc_if.c **** /**
  57:Src/usbd_cdc_if.c ****   * @}
  58:Src/usbd_cdc_if.c ****   */
  59:Src/usbd_cdc_if.c **** 
  60:Src/usbd_cdc_if.c **** /** @defgroup USBD_CDC_IF_Private_Defines USBD_CDC_IF_Private_Defines
  61:Src/usbd_cdc_if.c ****   * @brief Private defines.
  62:Src/usbd_cdc_if.c ****   * @{
  63:Src/usbd_cdc_if.c ****   */
  64:Src/usbd_cdc_if.c **** 
  65:Src/usbd_cdc_if.c **** /* USER CODE BEGIN PRIVATE_DEFINES */
  66:Src/usbd_cdc_if.c **** /* Define size for the receive and transmit buffer over CDC */
  67:Src/usbd_cdc_if.c **** /* It's up to user to redefine and/or remove those define */
  68:Src/usbd_cdc_if.c **** #define APP_RX_DATA_SIZE  2048
  69:Src/usbd_cdc_if.c **** #define APP_TX_DATA_SIZE  2048
  70:Src/usbd_cdc_if.c **** /* USER CODE END PRIVATE_DEFINES */
  71:Src/usbd_cdc_if.c **** 
  72:Src/usbd_cdc_if.c **** /**
  73:Src/usbd_cdc_if.c ****   * @}
  74:Src/usbd_cdc_if.c ****   */
  75:Src/usbd_cdc_if.c **** 
  76:Src/usbd_cdc_if.c **** /** @defgroup USBD_CDC_IF_Private_Macros USBD_CDC_IF_Private_Macros
  77:Src/usbd_cdc_if.c ****   * @brief Private macros.
  78:Src/usbd_cdc_if.c ****   * @{
  79:Src/usbd_cdc_if.c ****   */
  80:Src/usbd_cdc_if.c **** 
  81:Src/usbd_cdc_if.c **** /* USER CODE BEGIN PRIVATE_MACRO */
  82:Src/usbd_cdc_if.c **** 
  83:Src/usbd_cdc_if.c **** /* USER CODE END PRIVATE_MACRO */
  84:Src/usbd_cdc_if.c **** 
  85:Src/usbd_cdc_if.c **** /**
  86:Src/usbd_cdc_if.c ****   * @}
  87:Src/usbd_cdc_if.c ****   */
  88:Src/usbd_cdc_if.c **** 
  89:Src/usbd_cdc_if.c **** /** @defgroup USBD_CDC_IF_Private_Variables USBD_CDC_IF_Private_Variables
  90:Src/usbd_cdc_if.c ****   * @brief Private variables.
ARM GAS  C:\Users\User\AppData\Local\Temp\ccvvXoar.s 			page 3


  91:Src/usbd_cdc_if.c ****   * @{
  92:Src/usbd_cdc_if.c ****   */
  93:Src/usbd_cdc_if.c **** 
  94:Src/usbd_cdc_if.c **** /* Create buffer for reception and transmission           */
  95:Src/usbd_cdc_if.c **** /* It's up to user to redefine and/or remove those define */
  96:Src/usbd_cdc_if.c **** /** Received data over USB are stored in this buffer      */
  97:Src/usbd_cdc_if.c **** uint8_t UserRxBufferHS[APP_RX_DATA_SIZE];
  98:Src/usbd_cdc_if.c **** 
  99:Src/usbd_cdc_if.c **** /** Data to send over USB CDC are stored in this buffer   */
 100:Src/usbd_cdc_if.c **** uint8_t UserTxBufferHS[APP_TX_DATA_SIZE];
 101:Src/usbd_cdc_if.c **** 
 102:Src/usbd_cdc_if.c **** /* USER CODE BEGIN PRIVATE_VARIABLES */
 103:Src/usbd_cdc_if.c **** 
 104:Src/usbd_cdc_if.c **** /* USER CODE END PRIVATE_VARIABLES */
 105:Src/usbd_cdc_if.c **** 
 106:Src/usbd_cdc_if.c **** /**
 107:Src/usbd_cdc_if.c ****   * @}
 108:Src/usbd_cdc_if.c ****   */
 109:Src/usbd_cdc_if.c **** 
 110:Src/usbd_cdc_if.c **** /** @defgroup USBD_CDC_IF_Exported_Variables USBD_CDC_IF_Exported_Variables
 111:Src/usbd_cdc_if.c ****   * @brief Public variables.
 112:Src/usbd_cdc_if.c ****   * @{
 113:Src/usbd_cdc_if.c ****   */
 114:Src/usbd_cdc_if.c **** 
 115:Src/usbd_cdc_if.c **** extern USBD_HandleTypeDef hUsbDeviceHS;
 116:Src/usbd_cdc_if.c **** 
 117:Src/usbd_cdc_if.c **** /* USER CODE BEGIN EXPORTED_VARIABLES */
 118:Src/usbd_cdc_if.c **** 
 119:Src/usbd_cdc_if.c **** /* USER CODE END EXPORTED_VARIABLES */
 120:Src/usbd_cdc_if.c **** 
 121:Src/usbd_cdc_if.c **** /**
 122:Src/usbd_cdc_if.c ****   * @}
 123:Src/usbd_cdc_if.c ****   */
 124:Src/usbd_cdc_if.c **** 
 125:Src/usbd_cdc_if.c **** /** @defgroup USBD_CDC_IF_Private_FunctionPrototypes USBD_CDC_IF_Private_FunctionPrototypes
 126:Src/usbd_cdc_if.c ****   * @brief Private functions declaration.
 127:Src/usbd_cdc_if.c ****   * @{
 128:Src/usbd_cdc_if.c ****   */
 129:Src/usbd_cdc_if.c **** 
 130:Src/usbd_cdc_if.c **** static int8_t CDC_Init_HS(void);
 131:Src/usbd_cdc_if.c **** static int8_t CDC_DeInit_HS(void);
 132:Src/usbd_cdc_if.c **** static int8_t CDC_Control_HS(uint8_t cmd, uint8_t* pbuf, uint16_t length);
 133:Src/usbd_cdc_if.c **** static int8_t CDC_Receive_HS(uint8_t* pbuf, uint32_t *Len);
 134:Src/usbd_cdc_if.c **** 
 135:Src/usbd_cdc_if.c **** /* USER CODE BEGIN PRIVATE_FUNCTIONS_DECLARATION */
 136:Src/usbd_cdc_if.c **** 
 137:Src/usbd_cdc_if.c **** /* USER CODE END PRIVATE_FUNCTIONS_DECLARATION */
 138:Src/usbd_cdc_if.c **** 
 139:Src/usbd_cdc_if.c **** /**
 140:Src/usbd_cdc_if.c ****   * @}
 141:Src/usbd_cdc_if.c ****   */
 142:Src/usbd_cdc_if.c **** 
 143:Src/usbd_cdc_if.c **** USBD_CDC_ItfTypeDef USBD_Interface_fops_HS =
 144:Src/usbd_cdc_if.c **** {
 145:Src/usbd_cdc_if.c ****   CDC_Init_HS,
 146:Src/usbd_cdc_if.c ****   CDC_DeInit_HS,
 147:Src/usbd_cdc_if.c ****   CDC_Control_HS,
ARM GAS  C:\Users\User\AppData\Local\Temp\ccvvXoar.s 			page 4


 148:Src/usbd_cdc_if.c ****   CDC_Receive_HS
 149:Src/usbd_cdc_if.c **** };
 150:Src/usbd_cdc_if.c **** 
 151:Src/usbd_cdc_if.c **** /* Private functions ---------------------------------------------------------*/
 152:Src/usbd_cdc_if.c **** 
 153:Src/usbd_cdc_if.c **** /**
 154:Src/usbd_cdc_if.c ****   * @brief  Initializes the CDC media low layer over the USB HS IP
 155:Src/usbd_cdc_if.c ****   * @retval USBD_OK if all operations are OK else USBD_FAIL
 156:Src/usbd_cdc_if.c ****   */
 157:Src/usbd_cdc_if.c **** static int8_t CDC_Init_HS(void)
 158:Src/usbd_cdc_if.c **** {
 159:Src/usbd_cdc_if.c ****   /* USER CODE BEGIN 8 */
 160:Src/usbd_cdc_if.c ****   /* Set Application Buffers */
 161:Src/usbd_cdc_if.c ****   USBD_CDC_SetTxBuffer(&hUsbDeviceHS, UserTxBufferHS, 0);
 162:Src/usbd_cdc_if.c ****   USBD_CDC_SetRxBuffer(&hUsbDeviceHS, UserRxBufferHS);
 163:Src/usbd_cdc_if.c ****   return (USBD_OK);
 164:Src/usbd_cdc_if.c ****   /* USER CODE END 8 */
 165:Src/usbd_cdc_if.c **** }
 166:Src/usbd_cdc_if.c **** 
 167:Src/usbd_cdc_if.c **** /**
 168:Src/usbd_cdc_if.c ****   * @brief  DeInitializes the CDC media low layer
 169:Src/usbd_cdc_if.c ****   * @param  None
 170:Src/usbd_cdc_if.c ****   * @retval USBD_OK if all operations are OK else USBD_FAIL
 171:Src/usbd_cdc_if.c ****   */
 172:Src/usbd_cdc_if.c **** static int8_t CDC_DeInit_HS(void)
 173:Src/usbd_cdc_if.c **** {
  26              		.loc 1 173 1 view -0
  27              		.cfi_startproc
  28              		@ args = 0, pretend = 0, frame = 0
  29              		@ frame_needed = 0, uses_anonymous_args = 0
  30              		@ link register save eliminated.
 174:Src/usbd_cdc_if.c ****   /* USER CODE BEGIN 9 */
 175:Src/usbd_cdc_if.c ****   return (USBD_OK);
  31              		.loc 1 175 3 view .LVU1
 176:Src/usbd_cdc_if.c ****   /* USER CODE END 9 */
 177:Src/usbd_cdc_if.c **** }
  32              		.loc 1 177 1 is_stmt 0 view .LVU2
  33 0000 0020     		movs	r0, #0
  34 0002 7047     		bx	lr
  35              		.cfi_endproc
  36              	.LFE76:
  38              		.section	.text.CDC_Control_HS,"ax",%progbits
  39              		.align	1
  40              		.syntax unified
  41              		.thumb
  42              		.thumb_func
  43              		.fpu softvfp
  45              	CDC_Control_HS:
  46              	.LVL0:
  47              	.LFB77:
 178:Src/usbd_cdc_if.c **** 
 179:Src/usbd_cdc_if.c **** /**
 180:Src/usbd_cdc_if.c ****   * @brief  Manage the CDC class requests
 181:Src/usbd_cdc_if.c ****   * @param  cmd: Command code
 182:Src/usbd_cdc_if.c ****   * @param  pbuf: Buffer containing command data (request parameters)
 183:Src/usbd_cdc_if.c ****   * @param  length: Number of data to be sent (in bytes)
 184:Src/usbd_cdc_if.c ****   * @retval Result of the operation: USBD_OK if all operations are OK else USBD_FAIL
ARM GAS  C:\Users\User\AppData\Local\Temp\ccvvXoar.s 			page 5


 185:Src/usbd_cdc_if.c ****   */
 186:Src/usbd_cdc_if.c **** static int8_t CDC_Control_HS(uint8_t cmd, uint8_t* pbuf, uint16_t length)
 187:Src/usbd_cdc_if.c **** {
  48              		.loc 1 187 1 is_stmt 1 view -0
  49              		.cfi_startproc
  50              		@ args = 0, pretend = 0, frame = 0
  51              		@ frame_needed = 0, uses_anonymous_args = 0
  52              		@ link register save eliminated.
 188:Src/usbd_cdc_if.c ****   /* USER CODE BEGIN 10 */
 189:Src/usbd_cdc_if.c ****   switch(cmd)
  53              		.loc 1 189 3 view .LVU4
 190:Src/usbd_cdc_if.c ****   {
 191:Src/usbd_cdc_if.c ****   case CDC_SEND_ENCAPSULATED_COMMAND:
 192:Src/usbd_cdc_if.c **** 
 193:Src/usbd_cdc_if.c ****     break;
 194:Src/usbd_cdc_if.c **** 
 195:Src/usbd_cdc_if.c ****   case CDC_GET_ENCAPSULATED_RESPONSE:
 196:Src/usbd_cdc_if.c **** 
 197:Src/usbd_cdc_if.c ****     break;
 198:Src/usbd_cdc_if.c **** 
 199:Src/usbd_cdc_if.c ****   case CDC_SET_COMM_FEATURE:
 200:Src/usbd_cdc_if.c **** 
 201:Src/usbd_cdc_if.c ****     break;
 202:Src/usbd_cdc_if.c **** 
 203:Src/usbd_cdc_if.c ****   case CDC_GET_COMM_FEATURE:
 204:Src/usbd_cdc_if.c **** 
 205:Src/usbd_cdc_if.c ****     break;
 206:Src/usbd_cdc_if.c **** 
 207:Src/usbd_cdc_if.c ****   case CDC_CLEAR_COMM_FEATURE:
 208:Src/usbd_cdc_if.c **** 
 209:Src/usbd_cdc_if.c ****     break;
 210:Src/usbd_cdc_if.c **** 
 211:Src/usbd_cdc_if.c ****   /*******************************************************************************/
 212:Src/usbd_cdc_if.c ****   /* Line Coding Structure                                                       */
 213:Src/usbd_cdc_if.c ****   /*-----------------------------------------------------------------------------*/
 214:Src/usbd_cdc_if.c ****   /* Offset | Field       | Size | Value  | Description                          */
 215:Src/usbd_cdc_if.c ****   /* 0      | dwDTERate   |   4  | Number |Data terminal rate, in bits per second*/
 216:Src/usbd_cdc_if.c ****   /* 4      | bCharFormat |   1  | Number | Stop bits                            */
 217:Src/usbd_cdc_if.c ****   /*                                        0 - 1 Stop bit                       */
 218:Src/usbd_cdc_if.c ****   /*                                        1 - 1.5 Stop bits                    */
 219:Src/usbd_cdc_if.c ****   /*                                        2 - 2 Stop bits                      */
 220:Src/usbd_cdc_if.c ****   /* 5      | bParityType |  1   | Number | Parity                               */
 221:Src/usbd_cdc_if.c ****   /*                                        0 - None                             */
 222:Src/usbd_cdc_if.c ****   /*                                        1 - Odd                              */
 223:Src/usbd_cdc_if.c ****   /*                                        2 - Even                             */
 224:Src/usbd_cdc_if.c ****   /*                                        3 - Mark                             */
 225:Src/usbd_cdc_if.c ****   /*                                        4 - Space                            */
 226:Src/usbd_cdc_if.c ****   /* 6      | bDataBits  |   1   | Number Data bits (5, 6, 7, 8 or 16).          */
 227:Src/usbd_cdc_if.c ****   /*******************************************************************************/
 228:Src/usbd_cdc_if.c ****   case CDC_SET_LINE_CODING:
 229:Src/usbd_cdc_if.c **** 
 230:Src/usbd_cdc_if.c ****     break;
 231:Src/usbd_cdc_if.c **** 
 232:Src/usbd_cdc_if.c ****   case CDC_GET_LINE_CODING:
 233:Src/usbd_cdc_if.c **** 
 234:Src/usbd_cdc_if.c ****     break;
 235:Src/usbd_cdc_if.c **** 
ARM GAS  C:\Users\User\AppData\Local\Temp\ccvvXoar.s 			page 6


 236:Src/usbd_cdc_if.c ****   case CDC_SET_CONTROL_LINE_STATE:
 237:Src/usbd_cdc_if.c **** 
 238:Src/usbd_cdc_if.c ****     break;
 239:Src/usbd_cdc_if.c **** 
 240:Src/usbd_cdc_if.c ****   case CDC_SEND_BREAK:
 241:Src/usbd_cdc_if.c **** 
 242:Src/usbd_cdc_if.c ****     break;
 243:Src/usbd_cdc_if.c **** 
 244:Src/usbd_cdc_if.c ****   default:
 245:Src/usbd_cdc_if.c ****     break;
 246:Src/usbd_cdc_if.c ****   }
 247:Src/usbd_cdc_if.c **** 
 248:Src/usbd_cdc_if.c ****   return (USBD_OK);
  54              		.loc 1 248 3 view .LVU5
 249:Src/usbd_cdc_if.c ****   /* USER CODE END 10 */
 250:Src/usbd_cdc_if.c **** }
  55              		.loc 1 250 1 is_stmt 0 view .LVU6
  56 0000 0020     		movs	r0, #0
  57              	.LVL1:
  58              		.loc 1 250 1 view .LVU7
  59 0002 7047     		bx	lr
  60              		.cfi_endproc
  61              	.LFE77:
  63              		.section	.text.CDC_Receive_HS,"ax",%progbits
  64              		.align	1
  65              		.syntax unified
  66              		.thumb
  67              		.thumb_func
  68              		.fpu softvfp
  70              	CDC_Receive_HS:
  71              	.LVL2:
  72              	.LFB78:
 251:Src/usbd_cdc_if.c **** 
 252:Src/usbd_cdc_if.c **** /**
 253:Src/usbd_cdc_if.c ****   * @brief  Data received over USB OUT endpoint are sent over CDC interface
 254:Src/usbd_cdc_if.c ****   *         through this function.
 255:Src/usbd_cdc_if.c ****   *
 256:Src/usbd_cdc_if.c ****   *         @note
 257:Src/usbd_cdc_if.c ****   *         This function will block any OUT packet reception on USB endpoint
 258:Src/usbd_cdc_if.c ****   *         untill exiting this function. If you exit this function before transfer
 259:Src/usbd_cdc_if.c ****   *         is complete on CDC interface (ie. using DMA controller) it will result
 260:Src/usbd_cdc_if.c ****   *         in receiving more data while previous ones are still not sent.
 261:Src/usbd_cdc_if.c ****   *
 262:Src/usbd_cdc_if.c ****   * @param  Buf: Buffer of data to be received
 263:Src/usbd_cdc_if.c ****   * @param  Len: Number of data received (in bytes)
 264:Src/usbd_cdc_if.c ****   * @retval USBD_OK if all operations are OK else USBD_FAIL
 265:Src/usbd_cdc_if.c ****   */
 266:Src/usbd_cdc_if.c **** extern uint8_t TestSendProto(void);
 267:Src/usbd_cdc_if.c **** 
 268:Src/usbd_cdc_if.c **** static int8_t CDC_Receive_HS(uint8_t* Buf, uint32_t *Len)
 269:Src/usbd_cdc_if.c **** {
  73              		.loc 1 269 1 is_stmt 1 view -0
  74              		.cfi_startproc
  75              		@ args = 0, pretend = 0, frame = 0
  76              		@ frame_needed = 0, uses_anonymous_args = 0
  77              		.loc 1 269 1 is_stmt 0 view .LVU9
  78 0000 38B5     		push	{r3, r4, r5, lr}
ARM GAS  C:\Users\User\AppData\Local\Temp\ccvvXoar.s 			page 7


  79              	.LCFI0:
  80              		.cfi_def_cfa_offset 16
  81              		.cfi_offset 3, -16
  82              		.cfi_offset 4, -12
  83              		.cfi_offset 5, -8
  84              		.cfi_offset 14, -4
  85 0002 0446     		mov	r4, r0
 270:Src/usbd_cdc_if.c ****   /* USER CODE BEGIN 11 */
 271:Src/usbd_cdc_if.c ****   USBD_CDC_SetRxBuffer(&hUsbDeviceHS, &Buf[0]);
  86              		.loc 1 271 3 is_stmt 1 view .LVU10
  87 0004 074D     		ldr	r5, .L7
  88 0006 0146     		mov	r1, r0
  89              	.LVL3:
  90              		.loc 1 271 3 is_stmt 0 view .LVU11
  91 0008 2846     		mov	r0, r5
  92              	.LVL4:
  93              		.loc 1 271 3 view .LVU12
  94 000a FFF7FEFF 		bl	USBD_CDC_SetRxBuffer
  95              	.LVL5:
 272:Src/usbd_cdc_if.c ****   USBD_CDC_ReceivePacket(&hUsbDeviceHS);
  96              		.loc 1 272 3 is_stmt 1 view .LVU13
  97 000e 2846     		mov	r0, r5
  98 0010 FFF7FEFF 		bl	USBD_CDC_ReceivePacket
  99              	.LVL6:
 273:Src/usbd_cdc_if.c ****   if (Buf[0] == 0x01)
 100              		.loc 1 273 3 view .LVU14
 101              		.loc 1 273 10 is_stmt 0 view .LVU15
 102 0014 2378     		ldrb	r3, [r4]	@ zero_extendqisi2
 103              		.loc 1 273 6 view .LVU16
 104 0016 012B     		cmp	r3, #1
 105 0018 01D0     		beq	.L6
 106              	.L4:
 274:Src/usbd_cdc_if.c ****   {
 275:Src/usbd_cdc_if.c ****     TestSendProto();
 276:Src/usbd_cdc_if.c ****   }
 277:Src/usbd_cdc_if.c ****   return (USBD_OK);
 107              		.loc 1 277 3 is_stmt 1 view .LVU17
 278:Src/usbd_cdc_if.c ****   /* USER CODE END 11 */
 279:Src/usbd_cdc_if.c **** }
 108              		.loc 1 279 1 is_stmt 0 view .LVU18
 109 001a 0020     		movs	r0, #0
 110 001c 38BD     		pop	{r3, r4, r5, pc}
 111              	.LVL7:
 112              	.L6:
 275:Src/usbd_cdc_if.c ****   }
 113              		.loc 1 275 5 is_stmt 1 view .LVU19
 114 001e FFF7FEFF 		bl	TestSendProto
 115              	.LVL8:
 116 0022 FAE7     		b	.L4
 117              	.L8:
 118              		.align	2
 119              	.L7:
 120 0024 00000000 		.word	hUsbDeviceHS
 121              		.cfi_endproc
 122              	.LFE78:
 124              		.section	.text.CDC_Init_HS,"ax",%progbits
 125              		.align	1
ARM GAS  C:\Users\User\AppData\Local\Temp\ccvvXoar.s 			page 8


 126              		.syntax unified
 127              		.thumb
 128              		.thumb_func
 129              		.fpu softvfp
 131              	CDC_Init_HS:
 132              	.LFB75:
 158:Src/usbd_cdc_if.c ****   /* USER CODE BEGIN 8 */
 133              		.loc 1 158 1 view -0
 134              		.cfi_startproc
 135              		@ args = 0, pretend = 0, frame = 0
 136              		@ frame_needed = 0, uses_anonymous_args = 0
 137 0000 10B5     		push	{r4, lr}
 138              	.LCFI1:
 139              		.cfi_def_cfa_offset 8
 140              		.cfi_offset 4, -8
 141              		.cfi_offset 14, -4
 161:Src/usbd_cdc_if.c ****   USBD_CDC_SetRxBuffer(&hUsbDeviceHS, UserRxBufferHS);
 142              		.loc 1 161 3 view .LVU21
 143 0002 064C     		ldr	r4, .L11
 144 0004 0022     		movs	r2, #0
 145 0006 0649     		ldr	r1, .L11+4
 146 0008 2046     		mov	r0, r4
 147 000a FFF7FEFF 		bl	USBD_CDC_SetTxBuffer
 148              	.LVL9:
 162:Src/usbd_cdc_if.c ****   return (USBD_OK);
 149              		.loc 1 162 3 view .LVU22
 150 000e 0549     		ldr	r1, .L11+8
 151 0010 2046     		mov	r0, r4
 152 0012 FFF7FEFF 		bl	USBD_CDC_SetRxBuffer
 153              	.LVL10:
 163:Src/usbd_cdc_if.c ****   /* USER CODE END 8 */
 154              		.loc 1 163 3 view .LVU23
 165:Src/usbd_cdc_if.c **** 
 155              		.loc 1 165 1 is_stmt 0 view .LVU24
 156 0016 0020     		movs	r0, #0
 157 0018 10BD     		pop	{r4, pc}
 158              	.L12:
 159 001a 00BF     		.align	2
 160              	.L11:
 161 001c 00000000 		.word	hUsbDeviceHS
 162 0020 00000000 		.word	UserTxBufferHS
 163 0024 00000000 		.word	UserRxBufferHS
 164              		.cfi_endproc
 165              	.LFE75:
 167              		.section	.text.CDC_Transmit_HS,"ax",%progbits
 168              		.align	1
 169              		.global	CDC_Transmit_HS
 170              		.syntax unified
 171              		.thumb
 172              		.thumb_func
 173              		.fpu softvfp
 175              	CDC_Transmit_HS:
 176              	.LVL11:
 177              	.LFB79:
 280:Src/usbd_cdc_if.c **** 
 281:Src/usbd_cdc_if.c **** /**
 282:Src/usbd_cdc_if.c ****   * @brief  Data to send over USB IN endpoint are sent over CDC interface
ARM GAS  C:\Users\User\AppData\Local\Temp\ccvvXoar.s 			page 9


 283:Src/usbd_cdc_if.c ****   *         through this function.
 284:Src/usbd_cdc_if.c ****   * @param  Buf: Buffer of data to be sent
 285:Src/usbd_cdc_if.c ****   * @param  Len: Number of data to be sent (in bytes)
 286:Src/usbd_cdc_if.c ****   * @retval Result of the operation: USBD_OK if all operations are OK else USBD_FAIL or USBD_BUSY
 287:Src/usbd_cdc_if.c ****   */
 288:Src/usbd_cdc_if.c **** uint8_t CDC_Transmit_HS(uint8_t* Buf, uint16_t Len)
 289:Src/usbd_cdc_if.c **** {
 178              		.loc 1 289 1 is_stmt 1 view -0
 179              		.cfi_startproc
 180              		@ args = 0, pretend = 0, frame = 0
 181              		@ frame_needed = 0, uses_anonymous_args = 0
 290:Src/usbd_cdc_if.c ****   uint8_t result = USBD_OK;
 182              		.loc 1 290 3 view .LVU26
 291:Src/usbd_cdc_if.c ****   /* USER CODE BEGIN 12 */
 292:Src/usbd_cdc_if.c ****   USBD_CDC_HandleTypeDef *hcdc = (USBD_CDC_HandleTypeDef*)hUsbDeviceHS.pClassData;
 183              		.loc 1 292 3 view .LVU27
 184              		.loc 1 292 27 is_stmt 0 view .LVU28
 185 0000 094B     		ldr	r3, .L21
 186 0002 D3F8B832 		ldr	r3, [r3, #696]
 187              	.LVL12:
 293:Src/usbd_cdc_if.c ****   if (hcdc->TxState != 0){
 188              		.loc 1 293 3 is_stmt 1 view .LVU29
 189              		.loc 1 293 11 is_stmt 0 view .LVU30
 190 0006 D3F81432 		ldr	r3, [r3, #532]
 191              	.LVL13:
 192              		.loc 1 293 6 view .LVU31
 193 000a 0BB1     		cbz	r3, .L20
 294:Src/usbd_cdc_if.c ****     return USBD_BUSY;
 194              		.loc 1 294 12 view .LVU32
 195 000c 0120     		movs	r0, #1
 196              	.LVL14:
 295:Src/usbd_cdc_if.c ****   }
 296:Src/usbd_cdc_if.c ****   USBD_CDC_SetTxBuffer(&hUsbDeviceHS, Buf, Len);
 297:Src/usbd_cdc_if.c ****   result = USBD_CDC_TransmitPacket(&hUsbDeviceHS);
 298:Src/usbd_cdc_if.c ****   /* USER CODE END 12 */
 299:Src/usbd_cdc_if.c ****   return result;
 300:Src/usbd_cdc_if.c **** }
 197              		.loc 1 300 1 view .LVU33
 198 000e 7047     		bx	lr
 199              	.LVL15:
 200              	.L20:
 289:Src/usbd_cdc_if.c ****   uint8_t result = USBD_OK;
 201              		.loc 1 289 1 view .LVU34
 202 0010 10B5     		push	{r4, lr}
 203              	.LCFI2:
 204              		.cfi_def_cfa_offset 8
 205              		.cfi_offset 4, -8
 206              		.cfi_offset 14, -4
 207 0012 0A46     		mov	r2, r1
 208 0014 0146     		mov	r1, r0
 209              	.LVL16:
 296:Src/usbd_cdc_if.c ****   result = USBD_CDC_TransmitPacket(&hUsbDeviceHS);
 210              		.loc 1 296 3 is_stmt 1 view .LVU35
 211 0016 044C     		ldr	r4, .L21
 212              	.LVL17:
 296:Src/usbd_cdc_if.c ****   result = USBD_CDC_TransmitPacket(&hUsbDeviceHS);
 213              		.loc 1 296 3 is_stmt 0 view .LVU36
ARM GAS  C:\Users\User\AppData\Local\Temp\ccvvXoar.s 			page 10


 214 0018 2046     		mov	r0, r4
 215              	.LVL18:
 296:Src/usbd_cdc_if.c ****   result = USBD_CDC_TransmitPacket(&hUsbDeviceHS);
 216              		.loc 1 296 3 view .LVU37
 217 001a FFF7FEFF 		bl	USBD_CDC_SetTxBuffer
 218              	.LVL19:
 297:Src/usbd_cdc_if.c ****   /* USER CODE END 12 */
 219              		.loc 1 297 3 is_stmt 1 view .LVU38
 297:Src/usbd_cdc_if.c ****   /* USER CODE END 12 */
 220              		.loc 1 297 12 is_stmt 0 view .LVU39
 221 001e 2046     		mov	r0, r4
 222 0020 FFF7FEFF 		bl	USBD_CDC_TransmitPacket
 223              	.LVL20:
 299:Src/usbd_cdc_if.c **** }
 224              		.loc 1 299 3 is_stmt 1 view .LVU40
 225              		.loc 1 300 1 is_stmt 0 view .LVU41
 226 0024 10BD     		pop	{r4, pc}
 227              	.L22:
 228 0026 00BF     		.align	2
 229              	.L21:
 230 0028 00000000 		.word	hUsbDeviceHS
 231              		.cfi_endproc
 232              	.LFE79:
 234              		.global	USBD_Interface_fops_HS
 235              		.comm	UserTxBufferHS,2048,4
 236              		.comm	UserRxBufferHS,2048,4
 237              		.section	.data.USBD_Interface_fops_HS,"aw"
 238              		.align	2
 241              	USBD_Interface_fops_HS:
 242 0000 00000000 		.word	CDC_Init_HS
 243 0004 00000000 		.word	CDC_DeInit_HS
 244 0008 00000000 		.word	CDC_Control_HS
 245 000c 00000000 		.word	CDC_Receive_HS
 246              		.text
 247              	.Letext0:
 248              		.file 2 "c:\\users\\user\\appdata\\roaming\\gnumcueclipse\\armembeddedgcc\\arm-none-eabi\\include\
 249              		.file 3 "c:\\users\\user\\appdata\\roaming\\gnumcueclipse\\armembeddedgcc\\arm-none-eabi\\include\
 250              		.file 4 "c:\\users\\user\\appdata\\roaming\\gnumcueclipse\\armembeddedgcc\\arm-none-eabi\\include\
 251              		.file 5 "c:\\users\\user\\appdata\\roaming\\gnumcueclipse\\armembeddedgcc\\lib\\gcc\\arm-none-eabi
 252              		.file 6 "c:\\users\\user\\appdata\\roaming\\gnumcueclipse\\armembeddedgcc\\arm-none-eabi\\include\
 253              		.file 7 "c:\\users\\user\\appdata\\roaming\\gnumcueclipse\\armembeddedgcc\\arm-none-eabi\\include\
 254              		.file 8 "c:\\users\\user\\appdata\\roaming\\gnumcueclipse\\armembeddedgcc\\arm-none-eabi\\include\
 255              		.file 9 "Drivers/CMSIS/Include/core_cm3.h"
 256              		.file 10 "Drivers/CMSIS/Device/ST/STM32F2xx/Include/system_stm32f2xx.h"
 257              		.file 11 "Drivers/STM32F2xx_HAL_Driver/Inc/stm32f2xx_hal.h"
 258              		.file 12 "Middlewares/ST/STM32_USB_Device_Library/Core/Inc/usbd_def.h"
 259              		.file 13 "Middlewares/ST/STM32_USB_Device_Library/Class/CDC/Inc/usbd_cdc.h"
 260              		.file 14 "Inc/usbd_cdc_if.h"
ARM GAS  C:\Users\User\AppData\Local\Temp\ccvvXoar.s 			page 11

